ARM GAS  /tmp/cc4RBTrk.s 			page 1


   1              		.cpu cortex-m3
   2              		.eabi_attribute 20, 1
   3              		.eabi_attribute 21, 1
   4              		.eabi_attribute 23, 3
   5              		.eabi_attribute 24, 1
   6              		.eabi_attribute 25, 1
   7              		.eabi_attribute 26, 1
   8              		.eabi_attribute 30, 1
   9              		.eabi_attribute 34, 1
  10              		.eabi_attribute 18, 4
  11              		.file	"delay.c"
  12              		.text
  13              	.Ltext0:
  14              		.cfi_sections	.debug_frame
  15              		.section	.text._init_us,"ax",%progbits
  16              		.align	1
  17              		.global	_init_us
  18              		.syntax unified
  19              		.thumb
  20              		.thumb_func
  21              		.fpu softvfp
  23              	_init_us:
  24              	.LFB66:
  25              		.file 1 "./Src/delay.c"
   1:./Src/delay.c **** #include "stm32f1xx_hal.h"
   2:./Src/delay.c **** #include <stdint.h>
   3:./Src/delay.c **** #include "delay.h"
   4:./Src/delay.c **** 
   5:./Src/delay.c **** TIM_HandleTypeDef TimHandle;
   6:./Src/delay.c **** 
   7:./Src/delay.c **** // Init timer for Microseconds delays
   8:./Src/delay.c **** void _init_us() {
  26              		.loc 1 8 0
  27              		.cfi_startproc
  28              		@ args = 0, pretend = 0, frame = 8
  29              		@ frame_needed = 0, uses_anonymous_args = 0
  30 0000 10B5     		push	{r4, lr}
  31              	.LCFI0:
  32              		.cfi_def_cfa_offset 8
  33              		.cfi_offset 4, -8
  34              		.cfi_offset 14, -4
  35 0002 82B0     		sub	sp, sp, #8
  36              	.LCFI1:
  37              		.cfi_def_cfa_offset 16
  38              	.LBB2:
   9:./Src/delay.c ****         __HAL_RCC_TIM2_CLK_ENABLE();
  39              		.loc 1 9 0
  40 0004 114B     		ldr	r3, .L3
  41 0006 DA69     		ldr	r2, [r3, #28]
  42 0008 42F00102 		orr	r2, r2, #1
  43 000c DA61     		str	r2, [r3, #28]
  44 000e DB69     		ldr	r3, [r3, #28]
  45 0010 03F00103 		and	r3, r3, #1
  46 0014 0193     		str	r3, [sp, #4]
  47 0016 019B     		ldr	r3, [sp, #4]
  48              	.LBE2:
  10:./Src/delay.c ****         TimHandle.Instance = TIM2;
ARM GAS  /tmp/cc4RBTrk.s 			page 2


  49              		.loc 1 10 0
  50 0018 0D4C     		ldr	r4, .L3+4
  51 001a 4FF08043 		mov	r3, #1073741824
  52 001e 2360     		str	r3, [r4]
  11:./Src/delay.c ****         TimHandle.Init.Period = UINT16_MAX;
  53              		.loc 1 11 0
  54 0020 4FF6FF73 		movw	r3, #65535
  55 0024 E360     		str	r3, [r4, #12]
  12:./Src/delay.c ****         TimHandle.Init.Prescaler = (SystemCoreClock/DELAY_TIM_FREQUENCY_US)-1;;
  56              		.loc 1 12 0
  57 0026 0B4B     		ldr	r3, .L3+8
  58 0028 1B68     		ldr	r3, [r3]
  59 002a 0B4A     		ldr	r2, .L3+12
  60 002c A2FB0323 		umull	r2, r3, r2, r3
  61 0030 9B0C     		lsrs	r3, r3, #18
  62 0032 013B     		subs	r3, r3, #1
  63 0034 6360     		str	r3, [r4, #4]
  13:./Src/delay.c ****         TimHandle.Init.ClockDivision = 0;
  64              		.loc 1 13 0
  65 0036 0023     		movs	r3, #0
  66 0038 2361     		str	r3, [r4, #16]
  14:./Src/delay.c ****         TimHandle.Init.CounterMode = TIM_COUNTERMODE_UP;        
  67              		.loc 1 14 0
  68 003a A360     		str	r3, [r4, #8]
  15:./Src/delay.c ****         HAL_TIM_Base_Init(&TimHandle);
  69              		.loc 1 15 0
  70 003c 2046     		mov	r0, r4
  71 003e FFF7FEFF 		bl	HAL_TIM_Base_Init
  72              	.LVL0:
  16:./Src/delay.c ****           
  17:./Src/delay.c ****         HAL_TIM_Base_Start(&TimHandle);
  73              		.loc 1 17 0
  74 0042 2046     		mov	r0, r4
  75 0044 FFF7FEFF 		bl	HAL_TIM_Base_Start
  76              	.LVL1:
  18:./Src/delay.c **** }
  77              		.loc 1 18 0
  78 0048 02B0     		add	sp, sp, #8
  79              	.LCFI2:
  80              		.cfi_def_cfa_offset 8
  81              		@ sp needed
  82 004a 10BD     		pop	{r4, pc}
  83              	.L4:
  84              		.align	2
  85              	.L3:
  86 004c 00100240 		.word	1073876992
  87 0050 00000000 		.word	TimHandle
  88 0054 00000000 		.word	SystemCoreClock
  89 0058 83DE1B43 		.word	1125899907
  90              		.cfi_endproc
  91              	.LFE66:
  93              		.section	.text._init_ms,"ax",%progbits
  94              		.align	1
  95              		.global	_init_ms
  96              		.syntax unified
  97              		.thumb
  98              		.thumb_func
ARM GAS  /tmp/cc4RBTrk.s 			page 3


  99              		.fpu softvfp
 101              	_init_ms:
 102              	.LFB67:
  19:./Src/delay.c **** 
  20:./Src/delay.c **** // Init and start timer for Milliseconds delays
  21:./Src/delay.c **** void _init_ms() {
 103              		.loc 1 21 0
 104              		.cfi_startproc
 105              		@ args = 0, pretend = 0, frame = 8
 106              		@ frame_needed = 0, uses_anonymous_args = 0
 107 0000 10B5     		push	{r4, lr}
 108              	.LCFI3:
 109              		.cfi_def_cfa_offset 8
 110              		.cfi_offset 4, -8
 111              		.cfi_offset 14, -4
 112 0002 82B0     		sub	sp, sp, #8
 113              	.LCFI4:
 114              		.cfi_def_cfa_offset 16
 115              	.LBB3:
  22:./Src/delay.c ****         __HAL_RCC_TIM2_CLK_ENABLE();
 116              		.loc 1 22 0
 117 0004 114B     		ldr	r3, .L7
 118 0006 DA69     		ldr	r2, [r3, #28]
 119 0008 42F00102 		orr	r2, r2, #1
 120 000c DA61     		str	r2, [r3, #28]
 121 000e DB69     		ldr	r3, [r3, #28]
 122 0010 03F00103 		and	r3, r3, #1
 123 0014 0193     		str	r3, [sp, #4]
 124 0016 019B     		ldr	r3, [sp, #4]
 125              	.LBE3:
  23:./Src/delay.c ****         TimHandle.Instance = TIM2;
 126              		.loc 1 23 0
 127 0018 0D4C     		ldr	r4, .L7+4
 128 001a 4FF08043 		mov	r3, #1073741824
 129 001e 2360     		str	r3, [r4]
  24:./Src/delay.c ****         TimHandle.Init.Period = UINT16_MAX;
 130              		.loc 1 24 0
 131 0020 4FF6FF73 		movw	r3, #65535
 132 0024 E360     		str	r3, [r4, #12]
  25:./Src/delay.c ****         TimHandle.Init.Prescaler = (SystemCoreClock/DELAY_TIM_FREQUENCY_MS)-1;;
 133              		.loc 1 25 0
 134 0026 0B4B     		ldr	r3, .L7+8
 135 0028 1B68     		ldr	r3, [r3]
 136 002a 0B4A     		ldr	r2, .L7+12
 137 002c A2FB0323 		umull	r2, r3, r2, r3
 138 0030 9B09     		lsrs	r3, r3, #6
 139 0032 013B     		subs	r3, r3, #1
 140 0034 6360     		str	r3, [r4, #4]
  26:./Src/delay.c ****         TimHandle.Init.ClockDivision = 0;
 141              		.loc 1 26 0
 142 0036 0023     		movs	r3, #0
 143 0038 2361     		str	r3, [r4, #16]
  27:./Src/delay.c ****         TimHandle.Init.CounterMode = TIM_COUNTERMODE_UP;        
 144              		.loc 1 27 0
 145 003a A360     		str	r3, [r4, #8]
  28:./Src/delay.c ****         HAL_TIM_Base_Init(&TimHandle);
 146              		.loc 1 28 0
ARM GAS  /tmp/cc4RBTrk.s 			page 4


 147 003c 2046     		mov	r0, r4
 148 003e FFF7FEFF 		bl	HAL_TIM_Base_Init
 149              	.LVL2:
  29:./Src/delay.c **** 
  30:./Src/delay.c ****         HAL_TIM_Base_Start(&TimHandle);       
 150              		.loc 1 30 0
 151 0042 2046     		mov	r0, r4
 152 0044 FFF7FEFF 		bl	HAL_TIM_Base_Start
 153              	.LVL3:
  31:./Src/delay.c **** }
 154              		.loc 1 31 0
 155 0048 02B0     		add	sp, sp, #8
 156              	.LCFI5:
 157              		.cfi_def_cfa_offset 8
 158              		@ sp needed
 159 004a 10BD     		pop	{r4, pc}
 160              	.L8:
 161              		.align	2
 162              	.L7:
 163 004c 00100240 		.word	1073876992
 164 0050 00000000 		.word	TimHandle
 165 0054 00000000 		.word	SystemCoreClock
 166 0058 D34D6210 		.word	274877907
 167              		.cfi_endproc
 168              	.LFE67:
 170              		.section	.text._stop_timer,"ax",%progbits
 171              		.align	1
 172              		.global	_stop_timer
 173              		.syntax unified
 174              		.thumb
 175              		.thumb_func
 176              		.fpu softvfp
 178              	_stop_timer:
 179              	.LFB68:
  32:./Src/delay.c **** 
  33:./Src/delay.c **** 
  34:./Src/delay.c **** // Stop timer
  35:./Src/delay.c **** void _stop_timer() {
 180              		.loc 1 35 0
 181              		.cfi_startproc
 182              		@ args = 0, pretend = 0, frame = 0
 183              		@ frame_needed = 0, uses_anonymous_args = 0
 184 0000 08B5     		push	{r3, lr}
 185              	.LCFI6:
 186              		.cfi_def_cfa_offset 8
 187              		.cfi_offset 3, -8
 188              		.cfi_offset 14, -4
  36:./Src/delay.c **** 	HAL_TIM_Base_Stop(&TimHandle);
 189              		.loc 1 36 0
 190 0002 0448     		ldr	r0, .L11
 191 0004 FFF7FEFF 		bl	HAL_TIM_Base_Stop
 192              	.LVL4:
  37:./Src/delay.c ****         __HAL_RCC_TIM2_CLK_DISABLE();
 193              		.loc 1 37 0
 194 0008 034A     		ldr	r2, .L11+4
 195 000a D369     		ldr	r3, [r2, #28]
 196 000c 23F00103 		bic	r3, r3, #1
ARM GAS  /tmp/cc4RBTrk.s 			page 5


 197 0010 D361     		str	r3, [r2, #28]
  38:./Src/delay.c **** }
 198              		.loc 1 38 0
 199 0012 08BD     		pop	{r3, pc}
 200              	.L12:
 201              		.align	2
 202              	.L11:
 203 0014 00000000 		.word	TimHandle
 204 0018 00100240 		.word	1073876992
 205              		.cfi_endproc
 206              	.LFE68:
 208              		.section	.text.Delay_ms,"ax",%progbits
 209              		.align	1
 210              		.global	Delay_ms
 211              		.syntax unified
 212              		.thumb
 213              		.thumb_func
 214              		.fpu softvfp
 216              	Delay_ms:
 217              	.LFB69:
  39:./Src/delay.c **** 
  40:./Src/delay.c **** // Do delay for nTime milliseconds
  41:./Src/delay.c **** void Delay_ms(uint32_t mSecs) {
 218              		.loc 1 41 0
 219              		.cfi_startproc
 220              		@ args = 0, pretend = 0, frame = 0
 221              		@ frame_needed = 0, uses_anonymous_args = 0
 222              	.LVL5:
 223 0000 10B5     		push	{r4, lr}
 224              	.LCFI7:
 225              		.cfi_def_cfa_offset 8
 226              		.cfi_offset 4, -8
 227              		.cfi_offset 14, -4
 228 0002 0446     		mov	r4, r0
  42:./Src/delay.c **** 	// Init and start timer
  43:./Src/delay.c **** 	_init_ms();
 229              		.loc 1 43 0
 230 0004 FFF7FEFF 		bl	_init_ms
 231              	.LVL6:
  44:./Src/delay.c **** 
  45:./Src/delay.c **** 	// Dummy loop with 16 bit count wrap around
  46:./Src/delay.c **** 	uint32_t start = TIM2->CNT;
 232              		.loc 1 46 0
 233 0008 4FF08043 		mov	r3, #1073741824
 234 000c 5A6A     		ldr	r2, [r3, #36]
 235              	.LVL7:
 236              	.L14:
  47:./Src/delay.c **** 	while((TIM2->CNT-start) <= mSecs);
 237              		.loc 1 47 0 discriminator 1
 238 000e 4FF08043 		mov	r3, #1073741824
 239 0012 5B6A     		ldr	r3, [r3, #36]
 240 0014 9B1A     		subs	r3, r3, r2
 241 0016 A342     		cmp	r3, r4
 242 0018 F9D9     		bls	.L14
  48:./Src/delay.c **** 
  49:./Src/delay.c **** 	// Stop timer
  50:./Src/delay.c **** 	_stop_timer();
ARM GAS  /tmp/cc4RBTrk.s 			page 6


 243              		.loc 1 50 0
 244 001a FFF7FEFF 		bl	_stop_timer
 245              	.LVL8:
  51:./Src/delay.c **** }
 246              		.loc 1 51 0
 247 001e 10BD     		pop	{r4, pc}
 248              		.cfi_endproc
 249              	.LFE69:
 251              		.section	.text.Delay_us,"ax",%progbits
 252              		.align	1
 253              		.global	Delay_us
 254              		.syntax unified
 255              		.thumb
 256              		.thumb_func
 257              		.fpu softvfp
 259              	Delay_us:
 260              	.LFB70:
  52:./Src/delay.c **** 
  53:./Src/delay.c **** // Do delay for nTime microseconds
  54:./Src/delay.c **** void Delay_us(uint32_t uSecs) {
 261              		.loc 1 54 0
 262              		.cfi_startproc
 263              		@ args = 0, pretend = 0, frame = 0
 264              		@ frame_needed = 0, uses_anonymous_args = 0
 265              	.LVL9:
 266 0000 10B5     		push	{r4, lr}
 267              	.LCFI8:
 268              		.cfi_def_cfa_offset 8
 269              		.cfi_offset 4, -8
 270              		.cfi_offset 14, -4
 271 0002 0446     		mov	r4, r0
  55:./Src/delay.c **** 	// Init and start timer
  56:./Src/delay.c **** 	_init_us();
 272              		.loc 1 56 0
 273 0004 FFF7FEFF 		bl	_init_us
 274              	.LVL10:
  57:./Src/delay.c **** 
  58:./Src/delay.c **** 	// Dummy loop with 16 bit count wrap around
  59:./Src/delay.c **** 	uint32_t start = TIM2->CNT;
 275              		.loc 1 59 0
 276 0008 4FF08043 		mov	r3, #1073741824
 277 000c 5A6A     		ldr	r2, [r3, #36]
 278              	.LVL11:
 279              	.L17:
  60:./Src/delay.c **** 	while((TIM2->CNT-start) <= uSecs);
 280              		.loc 1 60 0 discriminator 1
 281 000e 4FF08043 		mov	r3, #1073741824
 282 0012 5B6A     		ldr	r3, [r3, #36]
 283 0014 9B1A     		subs	r3, r3, r2
 284 0016 A342     		cmp	r3, r4
 285 0018 F9D9     		bls	.L17
  61:./Src/delay.c **** 
  62:./Src/delay.c **** 	// Stop timer
  63:./Src/delay.c **** 	_stop_timer();
 286              		.loc 1 63 0
 287 001a FFF7FEFF 		bl	_stop_timer
 288              	.LVL12:
ARM GAS  /tmp/cc4RBTrk.s 			page 7


  64:./Src/delay.c **** }
 289              		.loc 1 64 0
 290 001e 10BD     		pop	{r4, pc}
 291              		.cfi_endproc
 292              	.LFE70:
 294              		.comm	TimHandle,60,4
 295              		.text
 296              	.Letext0:
 297              		.file 2 "/usr/arm-none-eabi/include/machine/_default_types.h"
 298              		.file 3 "/usr/arm-none-eabi/include/sys/_stdint.h"
 299              		.file 4 "./Drivers/CMSIS/Include/core_cm3.h"
 300              		.file 5 "./Drivers/CMSIS/Device/ST/STM32F1xx/Include/system_stm32f1xx.h"
 301              		.file 6 "./Drivers/CMSIS/Device/ST/STM32F1xx/Include/stm32f103xe.h"
 302              		.file 7 "/usr/arm-none-eabi/include/sys/lock.h"
 303              		.file 8 "/usr/arm-none-eabi/include/sys/_types.h"
 304              		.file 9 "/usr/lib/gcc/arm-none-eabi/7.2.0/include/stddef.h"
 305              		.file 10 "/usr/arm-none-eabi/include/sys/reent.h"
 306              		.file 11 "./Drivers/STM32F1xx_HAL_Driver/Inc/stm32f1xx_hal_def.h"
 307              		.file 12 "./Drivers/STM32F1xx_HAL_Driver/Inc/stm32f1xx_hal_dma.h"
 308              		.file 13 "./Drivers/STM32F1xx_HAL_Driver/Inc/stm32f1xx_hal_tim.h"
ARM GAS  /tmp/cc4RBTrk.s 			page 8

