ARM GAS  /tmp/ccsUg8Js.s 			page 1


   1              		.cpu cortex-m3
   2              		.eabi_attribute 20, 1
   3              		.eabi_attribute 21, 1
   4              		.eabi_attribute 23, 3
   5              		.eabi_attribute 24, 1
   6              		.eabi_attribute 25, 1
   7              		.eabi_attribute 26, 1
   8              		.eabi_attribute 30, 1
   9              		.eabi_attribute 34, 1
  10              		.eabi_attribute 18, 4
  11              		.file	"main.c"
  12              		.text
  13              	.Ltext0:
  14              		.cfi_sections	.debug_frame
  15              		.section	.text.HAL_ADC_ConvCpltCallback,"ax",%progbits
  16              		.align	1
  17              		.global	HAL_ADC_ConvCpltCallback
  18              		.syntax unified
  19              		.thumb
  20              		.thumb_func
  21              		.fpu softvfp
  23              	HAL_ADC_ConvCpltCallback:
  24              	.LFB69:
  25              		.file 1 "./Src/main.c"
   1:./Src/main.c  **** /*                              ------ hacking hoverboard -------
   2:./Src/main.c  **** MOTOR LEFT
   3:./Src/main.c  ****             HALL_A = PB5
   4:./Src/main.c  ****             HALL_B = PB6
   5:./Src/main.c  ****             HALL_C = PB7
   6:./Src/main.c  ****             A-MOSFET_+ = PC6    [Attivo alto]
   7:./Src/main.c  ****             A-MOSFET_- = PA7    [Attivo basso]
   8:./Src/main.c  ****             B-MOSFET_+ = PC7    [Attivo alto]
   9:./Src/main.c  ****             B-MOSFET_- = PB0    [Attivo basso]
  10:./Src/main.c  ****             C-MOSFET_+ = PC8    [Attivo alto]
  11:./Src/main.c  ****             C-MOSFET_- = PB1    [Attivo basso]
  12:./Src/main.c  ****             CURRENT_SENSE_shunt = PC0 [Analog, a vuoto 1.5747V, Rshunt=0.0036525/Guadagno_OPAMP = 1
  13:./Src/main.c  ****             A-VOLTAGE_PHASE_A_BACK_EMF = PA0    [Analog]  -- {NOT USE}
  14:./Src/main.c  ****             B-VOLTAGE_PHASE_A_BACK_EMF = PC3    [Analog]  -- {NOT USE}
  15:./Src/main.c  **** 
  16:./Src/main.c  **** MOTOR RIGHT
  17:./Src/main.c  ****             HALL_A = PC10
  18:./Src/main.c  ****             HALL_B = PC11
  19:./Src/main.c  ****             HALL_C = PC12
  20:./Src/main.c  ****             A-MOSFET_+ = PA8    [Attivo alto]
  21:./Src/main.c  ****             A-MOSFET_- = PB13   [Attivo basso]
  22:./Src/main.c  ****             B-MOSFET_+ = PA9    [Attivo alto]
  23:./Src/main.c  ****             B-MOSFET_- = PB14   [Attivo basso]
  24:./Src/main.c  ****             C-MOSFET_+ = PA10   [Attivo alto]
  25:./Src/main.c  ****             C-MOSFET_- = PB15   [Attivo basso]
  26:./Src/main.c  ****             CURRENT_SENSE_shunt = PC1 [Analog, a vuoto 1.5747V, Rshunt=0.0036525/Guadagno_OPAMP = 1
  27:./Src/main.c  ****             A-VOLTAGE_PHASE_A_BACK_EMF = PC4    [Analog]  -- {NOT USE}
  28:./Src/main.c  ****             B-VOLTAGE_PHASE_A_BACK_EMF = PC5    [Analog]  -- {NOT USE}
  29:./Src/main.c  **** 
  30:./Src/main.c  **** VARIE
  31:./Src/main.c  ****             LED = PB2
  32:./Src/main.c  ****             BUZZER = PA4
  33:./Src/main.c  ****             FRONT_LEFT[connettore 4 poli] = +15V ; PA2 ; PA3 ; MASSA    -- {NOT USE}
ARM GAS  /tmp/ccsUg8Js.s 			page 2


  34:./Src/main.c  ****             FRONT_RIGHT[connettore 4 poli] = +15V ; PB10 ; PB11 ; MASSA -- {USE x JOYSTICK}
  35:./Src/main.c  ****             SWITCH = PA1                                                -- {NOT USE}
  36:./Src/main.c  ****             VBATT_MEASURE = PC2         [Analog, rapporto 956.5 ohm/29910 ohm]
  37:./Src/main.c  ****             IS_BATTERY_IN_CHARGE = PA12 [input, need pullup]
  38:./Src/main.c  ****             AUTO-RITENUTA-SWITCH = PA5 [output, mantiene attivo il tip127 che funge da interruttore
  39:./Src/main.c  ****             NOT-IDENTIFITY = PB12
  40:./Src/main.c  ****             NOT-IDENTIFITY = PA6
  41:./Src/main.c  **** 
  42:./Src/main.c  **** */
  43:./Src/main.c  **** #include "main.h"
  44:./Src/main.c  **** #include "stm32f1xx_hal.h"
  45:./Src/main.c  **** #include "motor_L.h"
  46:./Src/main.c  **** #include "motor_R.h"
  47:./Src/main.c  **** #include "varie.h"
  48:./Src/main.c  **** #include "ADC_L.h"
  49:./Src/main.c  **** #include "ADC_R.h"
  50:./Src/main.c  **** #include "delay.h"
  51:./Src/main.c  **** #include "pid.h"
  52:./Src/main.c  **** #include "application.h"
  53:./Src/main.c  **** #include "telemetry.h"
  54:./Src/main.c  **** #include <math.h>
  55:./Src/main.c  **** 
  56:./Src/main.c  **** // copied from STMBL
  57:./Src/main.c  **** #define NO 0
  58:./Src/main.c  **** #define YES 1
  59:./Src/main.c  **** #define ABS(a) (((a) < 0.0) ? -(a) : (a))
  60:./Src/main.c  **** #define LIMIT(x, lowhigh) (((x) > (lowhigh)) ? (lowhigh) : (((x) < (-lowhigh)) ? (-lowhigh) : (x)))
  61:./Src/main.c  **** #define SAT(x, lowhigh) (((x) > (lowhigh)) ? (1.0) : (((x) < (-lowhigh)) ? (-1.0) : (0.0)))
  62:./Src/main.c  **** #define SAT2(x, low, high) (((x) > (high)) ? (1.0) : (((x) < (low)) ? (-1.0) : (0.0)))
  63:./Src/main.c  **** #define STEP(from, to, step) (((from) < (to)) ? (MIN((from) + (step), (to))) : (MAX((from) - (step)
  64:./Src/main.c  **** #define DEG(a) ((a)*M_PI / 180.0)
  65:./Src/main.c  **** #define RAD(a) ((a)*180.0 / M_PI)
  66:./Src/main.c  **** #define SIGN(a) (((a) < 0.0) ? (-1.0) : (((a) > 0.0) ? (1.0) : (0.0)))
  67:./Src/main.c  **** #define CLAMP(x, low, high) (((x) > (high)) ? (high) : (((x) < (low)) ? (low) : (x)))
  68:./Src/main.c  **** #define SCALE(value, high, max) MIN(MAX(((max) - (value)) / ((max) - (high)), 0.0), 1.0)
  69:./Src/main.c  **** #define MIN(a, b) (((a) < (b)) ? (a) : (b))
  70:./Src/main.c  **** #define MAX(a, b) (((a) > (b)) ? (a) : (b))
  71:./Src/main.c  **** #define MIN3(a, b, c) MIN(a, MIN(b, c))
  72:./Src/main.c  **** #define MAX3(a, b, c) MAX(a, MAX(b, c))
  73:./Src/main.c  **** 
  74:./Src/main.c  **** #define PI 3.14159265
  75:./Src/main.c  **** 
  76:./Src/main.c  **** /* Private variables ---------------------------------------------------------*/
  77:./Src/main.c  **** 
  78:./Src/main.c  **** /* Private function prototypes -----------------------------------------------*/
  79:./Src/main.c  **** void SystemClock_Config(void);
  80:./Src/main.c  **** void Error_Handler(void);
  81:./Src/main.c  **** //extern struct PID_dati pid_R_;
  82:./Src/main.c  **** static void MX_IWDG_Init(void);
  83:./Src/main.c  **** IWDG_HandleTypeDef hiwdg;
  84:./Src/main.c  **** 
  85:./Src/main.c  **** volatile __IO int16_t speed = 0;
  86:./Src/main.c  **** extern struct TELEMETRY_dati telemetry;
  87:./Src/main.c  **** //extern struct COMMAND_data commandsequence;
  88:./Src/main.c  **** 
  89:./Src/main.c  **** //TEMP
  90:./Src/main.c  **** /*
ARM GAS  /tmp/ccsUg8Js.s 			page 3


  91:./Src/main.c  **** extern volatile __IO struct MOTOR_Rdati motorR;
  92:./Src/main.c  **** volatile __IO uint8_t temp8,temp8case,temp_MOTOR_R_START;
  93:./Src/main.c  **** volatile __IO int32_t temp_SET_SPPED;
  94:./Src/main.c  **** volatile __IO uint8_t bufferTX[100],ai2cBuffer[10];
  95:./Src/main.c  **** int32_t speed;
  96:./Src/main.c  **** */
  97:./Src/main.c  **** volatile __IO uint32_t counterTemp,counterTempTT;
  98:./Src/main.c  **** 
  99:./Src/main.c  **** int main(void)
 100:./Src/main.c  **** {
 101:./Src/main.c  ****   /* Reset of all peripherals, Initializes the Flash interface and the Systick. */
 102:./Src/main.c  ****   HAL_Init();
 103:./Src/main.c  **** 
 104:./Src/main.c  ****   /* Configure the system clock */
 105:./Src/main.c  ****   SystemClock_Config();
 106:./Src/main.c  **** 
 107:./Src/main.c  ****   Button_init();
 108:./Src/main.c  **** 
 109:./Src/main.c  ****   Power_Set(1);
 110:./Src/main.c  **** 
 111:./Src/main.c  **** 
 112:./Src/main.c  ****   Telemetry_init();
 113:./Src/main.c  **** 
 114:./Src/main.c  ****   Buzzer_init();
 115:./Src/main.c  ****   Led_init();
 116:./Src/main.c  ****   IS_Charge_init();
 117:./Src/main.c  **** 
 118:./Src/main.c  ****   ADC_L_init();
 119:./Src/main.c  ****   ADC_R_init();
 120:./Src/main.c  ****   MotorL_init();
 121:./Src/main.c  ****   MotorR_init();
 122:./Src/main.c  **** 
 123:./Src/main.c  **** 
 124:./Src/main.c  ****   //PID_init(0,900); //pwm limit
 125:./Src/main.c  ****   //PID_set_L_costant(0.05,0.01,0.0);
 126:./Src/main.c  ****   //PID_set_R_costant(2.0,0.5,0.0);
 127:./Src/main.c  **** 
 128:./Src/main.c  **** //DebugPin_init();
 129:./Src/main.c  ****   HAL_Delay(350);
 130:./Src/main.c  ****   while(IS_Button()) {
 131:./Src/main.c  ****     Led_Set(0);
 132:./Src/main.c  ****   }
 133:./Src/main.c  **** 
 134:./Src/main.c  ****   applcation_init();
 135:./Src/main.c  ****   Battery_TASK();
 136:./Src/main.c  **** 
 137:./Src/main.c  ****   MX_IWDG_Init();
 138:./Src/main.c  **** 
 139:./Src/main.c  ****   Led_Set(1);
 140:./Src/main.c  ****   Buzzer_TwoBeep();
 141:./Src/main.c  ****   HAL_Delay(350);
 142:./Src/main.c  **** 
 143:./Src/main.c  ****   MotorR_start();
 144:./Src/main.c  ****   MotorL_start();
 145:./Src/main.c  **** 
 146:./Src/main.c  ****   uint32_t sinValue = 0;
 147:./Src/main.c  ****   int lastSpeedL = 0, lastSpeedR = 0;
ARM GAS  /tmp/ccsUg8Js.s 			page 4


 148:./Src/main.c  ****   while(1){
 149:./Src/main.c  ****     sinValue++;
 150:./Src/main.c  ****     if(IS_Button()) {
 151:./Src/main.c  ****       while(IS_Button()) {
 152:./Src/main.c  ****         HAL_IWDG_Refresh(&hiwdg);
 153:./Src/main.c  ****       }
 154:./Src/main.c  ****       Buzzer_OneLongBeep();
 155:./Src/main.c  ****       HAL_Delay(350);
 156:./Src/main.c  ****       Power_Set(0);
 157:./Src/main.c  ****     }
 158:./Src/main.c  ****     
 159:./Src/main.c  ****     if ((sinValue) % (200) == 0) {
 160:./Src/main.c  ****       int speedL = -CLAMP(getMotorR(), -1000, 1000);
 161:./Src/main.c  ****       int speedR = -CLAMP(getMotorL(), -1000, 1000);
 162:./Src/main.c  ****       if (speedL != lastSpeedL || speedR != lastSpeedR) {
 163:./Src/main.c  ****         MotorL_pwm(speedL);
 164:./Src/main.c  ****         MotorR_pwm(speedR);
 165:./Src/main.c  ****         lastSpeedL = speedL;
 166:./Src/main.c  ****         lastSpeedR = speedR;
 167:./Src/main.c  ****       }
 168:./Src/main.c  **** 
 169:./Src/main.c  ****       char str[100];
 170:./Src/main.c  ****       memset(&str[0], 0, sizeof(str));
 171:./Src/main.c  ****       snprintf(str, 100, "%i;%i\n\r", speedL, speedR);
 172:./Src/main.c  ****       Console_Log(str);
 173:./Src/main.c  ****     }
 174:./Src/main.c  **** 
 175:./Src/main.c  **** 
 176:./Src/main.c  **** 
 177:./Src/main.c  ****     Battery_TASK();
 178:./Src/main.c  ****     //Current_Motor_TASK();
 179:./Src/main.c  ****     //sWiiNunchuck_TASK();
 180:./Src/main.c  ****     //applcation_TASK();
 181:./Src/main.c  ****     //Telemetry_TASK();
 182:./Src/main.c  **** 
 183:./Src/main.c  ****     //Batteria Scarica?
 184:./Src/main.c  ****     if(GET_BatteryAverage() < 31.0 || ABS(getMotorCurrentR() * 0.02) > 20.0 || ABS(getMotorCurrentL
 185:./Src/main.c  ****       MotorL_pwm(0);
 186:./Src/main.c  ****       MotorR_pwm(0);
 187:./Src/main.c  ****       Buzzer_OneLongBeep();
 188:./Src/main.c  ****       HAL_Delay(350);
 189:./Src/main.c  ****       Power_Set(0);
 190:./Src/main.c  ****     }
 191:./Src/main.c  ****     //In Carica?
 192:./Src/main.c  ****     /*if(IS_Charge()==0){
 193:./Src/main.c  ****       WAIT_CHARGE_FINISH();
 194:./Src/main.c  ****     }*/
 195:./Src/main.c  **** 
 196:./Src/main.c  ****     HAL_IWDG_Refresh(&hiwdg);   //819mS
 197:./Src/main.c  **** 
 198:./Src/main.c  ****     counterTempTT = HAL_GetTick() - counterTemp;
 199:./Src/main.c  ****   }
 200:./Src/main.c  **** }
 201:./Src/main.c  **** 
 202:./Src/main.c  **** /** System Clock Configuration
 203:./Src/main.c  **** */
 204:./Src/main.c  **** void SystemClock_Config(void)
ARM GAS  /tmp/ccsUg8Js.s 			page 5


 205:./Src/main.c  **** {
 206:./Src/main.c  **** 
 207:./Src/main.c  ****   RCC_OscInitTypeDef RCC_OscInitStruct;
 208:./Src/main.c  ****   RCC_ClkInitTypeDef RCC_ClkInitStruct;
 209:./Src/main.c  ****   RCC_PeriphCLKInitTypeDef PeriphClkInit;
 210:./Src/main.c  **** 
 211:./Src/main.c  ****     /**Initializes the CPU, AHB and APB busses clocks
 212:./Src/main.c  ****     */
 213:./Src/main.c  ****   RCC_OscInitStruct.OscillatorType = RCC_OSCILLATORTYPE_HSI;
 214:./Src/main.c  ****   RCC_OscInitStruct.HSIState = RCC_HSI_ON;
 215:./Src/main.c  ****   RCC_OscInitStruct.HSICalibrationValue = 16;
 216:./Src/main.c  ****   RCC_OscInitStruct.PLL.PLLState = RCC_PLL_ON;
 217:./Src/main.c  ****   RCC_OscInitStruct.PLL.PLLSource = RCC_PLLSOURCE_HSI_DIV2;
 218:./Src/main.c  ****   RCC_OscInitStruct.PLL.PLLMUL = RCC_PLL_MUL16;
 219:./Src/main.c  ****   if (HAL_RCC_OscConfig(&RCC_OscInitStruct) != HAL_OK)
 220:./Src/main.c  ****   {
 221:./Src/main.c  ****     Error_Handler();
 222:./Src/main.c  ****   }
 223:./Src/main.c  **** 
 224:./Src/main.c  ****     /**Initializes the CPU, AHB and APB busses clocks
 225:./Src/main.c  ****     */
 226:./Src/main.c  ****   RCC_ClkInitStruct.ClockType = RCC_CLOCKTYPE_HCLK|RCC_CLOCKTYPE_SYSCLK
 227:./Src/main.c  ****                               |RCC_CLOCKTYPE_PCLK1|RCC_CLOCKTYPE_PCLK2;
 228:./Src/main.c  ****   RCC_ClkInitStruct.SYSCLKSource = RCC_SYSCLKSOURCE_PLLCLK;
 229:./Src/main.c  ****   RCC_ClkInitStruct.AHBCLKDivider = RCC_SYSCLK_DIV1;
 230:./Src/main.c  ****   RCC_ClkInitStruct.APB1CLKDivider = RCC_HCLK_DIV2;
 231:./Src/main.c  ****   RCC_ClkInitStruct.APB2CLKDivider = RCC_HCLK_DIV1;
 232:./Src/main.c  **** 
 233:./Src/main.c  ****   if (HAL_RCC_ClockConfig(&RCC_ClkInitStruct, FLASH_LATENCY_2) != HAL_OK)
 234:./Src/main.c  ****   {
 235:./Src/main.c  ****     Error_Handler();
 236:./Src/main.c  ****   }
 237:./Src/main.c  **** 
 238:./Src/main.c  ****   PeriphClkInit.PeriphClockSelection = RCC_PERIPHCLK_ADC;
 239:./Src/main.c  ****   PeriphClkInit.AdcClockSelection = RCC_ADCPCLK2_DIV8;
 240:./Src/main.c  ****   if (HAL_RCCEx_PeriphCLKConfig(&PeriphClkInit) != HAL_OK)
 241:./Src/main.c  ****   {
 242:./Src/main.c  ****     Error_Handler();
 243:./Src/main.c  ****   }
 244:./Src/main.c  **** 
 245:./Src/main.c  ****     /**Configure the Systick interrupt time
 246:./Src/main.c  ****     */
 247:./Src/main.c  ****   HAL_SYSTICK_Config(HAL_RCC_GetHCLKFreq()/1000);
 248:./Src/main.c  **** 
 249:./Src/main.c  ****     /**Configure the Systick
 250:./Src/main.c  ****     */
 251:./Src/main.c  ****   HAL_SYSTICK_CLKSourceConfig(SYSTICK_CLKSOURCE_HCLK);
 252:./Src/main.c  **** 
 253:./Src/main.c  ****   /* SysTick_IRQn interrupt configuration */
 254:./Src/main.c  ****   HAL_NVIC_SetPriority(SysTick_IRQn, 0, 0);
 255:./Src/main.c  **** }
 256:./Src/main.c  **** 
 257:./Src/main.c  **** /* IWDG init function */
 258:./Src/main.c  **** static void MX_IWDG_Init(void)
 259:./Src/main.c  **** {
 260:./Src/main.c  ****   __HAL_RCC_WWDG_CLK_ENABLE();
 261:./Src/main.c  ****   hiwdg.Instance = IWDG;
ARM GAS  /tmp/ccsUg8Js.s 			page 6


 262:./Src/main.c  ****   hiwdg.Init.Prescaler = IWDG_PRESCALER_8;
 263:./Src/main.c  ****   hiwdg.Init.Reload = 4095;
 264:./Src/main.c  ****   if (HAL_IWDG_Init(&hiwdg) != HAL_OK)
 265:./Src/main.c  ****   {
 266:./Src/main.c  ****     Error_Handler();
 267:./Src/main.c  ****   }
 268:./Src/main.c  ****   HAL_IWDG_Start(&hiwdg);
 269:./Src/main.c  **** }
 270:./Src/main.c  **** 
 271:./Src/main.c  **** 
 272:./Src/main.c  **** void HAL_ADC_ConvCpltCallback(ADC_HandleTypeDef* hadc){
  26              		.loc 1 272 0
  27              		.cfi_startproc
  28              		@ args = 0, pretend = 0, frame = 0
  29              		@ frame_needed = 0, uses_anonymous_args = 0
  30              	.LVL0:
  31 0000 10B5     		push	{r4, lr}
  32              	.LCFI0:
  33              		.cfi_def_cfa_offset 8
  34              		.cfi_offset 4, -8
  35              		.cfi_offset 14, -4
  36 0002 0446     		mov	r4, r0
 273:./Src/main.c  ****   if(hadc->Instance == ADC1){
  37              		.loc 1 273 0
  38 0004 0268     		ldr	r2, [r0]
  39 0006 074B     		ldr	r3, .L7
  40 0008 9A42     		cmp	r2, r3
  41 000a 04D0     		beq	.L5
  42              	.LVL1:
  43              	.L2:
 274:./Src/main.c  ****     ADC_R_callback();
 275:./Src/main.c  ****   }
 276:./Src/main.c  ****   if(hadc->Instance == ADC3){
  44              		.loc 1 276 0
  45 000c 2268     		ldr	r2, [r4]
  46 000e 064B     		ldr	r3, .L7+4
  47 0010 9A42     		cmp	r2, r3
  48 0012 03D0     		beq	.L6
  49              	.L1:
 277:./Src/main.c  ****     ADC_L_callback();
 278:./Src/main.c  ****   }
 279:./Src/main.c  **** }
  50              		.loc 1 279 0
  51 0014 10BD     		pop	{r4, pc}
  52              	.LVL2:
  53              	.L5:
 274:./Src/main.c  ****     ADC_R_callback();
  54              		.loc 1 274 0
  55 0016 FFF7FEFF 		bl	ADC_R_callback
  56              	.LVL3:
  57 001a F7E7     		b	.L2
  58              	.L6:
 277:./Src/main.c  ****     ADC_L_callback();
  59              		.loc 1 277 0
  60 001c FFF7FEFF 		bl	ADC_L_callback
  61              	.LVL4:
  62              		.loc 1 279 0
ARM GAS  /tmp/ccsUg8Js.s 			page 7


  63 0020 F8E7     		b	.L1
  64              	.L8:
  65 0022 00BF     		.align	2
  66              	.L7:
  67 0024 00240140 		.word	1073816576
  68 0028 003C0140 		.word	1073822720
  69              		.cfi_endproc
  70              	.LFE69:
  72              		.section	.text.Error_Handler,"ax",%progbits
  73              		.align	1
  74              		.global	Error_Handler
  75              		.syntax unified
  76              		.thumb
  77              		.thumb_func
  78              		.fpu softvfp
  80              	Error_Handler:
  81              	.LFB70:
 280:./Src/main.c  **** 
 281:./Src/main.c  **** 
 282:./Src/main.c  **** /**
 283:./Src/main.c  ****   * @brief  This function is executed in case of error occurrence.
 284:./Src/main.c  ****   * @param  None
 285:./Src/main.c  ****   * @retval None
 286:./Src/main.c  ****   */
 287:./Src/main.c  **** void Error_Handler(void)
 288:./Src/main.c  **** {
  82              		.loc 1 288 0
  83              		.cfi_startproc
  84              		@ Volatile: function does not return.
  85              		@ args = 0, pretend = 0, frame = 0
  86              		@ frame_needed = 0, uses_anonymous_args = 0
  87 0000 08B5     		push	{r3, lr}
  88              	.LCFI1:
  89              		.cfi_def_cfa_offset 8
  90              		.cfi_offset 3, -8
  91              		.cfi_offset 14, -4
 289:./Src/main.c  ****   /* USER CODE BEGIN Error_Handler */
 290:./Src/main.c  ****   /* User can add his own implementation to report the HAL error return state */
 291:./Src/main.c  ****   MotorR_stop();
  92              		.loc 1 291 0
  93 0002 FFF7FEFF 		bl	MotorR_stop
  94              	.LVL5:
 292:./Src/main.c  ****   MotorL_stop();
  95              		.loc 1 292 0
  96 0006 FFF7FEFF 		bl	MotorL_stop
  97              	.LVL6:
  98              	.L10:
  99 000a FEE7     		b	.L10
 100              		.cfi_endproc
 101              	.LFE70:
 103              		.section	.text.MX_IWDG_Init,"ax",%progbits
 104              		.align	1
 105              		.syntax unified
 106              		.thumb
 107              		.thumb_func
 108              		.fpu softvfp
 110              	MX_IWDG_Init:
ARM GAS  /tmp/ccsUg8Js.s 			page 8


 111              	.LFB68:
 259:./Src/main.c  ****   __HAL_RCC_WWDG_CLK_ENABLE();
 112              		.loc 1 259 0
 113              		.cfi_startproc
 114              		@ args = 0, pretend = 0, frame = 8
 115              		@ frame_needed = 0, uses_anonymous_args = 0
 116 0000 00B5     		push	{lr}
 117              	.LCFI2:
 118              		.cfi_def_cfa_offset 4
 119              		.cfi_offset 14, -4
 120 0002 83B0     		sub	sp, sp, #12
 121              	.LCFI3:
 122              		.cfi_def_cfa_offset 16
 123              	.LBB2:
 260:./Src/main.c  ****   hiwdg.Instance = IWDG;
 124              		.loc 1 260 0
 125 0004 0E4B     		ldr	r3, .L16
 126 0006 DA69     		ldr	r2, [r3, #28]
 127 0008 42F40062 		orr	r2, r2, #2048
 128 000c DA61     		str	r2, [r3, #28]
 129 000e DB69     		ldr	r3, [r3, #28]
 130 0010 03F40063 		and	r3, r3, #2048
 131 0014 0193     		str	r3, [sp, #4]
 132 0016 019B     		ldr	r3, [sp, #4]
 133              	.LBE2:
 261:./Src/main.c  ****   hiwdg.Init.Prescaler = IWDG_PRESCALER_8;
 134              		.loc 1 261 0
 135 0018 0A48     		ldr	r0, .L16+4
 136 001a 0B4B     		ldr	r3, .L16+8
 137 001c 0360     		str	r3, [r0]
 262:./Src/main.c  ****   hiwdg.Init.Reload = 4095;
 138              		.loc 1 262 0
 139 001e 0123     		movs	r3, #1
 140 0020 4360     		str	r3, [r0, #4]
 263:./Src/main.c  ****   if (HAL_IWDG_Init(&hiwdg) != HAL_OK)
 141              		.loc 1 263 0
 142 0022 40F6FF73 		movw	r3, #4095
 143 0026 8360     		str	r3, [r0, #8]
 264:./Src/main.c  ****   {
 144              		.loc 1 264 0
 145 0028 FFF7FEFF 		bl	HAL_IWDG_Init
 146              	.LVL7:
 147 002c 28B9     		cbnz	r0, .L15
 268:./Src/main.c  **** }
 148              		.loc 1 268 0
 149 002e 0548     		ldr	r0, .L16+4
 150 0030 FFF7FEFF 		bl	HAL_IWDG_Start
 151              	.LVL8:
 269:./Src/main.c  **** 
 152              		.loc 1 269 0
 153 0034 03B0     		add	sp, sp, #12
 154              	.LCFI4:
 155              		.cfi_remember_state
 156              		.cfi_def_cfa_offset 4
 157              		@ sp needed
 158 0036 5DF804FB 		ldr	pc, [sp], #4
 159              	.L15:
ARM GAS  /tmp/ccsUg8Js.s 			page 9


 160              	.LCFI5:
 161              		.cfi_restore_state
 266:./Src/main.c  ****   }
 162              		.loc 1 266 0
 163 003a FFF7FEFF 		bl	Error_Handler
 164              	.LVL9:
 165              	.L17:
 166 003e 00BF     		.align	2
 167              	.L16:
 168 0040 00100240 		.word	1073876992
 169 0044 00000000 		.word	hiwdg
 170 0048 00300040 		.word	1073754112
 171              		.cfi_endproc
 172              	.LFE68:
 174              		.section	.text.SystemClock_Config,"ax",%progbits
 175              		.align	1
 176              		.global	SystemClock_Config
 177              		.syntax unified
 178              		.thumb
 179              		.thumb_func
 180              		.fpu softvfp
 182              	SystemClock_Config:
 183              	.LFB67:
 205:./Src/main.c  **** 
 184              		.loc 1 205 0
 185              		.cfi_startproc
 186              		@ args = 0, pretend = 0, frame = 88
 187              		@ frame_needed = 0, uses_anonymous_args = 0
 188 0000 00B5     		push	{lr}
 189              	.LCFI6:
 190              		.cfi_def_cfa_offset 4
 191              		.cfi_offset 14, -4
 192 0002 97B0     		sub	sp, sp, #92
 193              	.LCFI7:
 194              		.cfi_def_cfa_offset 96
 213:./Src/main.c  ****   RCC_OscInitStruct.HSIState = RCC_HSI_ON;
 195              		.loc 1 213 0
 196 0004 0223     		movs	r3, #2
 197 0006 0C93     		str	r3, [sp, #48]
 214:./Src/main.c  ****   RCC_OscInitStruct.HSICalibrationValue = 16;
 198              		.loc 1 214 0
 199 0008 0122     		movs	r2, #1
 200 000a 1092     		str	r2, [sp, #64]
 215:./Src/main.c  ****   RCC_OscInitStruct.PLL.PLLState = RCC_PLL_ON;
 201              		.loc 1 215 0
 202 000c 1022     		movs	r2, #16
 203 000e 1192     		str	r2, [sp, #68]
 216:./Src/main.c  ****   RCC_OscInitStruct.PLL.PLLSource = RCC_PLLSOURCE_HSI_DIV2;
 204              		.loc 1 216 0
 205 0010 1393     		str	r3, [sp, #76]
 217:./Src/main.c  ****   RCC_OscInitStruct.PLL.PLLMUL = RCC_PLL_MUL16;
 206              		.loc 1 217 0
 207 0012 0023     		movs	r3, #0
 208 0014 1493     		str	r3, [sp, #80]
 218:./Src/main.c  ****   if (HAL_RCC_OscConfig(&RCC_OscInitStruct) != HAL_OK)
 209              		.loc 1 218 0
 210 0016 4FF46013 		mov	r3, #3670016
ARM GAS  /tmp/ccsUg8Js.s 			page 10


 211 001a 1593     		str	r3, [sp, #84]
 219:./Src/main.c  ****   {
 212              		.loc 1 219 0
 213 001c 0CA8     		add	r0, sp, #48
 214 001e FFF7FEFF 		bl	HAL_RCC_OscConfig
 215              	.LVL10:
 216 0022 50BB     		cbnz	r0, .L23
 226:./Src/main.c  ****                               |RCC_CLOCKTYPE_PCLK1|RCC_CLOCKTYPE_PCLK2;
 217              		.loc 1 226 0
 218 0024 0F23     		movs	r3, #15
 219 0026 0793     		str	r3, [sp, #28]
 228:./Src/main.c  ****   RCC_ClkInitStruct.AHBCLKDivider = RCC_SYSCLK_DIV1;
 220              		.loc 1 228 0
 221 0028 0221     		movs	r1, #2
 222 002a 0891     		str	r1, [sp, #32]
 229:./Src/main.c  ****   RCC_ClkInitStruct.APB1CLKDivider = RCC_HCLK_DIV2;
 223              		.loc 1 229 0
 224 002c 0023     		movs	r3, #0
 225 002e 0993     		str	r3, [sp, #36]
 230:./Src/main.c  ****   RCC_ClkInitStruct.APB2CLKDivider = RCC_HCLK_DIV1;
 226              		.loc 1 230 0
 227 0030 4FF48062 		mov	r2, #1024
 228 0034 0A92     		str	r2, [sp, #40]
 231:./Src/main.c  **** 
 229              		.loc 1 231 0
 230 0036 0B93     		str	r3, [sp, #44]
 233:./Src/main.c  ****   {
 231              		.loc 1 233 0
 232 0038 07A8     		add	r0, sp, #28
 233 003a FFF7FEFF 		bl	HAL_RCC_ClockConfig
 234              	.LVL11:
 235 003e F0B9     		cbnz	r0, .L24
 238:./Src/main.c  ****   PeriphClkInit.AdcClockSelection = RCC_ADCPCLK2_DIV8;
 236              		.loc 1 238 0
 237 0040 0223     		movs	r3, #2
 238 0042 0193     		str	r3, [sp, #4]
 239:./Src/main.c  ****   if (HAL_RCCEx_PeriphCLKConfig(&PeriphClkInit) != HAL_OK)
 239              		.loc 1 239 0
 240 0044 4FF44043 		mov	r3, #49152
 241 0048 0393     		str	r3, [sp, #12]
 240:./Src/main.c  ****   {
 242              		.loc 1 240 0
 243 004a 01A8     		add	r0, sp, #4
 244 004c FFF7FEFF 		bl	HAL_RCCEx_PeriphCLKConfig
 245              	.LVL12:
 246 0050 B8B9     		cbnz	r0, .L25
 247:./Src/main.c  **** 
 247              		.loc 1 247 0
 248 0052 FFF7FEFF 		bl	HAL_RCC_GetHCLKFreq
 249              	.LVL13:
 250 0056 0C4B     		ldr	r3, .L26
 251 0058 A3FB0030 		umull	r3, r0, r3, r0
 252 005c 8009     		lsrs	r0, r0, #6
 253 005e FFF7FEFF 		bl	HAL_SYSTICK_Config
 254              	.LVL14:
 251:./Src/main.c  **** 
 255              		.loc 1 251 0
ARM GAS  /tmp/ccsUg8Js.s 			page 11


 256 0062 0420     		movs	r0, #4
 257 0064 FFF7FEFF 		bl	HAL_SYSTICK_CLKSourceConfig
 258              	.LVL15:
 254:./Src/main.c  **** }
 259              		.loc 1 254 0
 260 0068 0022     		movs	r2, #0
 261 006a 1146     		mov	r1, r2
 262 006c 4FF0FF30 		mov	r0, #-1
 263 0070 FFF7FEFF 		bl	HAL_NVIC_SetPriority
 264              	.LVL16:
 255:./Src/main.c  **** 
 265              		.loc 1 255 0
 266 0074 17B0     		add	sp, sp, #92
 267              	.LCFI8:
 268              		.cfi_remember_state
 269              		.cfi_def_cfa_offset 4
 270              		@ sp needed
 271 0076 5DF804FB 		ldr	pc, [sp], #4
 272              	.L23:
 273              	.LCFI9:
 274              		.cfi_restore_state
 221:./Src/main.c  ****   }
 275              		.loc 1 221 0
 276 007a FFF7FEFF 		bl	Error_Handler
 277              	.LVL17:
 278              	.L24:
 235:./Src/main.c  ****   }
 279              		.loc 1 235 0
 280 007e FFF7FEFF 		bl	Error_Handler
 281              	.LVL18:
 282              	.L25:
 242:./Src/main.c  ****   }
 283              		.loc 1 242 0
 284 0082 FFF7FEFF 		bl	Error_Handler
 285              	.LVL19:
 286              	.L27:
 287 0086 00BF     		.align	2
 288              	.L26:
 289 0088 D34D6210 		.word	274877907
 290              		.cfi_endproc
 291              	.LFE67:
 293              		.global	__aeabi_fcmplt
 294              		.global	__aeabi_i2d
 295              		.global	__aeabi_dmul
 296              		.global	__aeabi_dcmplt
 297              		.global	__aeabi_dcmpgt
 298              		.section	.text.main,"ax",%progbits
 299              		.align	1
 300              		.global	main
 301              		.syntax unified
 302              		.thumb
 303              		.thumb_func
 304              		.fpu softvfp
 306              	main:
 307              	.LFB66:
 100:./Src/main.c  ****   /* Reset of all peripherals, Initializes the Flash interface and the Systick. */
 308              		.loc 1 100 0
ARM GAS  /tmp/ccsUg8Js.s 			page 12


 309              		.cfi_startproc
 310              		@ args = 0, pretend = 0, frame = 104
 311              		@ frame_needed = 0, uses_anonymous_args = 0
 312 0000 2DE9F043 		push	{r4, r5, r6, r7, r8, r9, lr}
 313              	.LCFI10:
 314              		.cfi_def_cfa_offset 28
 315              		.cfi_offset 4, -28
 316              		.cfi_offset 5, -24
 317              		.cfi_offset 6, -20
 318              		.cfi_offset 7, -16
 319              		.cfi_offset 8, -12
 320              		.cfi_offset 9, -8
 321              		.cfi_offset 14, -4
 322 0004 9DB0     		sub	sp, sp, #116
 323              	.LCFI11:
 324              		.cfi_def_cfa_offset 144
 102:./Src/main.c  **** 
 325              		.loc 1 102 0
 326 0006 FFF7FEFF 		bl	HAL_Init
 327              	.LVL20:
 105:./Src/main.c  **** 
 328              		.loc 1 105 0
 329 000a FFF7FEFF 		bl	SystemClock_Config
 330              	.LVL21:
 107:./Src/main.c  **** 
 331              		.loc 1 107 0
 332 000e FFF7FEFF 		bl	Button_init
 333              	.LVL22:
 109:./Src/main.c  **** 
 334              		.loc 1 109 0
 335 0012 0120     		movs	r0, #1
 336 0014 FFF7FEFF 		bl	Power_Set
 337              	.LVL23:
 112:./Src/main.c  **** 
 338              		.loc 1 112 0
 339 0018 FFF7FEFF 		bl	Telemetry_init
 340              	.LVL24:
 114:./Src/main.c  ****   Led_init();
 341              		.loc 1 114 0
 342 001c FFF7FEFF 		bl	Buzzer_init
 343              	.LVL25:
 115:./Src/main.c  ****   IS_Charge_init();
 344              		.loc 1 115 0
 345 0020 FFF7FEFF 		bl	Led_init
 346              	.LVL26:
 116:./Src/main.c  **** 
 347              		.loc 1 116 0
 348 0024 FFF7FEFF 		bl	IS_Charge_init
 349              	.LVL27:
 118:./Src/main.c  ****   ADC_R_init();
 350              		.loc 1 118 0
 351 0028 FFF7FEFF 		bl	ADC_L_init
 352              	.LVL28:
 119:./Src/main.c  ****   MotorL_init();
 353              		.loc 1 119 0
 354 002c FFF7FEFF 		bl	ADC_R_init
 355              	.LVL29:
ARM GAS  /tmp/ccsUg8Js.s 			page 13


 120:./Src/main.c  ****   MotorR_init();
 356              		.loc 1 120 0
 357 0030 FFF7FEFF 		bl	MotorL_init
 358              	.LVL30:
 121:./Src/main.c  **** 
 359              		.loc 1 121 0
 360 0034 FFF7FEFF 		bl	MotorR_init
 361              	.LVL31:
 129:./Src/main.c  ****   while(IS_Button()) {
 362              		.loc 1 129 0
 363 0038 4FF4AF70 		mov	r0, #350
 364 003c FFF7FEFF 		bl	HAL_Delay
 365              	.LVL32:
 366              	.L29:
 367              	.LBB3:
 130:./Src/main.c  ****     Led_Set(0);
 368              		.loc 1 130 0
 369 0040 FFF7FEFF 		bl	IS_Button
 370              	.LVL33:
 371 0044 0546     		mov	r5, r0
 372 0046 18B1     		cbz	r0, .L57
 131:./Src/main.c  ****   }
 373              		.loc 1 131 0
 374 0048 0020     		movs	r0, #0
 375 004a FFF7FEFF 		bl	Led_Set
 376              	.LVL34:
 377 004e F7E7     		b	.L29
 378              	.L57:
 379              	.LBE3:
 134:./Src/main.c  ****   Battery_TASK();
 380              		.loc 1 134 0
 381 0050 FFF7FEFF 		bl	applcation_init
 382              	.LVL35:
 135:./Src/main.c  **** 
 383              		.loc 1 135 0
 384 0054 FFF7FEFF 		bl	Battery_TASK
 385              	.LVL36:
 137:./Src/main.c  **** 
 386              		.loc 1 137 0
 387 0058 FFF7FEFF 		bl	MX_IWDG_Init
 388              	.LVL37:
 139:./Src/main.c  ****   Buzzer_TwoBeep();
 389              		.loc 1 139 0
 390 005c 0120     		movs	r0, #1
 391 005e FFF7FEFF 		bl	Led_Set
 392              	.LVL38:
 140:./Src/main.c  ****   HAL_Delay(350);
 393              		.loc 1 140 0
 394 0062 FFF7FEFF 		bl	Buzzer_TwoBeep
 395              	.LVL39:
 141:./Src/main.c  **** 
 396              		.loc 1 141 0
 397 0066 4FF4AF70 		mov	r0, #350
 398 006a FFF7FEFF 		bl	HAL_Delay
 399              	.LVL40:
 143:./Src/main.c  ****   MotorL_start();
 400              		.loc 1 143 0
ARM GAS  /tmp/ccsUg8Js.s 			page 14


 401 006e FFF7FEFF 		bl	MotorR_start
 402              	.LVL41:
 144:./Src/main.c  **** 
 403              		.loc 1 144 0
 404 0072 FFF7FEFF 		bl	MotorL_start
 405              	.LVL42:
 147:./Src/main.c  ****   while(1){
 406              		.loc 1 147 0
 407 0076 2E46     		mov	r6, r5
 146:./Src/main.c  ****   int lastSpeedL = 0, lastSpeedR = 0;
 408              		.loc 1 146 0
 409 0078 0024     		movs	r4, #0
 410 007a 7EE0     		b	.L47
 411              	.LVL43:
 412              	.L33:
 413              	.LBB4:
 152:./Src/main.c  ****       }
 414              		.loc 1 152 0
 415 007c 7448     		ldr	r0, .L65+8
 416 007e FFF7FEFF 		bl	HAL_IWDG_Refresh
 417              	.LVL44:
 418              	.L31:
 151:./Src/main.c  ****         HAL_IWDG_Refresh(&hiwdg);
 419              		.loc 1 151 0
 420 0082 FFF7FEFF 		bl	IS_Button
 421              	.LVL45:
 422 0086 0028     		cmp	r0, #0
 423 0088 F8D1     		bne	.L33
 154:./Src/main.c  ****       HAL_Delay(350);
 424              		.loc 1 154 0
 425 008a FFF7FEFF 		bl	Buzzer_OneLongBeep
 426              	.LVL46:
 155:./Src/main.c  ****       Power_Set(0);
 427              		.loc 1 155 0
 428 008e 4FF4AF70 		mov	r0, #350
 429 0092 FFF7FEFF 		bl	HAL_Delay
 430              	.LVL47:
 156:./Src/main.c  ****     }
 431              		.loc 1 156 0
 432 0096 0020     		movs	r0, #0
 433 0098 FFF7FEFF 		bl	Power_Set
 434              	.LVL48:
 435 009c 73E0     		b	.L32
 436              	.L62:
 437              	.LBE4:
 438              	.LBB5:
 160:./Src/main.c  ****       int speedR = -CLAMP(getMotorL(), -1000, 1000);
 439              		.loc 1 160 0
 440 009e FFF7FEFF 		bl	getMotorR
 441              	.LVL49:
 442 00a2 B0F57A7F 		cmp	r0, #1000
 443 00a6 27DD     		ble	.L58
 444 00a8 6A4F     		ldr	r7, .L65+12
 445              	.L35:
 446              	.LVL50:
 161:./Src/main.c  ****       if (speedL != lastSpeedL || speedR != lastSpeedR) {
 447              		.loc 1 161 0 discriminator 8
ARM GAS  /tmp/ccsUg8Js.s 			page 15


 448 00aa FFF7FEFF 		bl	getMotorL
 449              	.LVL51:
 450 00ae B0F57A7F 		cmp	r0, #1000
 451 00b2 2DDD     		ble	.L59
 161:./Src/main.c  ****       if (speedL != lastSpeedL || speedR != lastSpeedR) {
 452              		.loc 1 161 0 is_stmt 0
 453 00b4 DFF89C81 		ldr	r8, .L65+12
 454              	.L36:
 455              	.LVL52:
 162:./Src/main.c  ****         MotorL_pwm(speedL);
 456              		.loc 1 162 0 is_stmt 1 discriminator 8
 457 00b8 BD42     		cmp	r5, r7
 458 00ba 01D1     		bne	.L37
 162:./Src/main.c  ****         MotorL_pwm(speedL);
 459              		.loc 1 162 0 is_stmt 0 discriminator 1
 460 00bc 4645     		cmp	r6, r8
 461 00be 08D0     		beq	.L38
 462              	.L37:
 163:./Src/main.c  ****         MotorR_pwm(speedR);
 463              		.loc 1 163 0 is_stmt 1
 464 00c0 38B2     		sxth	r0, r7
 465 00c2 FFF7FEFF 		bl	MotorL_pwm
 466              	.LVL53:
 164:./Src/main.c  ****         lastSpeedL = speedL;
 467              		.loc 1 164 0
 468 00c6 0FFA88F0 		sxth	r0, r8
 469 00ca FFF7FEFF 		bl	MotorR_pwm
 470              	.LVL54:
 166:./Src/main.c  ****       }
 471              		.loc 1 166 0
 472 00ce 4646     		mov	r6, r8
 165:./Src/main.c  ****         lastSpeedR = speedR;
 473              		.loc 1 165 0
 474 00d0 3D46     		mov	r5, r7
 475              	.LVL55:
 476              	.L38:
 170:./Src/main.c  ****       snprintf(str, 100, "%i;%i\n\r", speedL, speedR);
 477              		.loc 1 170 0
 478 00d2 4FF06409 		mov	r9, #100
 479 00d6 4A46     		mov	r2, r9
 480 00d8 0021     		movs	r1, #0
 481 00da 03A8     		add	r0, sp, #12
 482 00dc FFF7FEFF 		bl	memset
 483              	.LVL56:
 171:./Src/main.c  ****       Console_Log(str);
 484              		.loc 1 171 0
 485 00e0 CDF80080 		str	r8, [sp]
 486 00e4 3B46     		mov	r3, r7
 487 00e6 5C4A     		ldr	r2, .L65+16
 488 00e8 4946     		mov	r1, r9
 489 00ea 03A8     		add	r0, sp, #12
 490 00ec FFF7FEFF 		bl	snprintf
 491              	.LVL57:
 172:./Src/main.c  ****     }
 492              		.loc 1 172 0
 493 00f0 03A8     		add	r0, sp, #12
 494 00f2 FFF7FEFF 		bl	Console_Log
ARM GAS  /tmp/ccsUg8Js.s 			page 16


 495              	.LVL58:
 496 00f6 4FE0     		b	.L34
 497              	.LVL59:
 498              	.L58:
 160:./Src/main.c  ****       int speedR = -CLAMP(getMotorL(), -1000, 1000);
 499              		.loc 1 160 0 discriminator 1
 500 00f8 FFF7FEFF 		bl	getMotorR
 501              	.LVL60:
 502 00fc 10F57A7F 		cmn	r0, #1000
 503 0100 02DA     		bge	.L60
 160:./Src/main.c  ****       int speedR = -CLAMP(getMotorL(), -1000, 1000);
 504              		.loc 1 160 0 is_stmt 0
 505 0102 4FF47A77 		mov	r7, #1000
 506 0106 D0E7     		b	.L35
 507              	.L60:
 160:./Src/main.c  ****       int speedR = -CLAMP(getMotorL(), -1000, 1000);
 508              		.loc 1 160 0 discriminator 3
 509 0108 FFF7FEFF 		bl	getMotorR
 510              	.LVL61:
 511 010c 4742     		negs	r7, r0
 512 010e CCE7     		b	.L35
 513              	.LVL62:
 514              	.L59:
 161:./Src/main.c  ****       if (speedL != lastSpeedL || speedR != lastSpeedR) {
 515              		.loc 1 161 0 is_stmt 1 discriminator 1
 516 0110 FFF7FEFF 		bl	getMotorL
 517              	.LVL63:
 518 0114 10F57A7F 		cmn	r0, #1000
 519 0118 02DA     		bge	.L61
 161:./Src/main.c  ****       if (speedL != lastSpeedL || speedR != lastSpeedR) {
 520              		.loc 1 161 0 is_stmt 0
 521 011a 4FF47A78 		mov	r8, #1000
 522 011e CBE7     		b	.L36
 523              	.L61:
 161:./Src/main.c  ****       if (speedL != lastSpeedL || speedR != lastSpeedR) {
 524              		.loc 1 161 0 discriminator 3
 525 0120 FFF7FEFF 		bl	getMotorL
 526              	.LVL64:
 527 0124 C0F10008 		rsb	r8, r0, #0
 528 0128 C6E7     		b	.L36
 529              	.LVL65:
 530              	.L63:
 531              	.LBE5:
 532              	.LBB6:
 184:./Src/main.c  ****       MotorL_pwm(0);
 533              		.loc 1 184 0 is_stmt 1 discriminator 2
 534 012a FFF7FEFF 		bl	getMotorCurrentR
 535              	.LVL66:
 536 012e FFF7FEFF 		bl	__aeabi_i2d
 537              	.LVL67:
 538 0132 45A3     		adr	r3, .L65
 539 0134 D3E90023 		ldrd	r2, [r3]
 540 0138 FFF7FEFF 		bl	__aeabi_dmul
 541              	.LVL68:
 542 013c 0022     		movs	r2, #0
 543 013e 474B     		ldr	r3, .L65+20
 544 0140 FFF7FEFF 		bl	__aeabi_dcmplt
ARM GAS  /tmp/ccsUg8Js.s 			page 17


 545              	.LVL69:
 546 0144 0028     		cmp	r0, #0
 547 0146 4ED0     		beq	.L42
 548              	.L39:
 185:./Src/main.c  ****       MotorR_pwm(0);
 549              		.loc 1 185 0
 550 0148 0020     		movs	r0, #0
 551 014a FFF7FEFF 		bl	MotorL_pwm
 552              	.LVL70:
 186:./Src/main.c  ****       Buzzer_OneLongBeep();
 553              		.loc 1 186 0
 554 014e 0020     		movs	r0, #0
 555 0150 FFF7FEFF 		bl	MotorR_pwm
 556              	.LVL71:
 187:./Src/main.c  ****       HAL_Delay(350);
 557              		.loc 1 187 0
 558 0154 FFF7FEFF 		bl	Buzzer_OneLongBeep
 559              	.LVL72:
 188:./Src/main.c  ****       Power_Set(0);
 560              		.loc 1 188 0
 561 0158 4FF4AF70 		mov	r0, #350
 562 015c FFF7FEFF 		bl	HAL_Delay
 563              	.LVL73:
 189:./Src/main.c  ****     }
 564              		.loc 1 189 0
 565 0160 0020     		movs	r0, #0
 566 0162 FFF7FEFF 		bl	Power_Set
 567              	.LVL74:
 568              	.L45:
 569              	.LBE6:
 196:./Src/main.c  **** 
 570              		.loc 1 196 0
 571 0166 3A48     		ldr	r0, .L65+8
 572 0168 FFF7FEFF 		bl	HAL_IWDG_Refresh
 573              	.LVL75:
 198:./Src/main.c  ****   }
 574              		.loc 1 198 0
 575 016c FFF7FEFF 		bl	HAL_GetTick
 576              	.LVL76:
 577 0170 3B4B     		ldr	r3, .L65+24
 578 0172 1B68     		ldr	r3, [r3]
 579 0174 C01A     		subs	r0, r0, r3
 580 0176 3B4B     		ldr	r3, .L65+28
 581 0178 1860     		str	r0, [r3]
 582              	.LVL77:
 583              	.L47:
 149:./Src/main.c  ****     if(IS_Button()) {
 584              		.loc 1 149 0
 585 017a 0134     		adds	r4, r4, #1
 586              	.LVL78:
 587              	.LBB7:
 150:./Src/main.c  ****       while(IS_Button()) {
 588              		.loc 1 150 0
 589 017c FFF7FEFF 		bl	IS_Button
 590              	.LVL79:
 591 0180 0028     		cmp	r0, #0
 592 0182 7FF47EAF 		bne	.L31
ARM GAS  /tmp/ccsUg8Js.s 			page 18


 593              	.L32:
 594              	.LBE7:
 159:./Src/main.c  ****       int speedL = -CLAMP(getMotorR(), -1000, 1000);
 595              		.loc 1 159 0
 596 0186 384B     		ldr	r3, .L65+32
 597 0188 A3FB0423 		umull	r2, r3, r3, r4
 598 018c 9B09     		lsrs	r3, r3, #6
 599 018e C822     		movs	r2, #200
 600 0190 02FB1343 		mls	r3, r2, r3, r4
 601 0194 002B     		cmp	r3, #0
 602 0196 82D0     		beq	.L62
 603              	.L34:
 177:./Src/main.c  ****     //Current_Motor_TASK();
 604              		.loc 1 177 0
 605 0198 FFF7FEFF 		bl	Battery_TASK
 606              	.LVL80:
 607              	.LBB8:
 184:./Src/main.c  ****       MotorL_pwm(0);
 608              		.loc 1 184 0
 609 019c FFF7FEFF 		bl	GET_BatteryAverage
 610              	.LVL81:
 611 01a0 3249     		ldr	r1, .L65+36
 612 01a2 FFF7FEFF 		bl	__aeabi_fcmplt
 613              	.LVL82:
 614 01a6 0028     		cmp	r0, #0
 615 01a8 CED1     		bne	.L39
 184:./Src/main.c  ****       MotorL_pwm(0);
 616              		.loc 1 184 0 is_stmt 0 discriminator 1
 617 01aa FFF7FEFF 		bl	getMotorCurrentR
 618              	.LVL83:
 619 01ae FFF7FEFF 		bl	__aeabi_i2d
 620              	.LVL84:
 621 01b2 25A3     		adr	r3, .L65
 622 01b4 D3E90023 		ldrd	r2, [r3]
 623 01b8 FFF7FEFF 		bl	__aeabi_dmul
 624              	.LVL85:
 625 01bc 0022     		movs	r2, #0
 626 01be 0023     		movs	r3, #0
 627 01c0 FFF7FEFF 		bl	__aeabi_dcmplt
 628              	.LVL86:
 629 01c4 0028     		cmp	r0, #0
 630 01c6 B0D1     		bne	.L63
 184:./Src/main.c  ****       MotorL_pwm(0);
 631              		.loc 1 184 0 discriminator 3
 632 01c8 FFF7FEFF 		bl	getMotorCurrentR
 633              	.LVL87:
 634 01cc FFF7FEFF 		bl	__aeabi_i2d
 635              	.LVL88:
 636 01d0 1DA3     		adr	r3, .L65
 637 01d2 D3E90023 		ldrd	r2, [r3]
 638 01d6 FFF7FEFF 		bl	__aeabi_dmul
 639              	.LVL89:
 640 01da 0022     		movs	r2, #0
 641 01dc 244B     		ldr	r3, .L65+40
 642 01de FFF7FEFF 		bl	__aeabi_dcmpgt
 643              	.LVL90:
 644 01e2 0028     		cmp	r0, #0
ARM GAS  /tmp/ccsUg8Js.s 			page 19


 645 01e4 B0D1     		bne	.L39
 646              	.L42:
 184:./Src/main.c  ****       MotorL_pwm(0);
 647              		.loc 1 184 0 discriminator 4
 648 01e6 FFF7FEFF 		bl	getMotorCurrentL
 649              	.LVL91:
 650 01ea FFF7FEFF 		bl	__aeabi_i2d
 651              	.LVL92:
 652 01ee 16A3     		adr	r3, .L65
 653 01f0 D3E90023 		ldrd	r2, [r3]
 654 01f4 FFF7FEFF 		bl	__aeabi_dmul
 655              	.LVL93:
 656 01f8 0022     		movs	r2, #0
 657 01fa 0023     		movs	r3, #0
 658 01fc FFF7FEFF 		bl	__aeabi_dcmplt
 659              	.LVL94:
 660 0200 78B9     		cbnz	r0, .L64
 184:./Src/main.c  ****       MotorL_pwm(0);
 661              		.loc 1 184 0 discriminator 6
 662 0202 FFF7FEFF 		bl	getMotorCurrentL
 663              	.LVL95:
 664 0206 FFF7FEFF 		bl	__aeabi_i2d
 665              	.LVL96:
 666 020a 0FA3     		adr	r3, .L65
 667 020c D3E90023 		ldrd	r2, [r3]
 668 0210 FFF7FEFF 		bl	__aeabi_dmul
 669              	.LVL97:
 670 0214 0022     		movs	r2, #0
 671 0216 164B     		ldr	r3, .L65+40
 672 0218 FFF7FEFF 		bl	__aeabi_dcmpgt
 673              	.LVL98:
 674 021c 0028     		cmp	r0, #0
 675 021e A2D0     		beq	.L45
 676 0220 92E7     		b	.L39
 677              	.L64:
 184:./Src/main.c  ****       MotorL_pwm(0);
 678              		.loc 1 184 0 discriminator 5
 679 0222 FFF7FEFF 		bl	getMotorCurrentL
 680              	.LVL99:
 681 0226 FFF7FEFF 		bl	__aeabi_i2d
 682              	.LVL100:
 683 022a 07A3     		adr	r3, .L65
 684 022c D3E90023 		ldrd	r2, [r3]
 685 0230 FFF7FEFF 		bl	__aeabi_dmul
 686              	.LVL101:
 687 0234 0022     		movs	r2, #0
 688 0236 094B     		ldr	r3, .L65+20
 689 0238 FFF7FEFF 		bl	__aeabi_dcmplt
 690              	.LVL102:
 691 023c 0028     		cmp	r0, #0
 692 023e 83D1     		bne	.L39
 693 0240 91E7     		b	.L45
 694              	.L66:
 695 0242 00BFAFF3 		.align	3
 695      0080
 696              	.L65:
 697 0248 7B14AE47 		.word	1202590843
ARM GAS  /tmp/ccsUg8Js.s 			page 20


 698 024c E17A943F 		.word	1066695393
 699 0250 00000000 		.word	hiwdg
 700 0254 18FCFFFF 		.word	-1000
 701 0258 00000000 		.word	.LC0
 702 025c 000034C0 		.word	-1070333952
 703 0260 00000000 		.word	counterTemp
 704 0264 00000000 		.word	counterTempTT
 705 0268 1F85EB51 		.word	1374389535
 706 026c 0000F841 		.word	1106771968
 707 0270 00003440 		.word	1077149696
 708              	.LBE8:
 709              		.cfi_endproc
 710              	.LFE66:
 712              		.comm	counterTempTT,4,4
 713              		.comm	counterTemp,4,4
 714              		.global	speed
 715              		.comm	hiwdg,16,4
 716              		.section	.bss.speed,"aw",%nobits
 717              		.align	1
 720              	speed:
 721 0000 0000     		.space	2
 722              		.section	.rodata.main.str1.4,"aMS",%progbits,1
 723              		.align	2
 724              	.LC0:
 725 0000 25693B25 		.ascii	"%i;%i\012\015\000"
 725      690A0D00 
 726              		.text
 727              	.Letext0:
 728              		.file 2 "/usr/arm-none-eabi/include/machine/_default_types.h"
 729              		.file 3 "/usr/arm-none-eabi/include/sys/_stdint.h"
 730              		.file 4 "./Drivers/CMSIS/Include/core_cm3.h"
 731              		.file 5 "./Drivers/CMSIS/Device/ST/STM32F1xx/Include/system_stm32f1xx.h"
 732              		.file 6 "./Drivers/CMSIS/Device/ST/STM32F1xx/Include/stm32f103xe.h"
 733              		.file 7 "/usr/arm-none-eabi/include/sys/lock.h"
 734              		.file 8 "/usr/arm-none-eabi/include/sys/_types.h"
 735              		.file 9 "/usr/lib/gcc/arm-none-eabi/7.2.0/include/stddef.h"
 736              		.file 10 "/usr/arm-none-eabi/include/sys/reent.h"
 737              		.file 11 "./Drivers/STM32F1xx_HAL_Driver/Inc/stm32f1xx_hal_def.h"
 738              		.file 12 "./Drivers/STM32F1xx_HAL_Driver/Inc/stm32f1xx_hal_rcc.h"
 739              		.file 13 "./Drivers/STM32F1xx_HAL_Driver/Inc/stm32f1xx_hal_rcc_ex.h"
 740              		.file 14 "./Drivers/STM32F1xx_HAL_Driver/Inc/stm32f1xx_hal_dma.h"
 741              		.file 15 "./Drivers/STM32F1xx_HAL_Driver/Inc/stm32f1xx_hal_adc.h"
 742              		.file 16 "./Drivers/STM32F1xx_HAL_Driver/Inc/stm32f1xx_hal_iwdg.h"
 743              		.file 17 "./Inc/telemetry.h"
 744              		.file 18 "/usr/arm-none-eabi/include/math.h"
 745              		.file 19 "./Inc/motor_R.h"
 746              		.file 20 "./Inc/motor_L.h"
 747              		.file 21 "./Inc/ADC_R.h"
 748              		.file 22 "./Inc/ADC_L.h"
 749              		.file 23 "./Drivers/STM32F1xx_HAL_Driver/Inc/stm32f1xx_hal_cortex.h"
 750              		.file 24 "./Inc/varie.h"
 751              		.file 25 "./Drivers/STM32F1xx_HAL_Driver/Inc/stm32f1xx_hal.h"
 752              		.file 26 "/usr/arm-none-eabi/include/stdio.h"
 753              		.file 27 "./Inc/application.h"
 754              		.file 28 "<built-in>"
ARM GAS  /tmp/ccsUg8Js.s 			page 21

