ARM GAS  /tmp/cch09A2Q.s 			page 1


   1              		.cpu cortex-m3
   2              		.eabi_attribute 20, 1
   3              		.eabi_attribute 21, 1
   4              		.eabi_attribute 23, 3
   5              		.eabi_attribute 24, 1
   6              		.eabi_attribute 25, 1
   7              		.eabi_attribute 26, 1
   8              		.eabi_attribute 30, 1
   9              		.eabi_attribute 34, 1
  10              		.eabi_attribute 18, 4
  11              		.file	"stm32f1xx_hal_msp.c"
  12              		.text
  13              	.Ltext0:
  14              		.cfi_sections	.debug_frame
  15              		.section	.text.HAL_MspInit,"ax",%progbits
  16              		.align	1
  17              		.global	HAL_MspInit
  18              		.syntax unified
  19              		.thumb
  20              		.thumb_func
  21              		.fpu softvfp
  23              	HAL_MspInit:
  24              	.LFB66:
  25              		.file 1 "./Src/stm32f1xx_hal_msp.c"
   1:./Src/stm32f1xx_hal_msp.c **** /**
   2:./Src/stm32f1xx_hal_msp.c ****   ******************************************************************************
   3:./Src/stm32f1xx_hal_msp.c ****   * File Name          : stm32f1xx_hal_msp.c
   4:./Src/stm32f1xx_hal_msp.c ****   * Description        : This file provides code for the MSP Initialization 
   5:./Src/stm32f1xx_hal_msp.c ****   *                      and de-Initialization codes.
   6:./Src/stm32f1xx_hal_msp.c ****   ******************************************************************************
   7:./Src/stm32f1xx_hal_msp.c ****   *
   8:./Src/stm32f1xx_hal_msp.c ****   * COPYRIGHT(c) 2017 STMicroelectronics
   9:./Src/stm32f1xx_hal_msp.c ****   *
  10:./Src/stm32f1xx_hal_msp.c ****   * Redistribution and use in source and binary forms, with or without modification,
  11:./Src/stm32f1xx_hal_msp.c ****   * are permitted provided that the following conditions are met:
  12:./Src/stm32f1xx_hal_msp.c ****   *   1. Redistributions of source code must retain the above copyright notice,
  13:./Src/stm32f1xx_hal_msp.c ****   *      this list of conditions and the following disclaimer.
  14:./Src/stm32f1xx_hal_msp.c ****   *   2. Redistributions in binary form must reproduce the above copyright notice,
  15:./Src/stm32f1xx_hal_msp.c ****   *      this list of conditions and the following disclaimer in the documentation
  16:./Src/stm32f1xx_hal_msp.c ****   *      and/or other materials provided with the distribution.
  17:./Src/stm32f1xx_hal_msp.c ****   *   3. Neither the name of STMicroelectronics nor the names of its contributors
  18:./Src/stm32f1xx_hal_msp.c ****   *      may be used to endorse or promote products derived from this software
  19:./Src/stm32f1xx_hal_msp.c ****   *      without specific prior written permission.
  20:./Src/stm32f1xx_hal_msp.c ****   *
  21:./Src/stm32f1xx_hal_msp.c ****   * THIS SOFTWARE IS PROVIDED BY THE COPYRIGHT HOLDERS AND CONTRIBUTORS "AS IS"
  22:./Src/stm32f1xx_hal_msp.c ****   * AND ANY EXPRESS OR IMPLIED WARRANTIES, INCLUDING, BUT NOT LIMITED TO, THE
  23:./Src/stm32f1xx_hal_msp.c ****   * IMPLIED WARRANTIES OF MERCHANTABILITY AND FITNESS FOR A PARTICULAR PURPOSE ARE
  24:./Src/stm32f1xx_hal_msp.c ****   * DISCLAIMED. IN NO EVENT SHALL THE COPYRIGHT HOLDER OR CONTRIBUTORS BE LIABLE
  25:./Src/stm32f1xx_hal_msp.c ****   * FOR ANY DIRECT, INDIRECT, INCIDENTAL, SPECIAL, EXEMPLARY, OR CONSEQUENTIAL
  26:./Src/stm32f1xx_hal_msp.c ****   * DAMAGES (INCLUDING, BUT NOT LIMITED TO, PROCUREMENT OF SUBSTITUTE GOODS OR
  27:./Src/stm32f1xx_hal_msp.c ****   * SERVICES; LOSS OF USE, DATA, OR PROFITS; OR BUSINESS INTERRUPTION) HOWEVER
  28:./Src/stm32f1xx_hal_msp.c ****   * CAUSED AND ON ANY THEORY OF LIABILITY, WHETHER IN CONTRACT, STRICT LIABILITY,
  29:./Src/stm32f1xx_hal_msp.c ****   * OR TORT (INCLUDING NEGLIGENCE OR OTHERWISE) ARISING IN ANY WAY OUT OF THE USE
  30:./Src/stm32f1xx_hal_msp.c ****   * OF THIS SOFTWARE, EVEN IF ADVISED OF THE POSSIBILITY OF SUCH DAMAGE.
  31:./Src/stm32f1xx_hal_msp.c ****   *
  32:./Src/stm32f1xx_hal_msp.c ****   ******************************************************************************
  33:./Src/stm32f1xx_hal_msp.c ****   */
ARM GAS  /tmp/cch09A2Q.s 			page 2


  34:./Src/stm32f1xx_hal_msp.c **** /* Includes ------------------------------------------------------------------*/
  35:./Src/stm32f1xx_hal_msp.c **** #include "stm32f1xx_hal.h"
  36:./Src/stm32f1xx_hal_msp.c **** 
  37:./Src/stm32f1xx_hal_msp.c **** extern DMA_HandleTypeDef hdma_adc1;
  38:./Src/stm32f1xx_hal_msp.c **** extern DMA_HandleTypeDef hdma_adc3;
  39:./Src/stm32f1xx_hal_msp.c **** extern DMA_HandleTypeDef hdma_i2c2_rx;
  40:./Src/stm32f1xx_hal_msp.c **** 
  41:./Src/stm32f1xx_hal_msp.c **** extern DMA_HandleTypeDef hdma_i2c2_tx;
  42:./Src/stm32f1xx_hal_msp.c **** 
  43:./Src/stm32f1xx_hal_msp.c **** extern DMA_HandleTypeDef hdma_usart2_rx;
  44:./Src/stm32f1xx_hal_msp.c **** 
  45:./Src/stm32f1xx_hal_msp.c **** extern DMA_HandleTypeDef hdma_usart2_tx;
  46:./Src/stm32f1xx_hal_msp.c **** 
  47:./Src/stm32f1xx_hal_msp.c **** extern void Error_Handler(void);
  48:./Src/stm32f1xx_hal_msp.c **** /* USER CODE BEGIN 0 */
  49:./Src/stm32f1xx_hal_msp.c **** 
  50:./Src/stm32f1xx_hal_msp.c **** /* USER CODE END 0 */
  51:./Src/stm32f1xx_hal_msp.c **** /**
  52:./Src/stm32f1xx_hal_msp.c ****   * Initializes the Global MSP.
  53:./Src/stm32f1xx_hal_msp.c ****   */
  54:./Src/stm32f1xx_hal_msp.c **** void HAL_MspInit(void)
  55:./Src/stm32f1xx_hal_msp.c **** {
  26              		.loc 1 55 0
  27              		.cfi_startproc
  28              		@ args = 0, pretend = 0, frame = 8
  29              		@ frame_needed = 0, uses_anonymous_args = 0
  30 0000 00B5     		push	{lr}
  31              	.LCFI0:
  32              		.cfi_def_cfa_offset 4
  33              		.cfi_offset 14, -4
  34 0002 83B0     		sub	sp, sp, #12
  35              	.LCFI1:
  36              		.cfi_def_cfa_offset 16
  37              	.LBB2:
  56:./Src/stm32f1xx_hal_msp.c ****   /* USER CODE BEGIN MspInit 0 */
  57:./Src/stm32f1xx_hal_msp.c **** 
  58:./Src/stm32f1xx_hal_msp.c ****   /* USER CODE END MspInit 0 */
  59:./Src/stm32f1xx_hal_msp.c **** 
  60:./Src/stm32f1xx_hal_msp.c ****   __HAL_RCC_AFIO_CLK_ENABLE();
  38              		.loc 1 60 0
  39 0004 1C4B     		ldr	r3, .L3
  40 0006 9A69     		ldr	r2, [r3, #24]
  41 0008 42F00102 		orr	r2, r2, #1
  42 000c 9A61     		str	r2, [r3, #24]
  43 000e 9B69     		ldr	r3, [r3, #24]
  44 0010 03F00103 		and	r3, r3, #1
  45 0014 0193     		str	r3, [sp, #4]
  46 0016 019B     		ldr	r3, [sp, #4]
  47              	.LBE2:
  61:./Src/stm32f1xx_hal_msp.c **** 
  62:./Src/stm32f1xx_hal_msp.c ****   HAL_NVIC_SetPriorityGrouping(NVIC_PRIORITYGROUP_4);
  48              		.loc 1 62 0
  49 0018 0320     		movs	r0, #3
  50 001a FFF7FEFF 		bl	HAL_NVIC_SetPriorityGrouping
  51              	.LVL0:
  63:./Src/stm32f1xx_hal_msp.c **** 
  64:./Src/stm32f1xx_hal_msp.c ****   /* System interrupt init*/
ARM GAS  /tmp/cch09A2Q.s 			page 3


  65:./Src/stm32f1xx_hal_msp.c ****   /* MemoryManagement_IRQn interrupt configuration */
  66:./Src/stm32f1xx_hal_msp.c ****   HAL_NVIC_SetPriority(MemoryManagement_IRQn, 0, 0);
  52              		.loc 1 66 0
  53 001e 0022     		movs	r2, #0
  54 0020 1146     		mov	r1, r2
  55 0022 6FF00B00 		mvn	r0, #11
  56 0026 FFF7FEFF 		bl	HAL_NVIC_SetPriority
  57              	.LVL1:
  67:./Src/stm32f1xx_hal_msp.c ****   /* BusFault_IRQn interrupt configuration */
  68:./Src/stm32f1xx_hal_msp.c ****   HAL_NVIC_SetPriority(BusFault_IRQn, 0, 0);
  58              		.loc 1 68 0
  59 002a 0022     		movs	r2, #0
  60 002c 1146     		mov	r1, r2
  61 002e 6FF00A00 		mvn	r0, #10
  62 0032 FFF7FEFF 		bl	HAL_NVIC_SetPriority
  63              	.LVL2:
  69:./Src/stm32f1xx_hal_msp.c ****   /* UsageFault_IRQn interrupt configuration */
  70:./Src/stm32f1xx_hal_msp.c ****   HAL_NVIC_SetPriority(UsageFault_IRQn, 0, 0);
  64              		.loc 1 70 0
  65 0036 0022     		movs	r2, #0
  66 0038 1146     		mov	r1, r2
  67 003a 6FF00900 		mvn	r0, #9
  68 003e FFF7FEFF 		bl	HAL_NVIC_SetPriority
  69              	.LVL3:
  71:./Src/stm32f1xx_hal_msp.c ****   /* SVCall_IRQn interrupt configuration */
  72:./Src/stm32f1xx_hal_msp.c ****   HAL_NVIC_SetPriority(SVCall_IRQn, 0, 0);
  70              		.loc 1 72 0
  71 0042 0022     		movs	r2, #0
  72 0044 1146     		mov	r1, r2
  73 0046 6FF00400 		mvn	r0, #4
  74 004a FFF7FEFF 		bl	HAL_NVIC_SetPriority
  75              	.LVL4:
  73:./Src/stm32f1xx_hal_msp.c ****   /* DebugMonitor_IRQn interrupt configuration */
  74:./Src/stm32f1xx_hal_msp.c ****   HAL_NVIC_SetPriority(DebugMonitor_IRQn, 0, 0);
  76              		.loc 1 74 0
  77 004e 0022     		movs	r2, #0
  78 0050 1146     		mov	r1, r2
  79 0052 6FF00300 		mvn	r0, #3
  80 0056 FFF7FEFF 		bl	HAL_NVIC_SetPriority
  81              	.LVL5:
  75:./Src/stm32f1xx_hal_msp.c ****   /* PendSV_IRQn interrupt configuration */
  76:./Src/stm32f1xx_hal_msp.c ****   HAL_NVIC_SetPriority(PendSV_IRQn, 0, 0);
  82              		.loc 1 76 0
  83 005a 0022     		movs	r2, #0
  84 005c 1146     		mov	r1, r2
  85 005e 6FF00100 		mvn	r0, #1
  86 0062 FFF7FEFF 		bl	HAL_NVIC_SetPriority
  87              	.LVL6:
  77:./Src/stm32f1xx_hal_msp.c ****   /* SysTick_IRQn interrupt configuration */
  78:./Src/stm32f1xx_hal_msp.c ****   HAL_NVIC_SetPriority(SysTick_IRQn, 0, 0);
  88              		.loc 1 78 0
  89 0066 0022     		movs	r2, #0
  90 0068 1146     		mov	r1, r2
  91 006a 4FF0FF30 		mov	r0, #-1
  92 006e FFF7FEFF 		bl	HAL_NVIC_SetPriority
  93              	.LVL7:
  79:./Src/stm32f1xx_hal_msp.c **** 
ARM GAS  /tmp/cch09A2Q.s 			page 4


  80:./Src/stm32f1xx_hal_msp.c ****     /**DISABLE: JTAG-DP Disabled and SW-DP Disabled 
  81:./Src/stm32f1xx_hal_msp.c ****     */
  82:./Src/stm32f1xx_hal_msp.c ****  // __HAL_AFIO_REMAP_SWJ_DISABLE();
  83:./Src/stm32f1xx_hal_msp.c **** 
  84:./Src/stm32f1xx_hal_msp.c ****   /* USER CODE BEGIN MspInit 1 */
  85:./Src/stm32f1xx_hal_msp.c **** 
  86:./Src/stm32f1xx_hal_msp.c ****   /* USER CODE END MspInit 1 */
  87:./Src/stm32f1xx_hal_msp.c **** }
  94              		.loc 1 87 0
  95 0072 03B0     		add	sp, sp, #12
  96              	.LCFI2:
  97              		.cfi_def_cfa_offset 4
  98              		@ sp needed
  99 0074 5DF804FB 		ldr	pc, [sp], #4
 100              	.L4:
 101              		.align	2
 102              	.L3:
 103 0078 00100240 		.word	1073876992
 104              		.cfi_endproc
 105              	.LFE66:
 107              		.section	.text.HAL_ADC_MspInit,"ax",%progbits
 108              		.align	1
 109              		.global	HAL_ADC_MspInit
 110              		.syntax unified
 111              		.thumb
 112              		.thumb_func
 113              		.fpu softvfp
 115              	HAL_ADC_MspInit:
 116              	.LFB67:
  88:./Src/stm32f1xx_hal_msp.c **** 
  89:./Src/stm32f1xx_hal_msp.c **** void HAL_ADC_MspInit(ADC_HandleTypeDef* hadc)
  90:./Src/stm32f1xx_hal_msp.c **** {
 117              		.loc 1 90 0
 118              		.cfi_startproc
 119              		@ args = 0, pretend = 0, frame = 24
 120              		@ frame_needed = 0, uses_anonymous_args = 0
 121              	.LVL8:
 122 0000 10B5     		push	{r4, lr}
 123              	.LCFI3:
 124              		.cfi_def_cfa_offset 8
 125              		.cfi_offset 4, -8
 126              		.cfi_offset 14, -4
 127 0002 86B0     		sub	sp, sp, #24
 128              	.LCFI4:
 129              		.cfi_def_cfa_offset 32
 130 0004 0446     		mov	r4, r0
  91:./Src/stm32f1xx_hal_msp.c **** 
  92:./Src/stm32f1xx_hal_msp.c ****   GPIO_InitTypeDef GPIO_InitStruct;
  93:./Src/stm32f1xx_hal_msp.c ****   if(hadc->Instance==ADC1)
 131              		.loc 1 93 0
 132 0006 0368     		ldr	r3, [r0]
 133 0008 304A     		ldr	r2, .L15
 134 000a 9342     		cmp	r3, r2
 135 000c 04D0     		beq	.L11
  94:./Src/stm32f1xx_hal_msp.c ****   {
  95:./Src/stm32f1xx_hal_msp.c ****   /* USER CODE BEGIN ADC1_MspInit 0 */
  96:./Src/stm32f1xx_hal_msp.c **** 
ARM GAS  /tmp/cch09A2Q.s 			page 5


  97:./Src/stm32f1xx_hal_msp.c ****   /* USER CODE END ADC1_MspInit 0 */
  98:./Src/stm32f1xx_hal_msp.c ****     /* Peripheral clock enable */
  99:./Src/stm32f1xx_hal_msp.c ****     __HAL_RCC_ADC1_CLK_ENABLE();
 100:./Src/stm32f1xx_hal_msp.c ****   
 101:./Src/stm32f1xx_hal_msp.c ****     /**ADC1 GPIO Configuration    
 102:./Src/stm32f1xx_hal_msp.c ****     PC0     ------> ADC1_IN10
 103:./Src/stm32f1xx_hal_msp.c ****     PC1     ------> ADC1_IN11
 104:./Src/stm32f1xx_hal_msp.c ****     PC2     ------> ADC1_IN12 
 105:./Src/stm32f1xx_hal_msp.c ****     */
 106:./Src/stm32f1xx_hal_msp.c ****     GPIO_InitStruct.Pin = GPIO_PIN_1|GPIO_PIN_2;  //GPIO_PIN_0
 107:./Src/stm32f1xx_hal_msp.c ****     GPIO_InitStruct.Mode = GPIO_MODE_ANALOG;
 108:./Src/stm32f1xx_hal_msp.c ****     HAL_GPIO_Init(GPIOC, &GPIO_InitStruct);
 109:./Src/stm32f1xx_hal_msp.c **** 
 110:./Src/stm32f1xx_hal_msp.c ****     /* Peripheral DMA init*/
 111:./Src/stm32f1xx_hal_msp.c ****   
 112:./Src/stm32f1xx_hal_msp.c ****     hdma_adc1.Instance = DMA1_Channel1;
 113:./Src/stm32f1xx_hal_msp.c ****     hdma_adc1.Init.Direction = DMA_PERIPH_TO_MEMORY;
 114:./Src/stm32f1xx_hal_msp.c ****     hdma_adc1.Init.PeriphInc = DMA_PINC_DISABLE;
 115:./Src/stm32f1xx_hal_msp.c ****     hdma_adc1.Init.MemInc = DMA_MINC_ENABLE;
 116:./Src/stm32f1xx_hal_msp.c ****     hdma_adc1.Init.PeriphDataAlignment = DMA_PDATAALIGN_HALFWORD;
 117:./Src/stm32f1xx_hal_msp.c ****     hdma_adc1.Init.MemDataAlignment = DMA_MDATAALIGN_HALFWORD;
 118:./Src/stm32f1xx_hal_msp.c ****     hdma_adc1.Init.Mode = DMA_CIRCULAR;//DMA_NORMAL;
 119:./Src/stm32f1xx_hal_msp.c ****     hdma_adc1.Init.Priority = DMA_PRIORITY_LOW;
 120:./Src/stm32f1xx_hal_msp.c ****     if (HAL_DMA_Init(&hdma_adc1) != HAL_OK)
 121:./Src/stm32f1xx_hal_msp.c ****     {
 122:./Src/stm32f1xx_hal_msp.c ****       Error_Handler();
 123:./Src/stm32f1xx_hal_msp.c ****     }
 124:./Src/stm32f1xx_hal_msp.c **** 
 125:./Src/stm32f1xx_hal_msp.c ****     __HAL_LINKDMA(hadc,DMA_Handle,hdma_adc1);
 126:./Src/stm32f1xx_hal_msp.c **** 
 127:./Src/stm32f1xx_hal_msp.c ****   /* USER CODE BEGIN ADC1_MspInit 1 */
 128:./Src/stm32f1xx_hal_msp.c **** 
 129:./Src/stm32f1xx_hal_msp.c ****   /* USER CODE END ADC1_MspInit 1 */
 130:./Src/stm32f1xx_hal_msp.c ****   }
 131:./Src/stm32f1xx_hal_msp.c ****   else if(hadc->Instance==ADC3)
 136              		.loc 1 131 0
 137 000e 304A     		ldr	r2, .L15+4
 138 0010 9342     		cmp	r3, r2
 139 0012 2ED0     		beq	.L12
 140              	.LVL9:
 141              	.L5:
 132:./Src/stm32f1xx_hal_msp.c ****   {
 133:./Src/stm32f1xx_hal_msp.c ****   /* USER CODE BEGIN ADC3_MspInit 0 */
 134:./Src/stm32f1xx_hal_msp.c **** 
 135:./Src/stm32f1xx_hal_msp.c ****   /* USER CODE END ADC3_MspInit 0 */
 136:./Src/stm32f1xx_hal_msp.c ****     /* Peripheral clock enable */
 137:./Src/stm32f1xx_hal_msp.c ****     __HAL_RCC_ADC3_CLK_ENABLE();
 138:./Src/stm32f1xx_hal_msp.c ****   
 139:./Src/stm32f1xx_hal_msp.c ****     /**ADC3 GPIO Configuration    
 140:./Src/stm32f1xx_hal_msp.c ****     PC0     ------> ADC3_IN10 
 141:./Src/stm32f1xx_hal_msp.c ****     */
 142:./Src/stm32f1xx_hal_msp.c ****     GPIO_InitStruct.Pin = GPIO_PIN_0;
 143:./Src/stm32f1xx_hal_msp.c ****     GPIO_InitStruct.Mode = GPIO_MODE_ANALOG;
 144:./Src/stm32f1xx_hal_msp.c ****     HAL_GPIO_Init(GPIOC, &GPIO_InitStruct);
 145:./Src/stm32f1xx_hal_msp.c **** 
 146:./Src/stm32f1xx_hal_msp.c ****     /* Peripheral DMA init*/
 147:./Src/stm32f1xx_hal_msp.c ****   
ARM GAS  /tmp/cch09A2Q.s 			page 6


 148:./Src/stm32f1xx_hal_msp.c ****     hdma_adc3.Instance = DMA2_Channel5;
 149:./Src/stm32f1xx_hal_msp.c ****     hdma_adc3.Init.Direction = DMA_PERIPH_TO_MEMORY;
 150:./Src/stm32f1xx_hal_msp.c ****     hdma_adc3.Init.PeriphInc = DMA_PINC_DISABLE;
 151:./Src/stm32f1xx_hal_msp.c ****     hdma_adc3.Init.MemInc = DMA_MINC_ENABLE;
 152:./Src/stm32f1xx_hal_msp.c ****     hdma_adc3.Init.PeriphDataAlignment = DMA_PDATAALIGN_HALFWORD;
 153:./Src/stm32f1xx_hal_msp.c ****     hdma_adc3.Init.MemDataAlignment = DMA_MDATAALIGN_HALFWORD;
 154:./Src/stm32f1xx_hal_msp.c ****     hdma_adc3.Init.Mode = DMA_CIRCULAR;
 155:./Src/stm32f1xx_hal_msp.c ****     hdma_adc3.Init.Priority = DMA_PRIORITY_LOW;
 156:./Src/stm32f1xx_hal_msp.c ****     if (HAL_DMA_Init(&hdma_adc3) != HAL_OK)
 157:./Src/stm32f1xx_hal_msp.c ****     {
 158:./Src/stm32f1xx_hal_msp.c ****       Error_Handler();
 159:./Src/stm32f1xx_hal_msp.c ****     }
 160:./Src/stm32f1xx_hal_msp.c **** 
 161:./Src/stm32f1xx_hal_msp.c ****     __HAL_LINKDMA(hadc,DMA_Handle,hdma_adc3);
 162:./Src/stm32f1xx_hal_msp.c **** 
 163:./Src/stm32f1xx_hal_msp.c ****   /* USER CODE BEGIN ADC3_MspInit 1 */
 164:./Src/stm32f1xx_hal_msp.c **** 
 165:./Src/stm32f1xx_hal_msp.c ****   /* USER CODE END ADC3_MspInit 1 */
 166:./Src/stm32f1xx_hal_msp.c ****   }
 167:./Src/stm32f1xx_hal_msp.c **** }
 142              		.loc 1 167 0
 143 0014 06B0     		add	sp, sp, #24
 144              	.LCFI5:
 145              		.cfi_remember_state
 146              		.cfi_def_cfa_offset 8
 147              		@ sp needed
 148 0016 10BD     		pop	{r4, pc}
 149              	.LVL10:
 150              	.L11:
 151              	.LCFI6:
 152              		.cfi_restore_state
 153              	.LBB3:
  99:./Src/stm32f1xx_hal_msp.c ****   
 154              		.loc 1 99 0
 155 0018 2E4B     		ldr	r3, .L15+8
 156 001a 9A69     		ldr	r2, [r3, #24]
 157 001c 42F40072 		orr	r2, r2, #512
 158 0020 9A61     		str	r2, [r3, #24]
 159 0022 9B69     		ldr	r3, [r3, #24]
 160 0024 03F40073 		and	r3, r3, #512
 161 0028 0093     		str	r3, [sp]
 162 002a 009B     		ldr	r3, [sp]
 163              	.LBE3:
 106:./Src/stm32f1xx_hal_msp.c ****     GPIO_InitStruct.Mode = GPIO_MODE_ANALOG;
 164              		.loc 1 106 0
 165 002c 0623     		movs	r3, #6
 166 002e 0293     		str	r3, [sp, #8]
 107:./Src/stm32f1xx_hal_msp.c ****     HAL_GPIO_Init(GPIOC, &GPIO_InitStruct);
 167              		.loc 1 107 0
 168 0030 0323     		movs	r3, #3
 169 0032 0393     		str	r3, [sp, #12]
 108:./Src/stm32f1xx_hal_msp.c **** 
 170              		.loc 1 108 0
 171 0034 02A9     		add	r1, sp, #8
 172 0036 2848     		ldr	r0, .L15+12
 173              	.LVL11:
 174 0038 FFF7FEFF 		bl	HAL_GPIO_Init
ARM GAS  /tmp/cch09A2Q.s 			page 7


 175              	.LVL12:
 112:./Src/stm32f1xx_hal_msp.c ****     hdma_adc1.Init.Direction = DMA_PERIPH_TO_MEMORY;
 176              		.loc 1 112 0
 177 003c 2748     		ldr	r0, .L15+16
 178 003e 284B     		ldr	r3, .L15+20
 179 0040 0360     		str	r3, [r0]
 113:./Src/stm32f1xx_hal_msp.c ****     hdma_adc1.Init.PeriphInc = DMA_PINC_DISABLE;
 180              		.loc 1 113 0
 181 0042 0023     		movs	r3, #0
 182 0044 4360     		str	r3, [r0, #4]
 114:./Src/stm32f1xx_hal_msp.c ****     hdma_adc1.Init.MemInc = DMA_MINC_ENABLE;
 183              		.loc 1 114 0
 184 0046 8360     		str	r3, [r0, #8]
 115:./Src/stm32f1xx_hal_msp.c ****     hdma_adc1.Init.PeriphDataAlignment = DMA_PDATAALIGN_HALFWORD;
 185              		.loc 1 115 0
 186 0048 8022     		movs	r2, #128
 187 004a C260     		str	r2, [r0, #12]
 116:./Src/stm32f1xx_hal_msp.c ****     hdma_adc1.Init.MemDataAlignment = DMA_MDATAALIGN_HALFWORD;
 188              		.loc 1 116 0
 189 004c 4FF48072 		mov	r2, #256
 190 0050 0261     		str	r2, [r0, #16]
 117:./Src/stm32f1xx_hal_msp.c ****     hdma_adc1.Init.Mode = DMA_CIRCULAR;//DMA_NORMAL;
 191              		.loc 1 117 0
 192 0052 4FF48062 		mov	r2, #1024
 193 0056 4261     		str	r2, [r0, #20]
 118:./Src/stm32f1xx_hal_msp.c ****     hdma_adc1.Init.Priority = DMA_PRIORITY_LOW;
 194              		.loc 1 118 0
 195 0058 2022     		movs	r2, #32
 196 005a 8261     		str	r2, [r0, #24]
 119:./Src/stm32f1xx_hal_msp.c ****     if (HAL_DMA_Init(&hdma_adc1) != HAL_OK)
 197              		.loc 1 119 0
 198 005c C361     		str	r3, [r0, #28]
 120:./Src/stm32f1xx_hal_msp.c ****     {
 199              		.loc 1 120 0
 200 005e FFF7FEFF 		bl	HAL_DMA_Init
 201              	.LVL13:
 202 0062 18B9     		cbnz	r0, .L13
 203              	.L7:
 125:./Src/stm32f1xx_hal_msp.c **** 
 204              		.loc 1 125 0
 205 0064 1D4B     		ldr	r3, .L15+16
 206 0066 2362     		str	r3, [r4, #32]
 207 0068 5C62     		str	r4, [r3, #36]
 208 006a D3E7     		b	.L5
 209              	.L13:
 122:./Src/stm32f1xx_hal_msp.c ****     }
 210              		.loc 1 122 0
 211 006c FFF7FEFF 		bl	Error_Handler
 212              	.LVL14:
 213 0070 F8E7     		b	.L7
 214              	.LVL15:
 215              	.L12:
 216              	.LBB4:
 137:./Src/stm32f1xx_hal_msp.c ****   
 217              		.loc 1 137 0
 218 0072 184B     		ldr	r3, .L15+8
 219 0074 9A69     		ldr	r2, [r3, #24]
ARM GAS  /tmp/cch09A2Q.s 			page 8


 220 0076 42F40042 		orr	r2, r2, #32768
 221 007a 9A61     		str	r2, [r3, #24]
 222 007c 9B69     		ldr	r3, [r3, #24]
 223 007e 03F40043 		and	r3, r3, #32768
 224 0082 0193     		str	r3, [sp, #4]
 225 0084 019B     		ldr	r3, [sp, #4]
 226              	.LBE4:
 142:./Src/stm32f1xx_hal_msp.c ****     GPIO_InitStruct.Mode = GPIO_MODE_ANALOG;
 227              		.loc 1 142 0
 228 0086 0123     		movs	r3, #1
 229 0088 0293     		str	r3, [sp, #8]
 143:./Src/stm32f1xx_hal_msp.c ****     HAL_GPIO_Init(GPIOC, &GPIO_InitStruct);
 230              		.loc 1 143 0
 231 008a 0323     		movs	r3, #3
 232 008c 0393     		str	r3, [sp, #12]
 144:./Src/stm32f1xx_hal_msp.c **** 
 233              		.loc 1 144 0
 234 008e 02A9     		add	r1, sp, #8
 235 0090 1148     		ldr	r0, .L15+12
 236              	.LVL16:
 237 0092 FFF7FEFF 		bl	HAL_GPIO_Init
 238              	.LVL17:
 148:./Src/stm32f1xx_hal_msp.c ****     hdma_adc3.Init.Direction = DMA_PERIPH_TO_MEMORY;
 239              		.loc 1 148 0
 240 0096 1348     		ldr	r0, .L15+24
 241 0098 134B     		ldr	r3, .L15+28
 242 009a 0360     		str	r3, [r0]
 149:./Src/stm32f1xx_hal_msp.c ****     hdma_adc3.Init.PeriphInc = DMA_PINC_DISABLE;
 243              		.loc 1 149 0
 244 009c 0023     		movs	r3, #0
 245 009e 4360     		str	r3, [r0, #4]
 150:./Src/stm32f1xx_hal_msp.c ****     hdma_adc3.Init.MemInc = DMA_MINC_ENABLE;
 246              		.loc 1 150 0
 247 00a0 8360     		str	r3, [r0, #8]
 151:./Src/stm32f1xx_hal_msp.c ****     hdma_adc3.Init.PeriphDataAlignment = DMA_PDATAALIGN_HALFWORD;
 248              		.loc 1 151 0
 249 00a2 8022     		movs	r2, #128
 250 00a4 C260     		str	r2, [r0, #12]
 152:./Src/stm32f1xx_hal_msp.c ****     hdma_adc3.Init.MemDataAlignment = DMA_MDATAALIGN_HALFWORD;
 251              		.loc 1 152 0
 252 00a6 4FF48072 		mov	r2, #256
 253 00aa 0261     		str	r2, [r0, #16]
 153:./Src/stm32f1xx_hal_msp.c ****     hdma_adc3.Init.Mode = DMA_CIRCULAR;
 254              		.loc 1 153 0
 255 00ac 4FF48062 		mov	r2, #1024
 256 00b0 4261     		str	r2, [r0, #20]
 154:./Src/stm32f1xx_hal_msp.c ****     hdma_adc3.Init.Priority = DMA_PRIORITY_LOW;
 257              		.loc 1 154 0
 258 00b2 2022     		movs	r2, #32
 259 00b4 8261     		str	r2, [r0, #24]
 155:./Src/stm32f1xx_hal_msp.c ****     if (HAL_DMA_Init(&hdma_adc3) != HAL_OK)
 260              		.loc 1 155 0
 261 00b6 C361     		str	r3, [r0, #28]
 156:./Src/stm32f1xx_hal_msp.c ****     {
 262              		.loc 1 156 0
 263 00b8 FFF7FEFF 		bl	HAL_DMA_Init
 264              	.LVL18:
ARM GAS  /tmp/cch09A2Q.s 			page 9


 265 00bc 18B9     		cbnz	r0, .L14
 266              	.L9:
 161:./Src/stm32f1xx_hal_msp.c **** 
 267              		.loc 1 161 0
 268 00be 094B     		ldr	r3, .L15+24
 269 00c0 2362     		str	r3, [r4, #32]
 270 00c2 5C62     		str	r4, [r3, #36]
 271              		.loc 1 167 0
 272 00c4 A6E7     		b	.L5
 273              	.L14:
 158:./Src/stm32f1xx_hal_msp.c ****     }
 274              		.loc 1 158 0
 275 00c6 FFF7FEFF 		bl	Error_Handler
 276              	.LVL19:
 277 00ca F8E7     		b	.L9
 278              	.L16:
 279              		.align	2
 280              	.L15:
 281 00cc 00240140 		.word	1073816576
 282 00d0 003C0140 		.word	1073822720
 283 00d4 00100240 		.word	1073876992
 284 00d8 00100140 		.word	1073811456
 285 00dc 00000000 		.word	hdma_adc1
 286 00e0 08000240 		.word	1073872904
 287 00e4 00000000 		.word	hdma_adc3
 288 00e8 58040240 		.word	1073874008
 289              		.cfi_endproc
 290              	.LFE67:
 292              		.section	.text.HAL_ADC_MspDeInit,"ax",%progbits
 293              		.align	1
 294              		.global	HAL_ADC_MspDeInit
 295              		.syntax unified
 296              		.thumb
 297              		.thumb_func
 298              		.fpu softvfp
 300              	HAL_ADC_MspDeInit:
 301              	.LFB68:
 168:./Src/stm32f1xx_hal_msp.c **** 
 169:./Src/stm32f1xx_hal_msp.c **** void HAL_ADC_MspDeInit(ADC_HandleTypeDef* hadc)
 170:./Src/stm32f1xx_hal_msp.c **** {
 302              		.loc 1 170 0
 303              		.cfi_startproc
 304              		@ args = 0, pretend = 0, frame = 0
 305              		@ frame_needed = 0, uses_anonymous_args = 0
 306              	.LVL20:
 171:./Src/stm32f1xx_hal_msp.c **** 
 172:./Src/stm32f1xx_hal_msp.c ****   if(hadc->Instance==ADC1)
 307              		.loc 1 172 0
 308 0000 0268     		ldr	r2, [r0]
 309 0002 094B     		ldr	r3, .L24
 310 0004 9A42     		cmp	r2, r3
 311 0006 00D0     		beq	.L23
 312 0008 7047     		bx	lr
 313              	.L23:
 170:./Src/stm32f1xx_hal_msp.c **** 
 314              		.loc 1 170 0
 315 000a 10B5     		push	{r4, lr}
ARM GAS  /tmp/cch09A2Q.s 			page 10


 316              	.LCFI7:
 317              		.cfi_def_cfa_offset 8
 318              		.cfi_offset 4, -8
 319              		.cfi_offset 14, -4
 320 000c 0446     		mov	r4, r0
 173:./Src/stm32f1xx_hal_msp.c ****   {
 174:./Src/stm32f1xx_hal_msp.c ****   /* USER CODE BEGIN ADC1_MspDeInit 0 */
 175:./Src/stm32f1xx_hal_msp.c **** 
 176:./Src/stm32f1xx_hal_msp.c ****   /* USER CODE END ADC1_MspDeInit 0 */
 177:./Src/stm32f1xx_hal_msp.c ****     /* Peripheral clock disable */
 178:./Src/stm32f1xx_hal_msp.c ****     __HAL_RCC_ADC1_CLK_DISABLE();
 321              		.loc 1 178 0
 322 000e 074A     		ldr	r2, .L24+4
 323 0010 9369     		ldr	r3, [r2, #24]
 324 0012 23F40073 		bic	r3, r3, #512
 325 0016 9361     		str	r3, [r2, #24]
 179:./Src/stm32f1xx_hal_msp.c ****   
 180:./Src/stm32f1xx_hal_msp.c ****     /**ADC1 GPIO Configuration    
 181:./Src/stm32f1xx_hal_msp.c ****     PC0     ------> ADC1_IN10
 182:./Src/stm32f1xx_hal_msp.c ****     PC1     ------> ADC1_IN11
 183:./Src/stm32f1xx_hal_msp.c ****     PC2     ------> ADC1_IN12 
 184:./Src/stm32f1xx_hal_msp.c ****     */
 185:./Src/stm32f1xx_hal_msp.c ****     HAL_GPIO_DeInit(GPIOC, GPIO_PIN_0|GPIO_PIN_1|GPIO_PIN_2);
 326              		.loc 1 185 0
 327 0018 0721     		movs	r1, #7
 328 001a 0548     		ldr	r0, .L24+8
 329              	.LVL21:
 330 001c FFF7FEFF 		bl	HAL_GPIO_DeInit
 331              	.LVL22:
 186:./Src/stm32f1xx_hal_msp.c **** 
 187:./Src/stm32f1xx_hal_msp.c ****     /* Peripheral DMA DeInit*/
 188:./Src/stm32f1xx_hal_msp.c ****     HAL_DMA_DeInit(hadc->DMA_Handle);
 332              		.loc 1 188 0
 333 0020 206A     		ldr	r0, [r4, #32]
 334 0022 FFF7FEFF 		bl	HAL_DMA_DeInit
 335              	.LVL23:
 189:./Src/stm32f1xx_hal_msp.c ****   }
 190:./Src/stm32f1xx_hal_msp.c ****   /* USER CODE BEGIN ADC1_MspDeInit 1 */
 191:./Src/stm32f1xx_hal_msp.c **** 
 192:./Src/stm32f1xx_hal_msp.c ****   /* USER CODE END ADC1_MspDeInit 1 */
 193:./Src/stm32f1xx_hal_msp.c **** 
 194:./Src/stm32f1xx_hal_msp.c **** }
 336              		.loc 1 194 0
 337 0026 10BD     		pop	{r4, pc}
 338              	.LVL24:
 339              	.L25:
 340              		.align	2
 341              	.L24:
 342 0028 00240140 		.word	1073816576
 343 002c 00100240 		.word	1073876992
 344 0030 00100140 		.word	1073811456
 345              		.cfi_endproc
 346              	.LFE68:
 348              		.section	.text.HAL_I2C_MspInit,"ax",%progbits
 349              		.align	1
 350              		.global	HAL_I2C_MspInit
 351              		.syntax unified
ARM GAS  /tmp/cch09A2Q.s 			page 11


 352              		.thumb
 353              		.thumb_func
 354              		.fpu softvfp
 356              	HAL_I2C_MspInit:
 357              	.LFB69:
 195:./Src/stm32f1xx_hal_msp.c **** 
 196:./Src/stm32f1xx_hal_msp.c **** void HAL_I2C_MspInit(I2C_HandleTypeDef* hi2c)
 197:./Src/stm32f1xx_hal_msp.c **** {
 358              		.loc 1 197 0
 359              		.cfi_startproc
 360              		@ args = 0, pretend = 0, frame = 32
 361              		@ frame_needed = 0, uses_anonymous_args = 0
 362              	.LVL25:
 198:./Src/stm32f1xx_hal_msp.c **** 
 199:./Src/stm32f1xx_hal_msp.c ****   GPIO_InitTypeDef GPIO_InitStruct;
 200:./Src/stm32f1xx_hal_msp.c ****   
 201:./Src/stm32f1xx_hal_msp.c ****   if(hi2c->Instance==I2C2)
 363              		.loc 1 201 0
 364 0000 0268     		ldr	r2, [r0]
 365 0002 384B     		ldr	r3, .L37
 366 0004 9A42     		cmp	r2, r3
 367 0006 00D0     		beq	.L34
 368 0008 7047     		bx	lr
 369              	.L34:
 197:./Src/stm32f1xx_hal_msp.c **** 
 370              		.loc 1 197 0
 371 000a 30B5     		push	{r4, r5, lr}
 372              	.LCFI8:
 373              		.cfi_def_cfa_offset 12
 374              		.cfi_offset 4, -12
 375              		.cfi_offset 5, -8
 376              		.cfi_offset 14, -4
 377 000c 89B0     		sub	sp, sp, #36
 378              	.LCFI9:
 379              		.cfi_def_cfa_offset 48
 380 000e 0446     		mov	r4, r0
 381              	.LBB5:
 202:./Src/stm32f1xx_hal_msp.c ****   {
 203:./Src/stm32f1xx_hal_msp.c ****     __HAL_RCC_DMA1_CLK_ENABLE();
 382              		.loc 1 203 0
 383 0010 354D     		ldr	r5, .L37+4
 384 0012 6B69     		ldr	r3, [r5, #20]
 385 0014 43F00103 		orr	r3, r3, #1
 386 0018 6B61     		str	r3, [r5, #20]
 387 001a 6B69     		ldr	r3, [r5, #20]
 388 001c 03F00103 		and	r3, r3, #1
 389 0020 0193     		str	r3, [sp, #4]
 390 0022 019B     		ldr	r3, [sp, #4]
 391              	.LBE5:
 392              	.LBB6:
 204:./Src/stm32f1xx_hal_msp.c ****     __HAL_RCC_GPIOB_CLK_ENABLE();
 393              		.loc 1 204 0
 394 0024 AB69     		ldr	r3, [r5, #24]
 395 0026 43F00803 		orr	r3, r3, #8
 396 002a AB61     		str	r3, [r5, #24]
 397 002c AB69     		ldr	r3, [r5, #24]
 398 002e 03F00803 		and	r3, r3, #8
ARM GAS  /tmp/cch09A2Q.s 			page 12


 399 0032 0293     		str	r3, [sp, #8]
 400 0034 029B     		ldr	r3, [sp, #8]
 401              	.LBE6:
 205:./Src/stm32f1xx_hal_msp.c ****   /* USER CODE BEGIN I2C2_MspInit 0 */
 206:./Src/stm32f1xx_hal_msp.c **** 
 207:./Src/stm32f1xx_hal_msp.c ****   /* USER CODE END I2C2_MspInit 0 */
 208:./Src/stm32f1xx_hal_msp.c ****   
 209:./Src/stm32f1xx_hal_msp.c ****     /**I2C2 GPIO Configuration    
 210:./Src/stm32f1xx_hal_msp.c ****     PB10     ------> I2C2_SCL
 211:./Src/stm32f1xx_hal_msp.c ****     PB11     ------> I2C2_SDA 
 212:./Src/stm32f1xx_hal_msp.c ****     */
 213:./Src/stm32f1xx_hal_msp.c ****     GPIO_InitStruct.Pin = GPIO_PIN_10|GPIO_PIN_11;
 402              		.loc 1 213 0
 403 0036 4FF44063 		mov	r3, #3072
 404 003a 0493     		str	r3, [sp, #16]
 214:./Src/stm32f1xx_hal_msp.c ****     GPIO_InitStruct.Mode = GPIO_MODE_AF_OD;
 405              		.loc 1 214 0
 406 003c 1223     		movs	r3, #18
 407 003e 0593     		str	r3, [sp, #20]
 215:./Src/stm32f1xx_hal_msp.c ****     GPIO_InitStruct.Pull = GPIO_PULLUP;
 408              		.loc 1 215 0
 409 0040 0123     		movs	r3, #1
 410 0042 0693     		str	r3, [sp, #24]
 216:./Src/stm32f1xx_hal_msp.c ****     GPIO_InitStruct.Speed = GPIO_SPEED_FREQ_HIGH;
 411              		.loc 1 216 0
 412 0044 0323     		movs	r3, #3
 413 0046 0793     		str	r3, [sp, #28]
 217:./Src/stm32f1xx_hal_msp.c ****     HAL_GPIO_Init(GPIOB, &GPIO_InitStruct);
 414              		.loc 1 217 0
 415 0048 04A9     		add	r1, sp, #16
 416 004a 2848     		ldr	r0, .L37+8
 417              	.LVL26:
 418 004c FFF7FEFF 		bl	HAL_GPIO_Init
 419              	.LVL27:
 420              	.LBB7:
 218:./Src/stm32f1xx_hal_msp.c **** 
 219:./Src/stm32f1xx_hal_msp.c ****     /* Peripheral clock enable */
 220:./Src/stm32f1xx_hal_msp.c ****     __HAL_RCC_I2C2_CLK_ENABLE();
 421              		.loc 1 220 0
 422 0050 EB69     		ldr	r3, [r5, #28]
 423 0052 43F48003 		orr	r3, r3, #4194304
 424 0056 EB61     		str	r3, [r5, #28]
 425 0058 EB69     		ldr	r3, [r5, #28]
 426 005a 03F48003 		and	r3, r3, #4194304
 427 005e 0393     		str	r3, [sp, #12]
 428 0060 039B     		ldr	r3, [sp, #12]
 429              	.LBE7:
 221:./Src/stm32f1xx_hal_msp.c **** 
 222:./Src/stm32f1xx_hal_msp.c ****     /* Peripheral DMA init*/
 223:./Src/stm32f1xx_hal_msp.c ****   
 224:./Src/stm32f1xx_hal_msp.c ****     hdma_i2c2_rx.Instance = DMA1_Channel5;
 430              		.loc 1 224 0
 431 0062 2348     		ldr	r0, .L37+12
 432 0064 234B     		ldr	r3, .L37+16
 433 0066 0360     		str	r3, [r0]
 225:./Src/stm32f1xx_hal_msp.c ****     hdma_i2c2_rx.Init.Direction = DMA_PERIPH_TO_MEMORY;
 434              		.loc 1 225 0
ARM GAS  /tmp/cch09A2Q.s 			page 13


 435 0068 0023     		movs	r3, #0
 436 006a 4360     		str	r3, [r0, #4]
 226:./Src/stm32f1xx_hal_msp.c ****     hdma_i2c2_rx.Init.PeriphInc = DMA_PINC_DISABLE;
 437              		.loc 1 226 0
 438 006c 8360     		str	r3, [r0, #8]
 227:./Src/stm32f1xx_hal_msp.c ****     hdma_i2c2_rx.Init.MemInc = DMA_MINC_ENABLE;
 439              		.loc 1 227 0
 440 006e 8022     		movs	r2, #128
 441 0070 C260     		str	r2, [r0, #12]
 228:./Src/stm32f1xx_hal_msp.c ****     hdma_i2c2_rx.Init.PeriphDataAlignment = DMA_PDATAALIGN_BYTE;
 442              		.loc 1 228 0
 443 0072 0361     		str	r3, [r0, #16]
 229:./Src/stm32f1xx_hal_msp.c ****     hdma_i2c2_rx.Init.MemDataAlignment = DMA_MDATAALIGN_BYTE;
 444              		.loc 1 229 0
 445 0074 4361     		str	r3, [r0, #20]
 230:./Src/stm32f1xx_hal_msp.c ****     hdma_i2c2_rx.Init.Mode = DMA_NORMAL;
 446              		.loc 1 230 0
 447 0076 8361     		str	r3, [r0, #24]
 231:./Src/stm32f1xx_hal_msp.c ****     hdma_i2c2_rx.Init.Priority = DMA_PRIORITY_MEDIUM;
 448              		.loc 1 231 0
 449 0078 4FF48053 		mov	r3, #4096
 450 007c C361     		str	r3, [r0, #28]
 232:./Src/stm32f1xx_hal_msp.c ****     if (HAL_DMA_Init(&hdma_i2c2_rx) != HAL_OK)
 451              		.loc 1 232 0
 452 007e FFF7FEFF 		bl	HAL_DMA_Init
 453              	.LVL28:
 454 0082 48BB     		cbnz	r0, .L35
 455              	.L28:
 233:./Src/stm32f1xx_hal_msp.c ****     {
 234:./Src/stm32f1xx_hal_msp.c ****       Error_Handler();
 235:./Src/stm32f1xx_hal_msp.c ****     }
 236:./Src/stm32f1xx_hal_msp.c **** 
 237:./Src/stm32f1xx_hal_msp.c ****     __HAL_LINKDMA(hi2c,hdmarx,hdma_i2c2_rx);
 456              		.loc 1 237 0
 457 0084 1A4B     		ldr	r3, .L37+12
 458 0086 2363     		str	r3, [r4, #48]
 459 0088 5C62     		str	r4, [r3, #36]
 238:./Src/stm32f1xx_hal_msp.c **** 
 239:./Src/stm32f1xx_hal_msp.c ****     hdma_i2c2_tx.Instance = DMA1_Channel4;
 460              		.loc 1 239 0
 461 008a 1B48     		ldr	r0, .L37+20
 462 008c 1B4B     		ldr	r3, .L37+24
 463 008e 0360     		str	r3, [r0]
 240:./Src/stm32f1xx_hal_msp.c ****     hdma_i2c2_tx.Init.Direction = DMA_MEMORY_TO_PERIPH;
 464              		.loc 1 240 0
 465 0090 1023     		movs	r3, #16
 466 0092 4360     		str	r3, [r0, #4]
 241:./Src/stm32f1xx_hal_msp.c ****     hdma_i2c2_tx.Init.PeriphInc = DMA_PINC_DISABLE;
 467              		.loc 1 241 0
 468 0094 0023     		movs	r3, #0
 469 0096 8360     		str	r3, [r0, #8]
 242:./Src/stm32f1xx_hal_msp.c ****     hdma_i2c2_tx.Init.MemInc = DMA_MINC_ENABLE;
 470              		.loc 1 242 0
 471 0098 8022     		movs	r2, #128
 472 009a C260     		str	r2, [r0, #12]
 243:./Src/stm32f1xx_hal_msp.c ****     hdma_i2c2_tx.Init.PeriphDataAlignment = DMA_PDATAALIGN_BYTE;
 473              		.loc 1 243 0
ARM GAS  /tmp/cch09A2Q.s 			page 14


 474 009c 0361     		str	r3, [r0, #16]
 244:./Src/stm32f1xx_hal_msp.c ****     hdma_i2c2_tx.Init.MemDataAlignment = DMA_MDATAALIGN_BYTE;
 475              		.loc 1 244 0
 476 009e 4361     		str	r3, [r0, #20]
 245:./Src/stm32f1xx_hal_msp.c ****     hdma_i2c2_tx.Init.Mode = DMA_NORMAL;
 477              		.loc 1 245 0
 478 00a0 8361     		str	r3, [r0, #24]
 246:./Src/stm32f1xx_hal_msp.c ****     hdma_i2c2_tx.Init.Priority = DMA_PRIORITY_MEDIUM;
 479              		.loc 1 246 0
 480 00a2 4FF48053 		mov	r3, #4096
 481 00a6 C361     		str	r3, [r0, #28]
 247:./Src/stm32f1xx_hal_msp.c ****     if (HAL_DMA_Init(&hdma_i2c2_tx) != HAL_OK)
 482              		.loc 1 247 0
 483 00a8 FFF7FEFF 		bl	HAL_DMA_Init
 484              	.LVL29:
 485 00ac B8B9     		cbnz	r0, .L36
 486              	.L29:
 248:./Src/stm32f1xx_hal_msp.c ****     {
 249:./Src/stm32f1xx_hal_msp.c ****       Error_Handler();
 250:./Src/stm32f1xx_hal_msp.c ****     }
 251:./Src/stm32f1xx_hal_msp.c **** 
 252:./Src/stm32f1xx_hal_msp.c ****     __HAL_LINKDMA(hi2c,hdmatx,hdma_i2c2_tx);
 487              		.loc 1 252 0
 488 00ae 124B     		ldr	r3, .L37+20
 489 00b0 E362     		str	r3, [r4, #44]
 490 00b2 5C62     		str	r4, [r3, #36]
 253:./Src/stm32f1xx_hal_msp.c **** 
 254:./Src/stm32f1xx_hal_msp.c ****     /* Peripheral interrupt init */
 255:./Src/stm32f1xx_hal_msp.c ****     HAL_NVIC_SetPriority(I2C2_EV_IRQn, 0, 0);
 491              		.loc 1 255 0
 492 00b4 0022     		movs	r2, #0
 493 00b6 1146     		mov	r1, r2
 494 00b8 2120     		movs	r0, #33
 495 00ba FFF7FEFF 		bl	HAL_NVIC_SetPriority
 496              	.LVL30:
 256:./Src/stm32f1xx_hal_msp.c ****     HAL_NVIC_EnableIRQ(I2C2_EV_IRQn);
 497              		.loc 1 256 0
 498 00be 2120     		movs	r0, #33
 499 00c0 FFF7FEFF 		bl	HAL_NVIC_EnableIRQ
 500              	.LVL31:
 257:./Src/stm32f1xx_hal_msp.c ****     HAL_NVIC_SetPriority(I2C2_ER_IRQn, 0, 0);
 501              		.loc 1 257 0
 502 00c4 0022     		movs	r2, #0
 503 00c6 1146     		mov	r1, r2
 504 00c8 2220     		movs	r0, #34
 505 00ca FFF7FEFF 		bl	HAL_NVIC_SetPriority
 506              	.LVL32:
 258:./Src/stm32f1xx_hal_msp.c ****     HAL_NVIC_EnableIRQ(I2C2_ER_IRQn);
 507              		.loc 1 258 0
 508 00ce 2220     		movs	r0, #34
 509 00d0 FFF7FEFF 		bl	HAL_NVIC_EnableIRQ
 510              	.LVL33:
 259:./Src/stm32f1xx_hal_msp.c ****   /* USER CODE BEGIN I2C2_MspInit 1 */
 260:./Src/stm32f1xx_hal_msp.c **** 
 261:./Src/stm32f1xx_hal_msp.c ****   /* USER CODE END I2C2_MspInit 1 */
 262:./Src/stm32f1xx_hal_msp.c ****   }
 263:./Src/stm32f1xx_hal_msp.c **** 
ARM GAS  /tmp/cch09A2Q.s 			page 15


 264:./Src/stm32f1xx_hal_msp.c **** }
 511              		.loc 1 264 0
 512 00d4 09B0     		add	sp, sp, #36
 513              	.LCFI10:
 514              		.cfi_remember_state
 515              		.cfi_def_cfa_offset 12
 516              		@ sp needed
 517 00d6 30BD     		pop	{r4, r5, pc}
 518              	.LVL34:
 519              	.L35:
 520              	.LCFI11:
 521              		.cfi_restore_state
 234:./Src/stm32f1xx_hal_msp.c ****     }
 522              		.loc 1 234 0
 523 00d8 FFF7FEFF 		bl	Error_Handler
 524              	.LVL35:
 525 00dc D2E7     		b	.L28
 526              	.L36:
 249:./Src/stm32f1xx_hal_msp.c ****     }
 527              		.loc 1 249 0
 528 00de FFF7FEFF 		bl	Error_Handler
 529              	.LVL36:
 530 00e2 E4E7     		b	.L29
 531              	.L38:
 532              		.align	2
 533              	.L37:
 534 00e4 00580040 		.word	1073764352
 535 00e8 00100240 		.word	1073876992
 536 00ec 000C0140 		.word	1073810432
 537 00f0 00000000 		.word	hdma_i2c2_rx
 538 00f4 58000240 		.word	1073872984
 539 00f8 00000000 		.word	hdma_i2c2_tx
 540 00fc 44000240 		.word	1073872964
 541              		.cfi_endproc
 542              	.LFE69:
 544              		.section	.text.HAL_I2C_MspDeInit,"ax",%progbits
 545              		.align	1
 546              		.global	HAL_I2C_MspDeInit
 547              		.syntax unified
 548              		.thumb
 549              		.thumb_func
 550              		.fpu softvfp
 552              	HAL_I2C_MspDeInit:
 553              	.LFB70:
 265:./Src/stm32f1xx_hal_msp.c **** 
 266:./Src/stm32f1xx_hal_msp.c **** void HAL_I2C_MspDeInit(I2C_HandleTypeDef* hi2c)
 267:./Src/stm32f1xx_hal_msp.c **** {
 554              		.loc 1 267 0
 555              		.cfi_startproc
 556              		@ args = 0, pretend = 0, frame = 0
 557              		@ frame_needed = 0, uses_anonymous_args = 0
 558              	.LVL37:
 268:./Src/stm32f1xx_hal_msp.c **** 
 269:./Src/stm32f1xx_hal_msp.c ****   if(hi2c->Instance==I2C2)
 559              		.loc 1 269 0
 560 0000 0268     		ldr	r2, [r0]
 561 0002 0D4B     		ldr	r3, .L46
ARM GAS  /tmp/cch09A2Q.s 			page 16


 562 0004 9A42     		cmp	r2, r3
 563 0006 00D0     		beq	.L45
 564 0008 7047     		bx	lr
 565              	.L45:
 267:./Src/stm32f1xx_hal_msp.c **** 
 566              		.loc 1 267 0
 567 000a 10B5     		push	{r4, lr}
 568              	.LCFI12:
 569              		.cfi_def_cfa_offset 8
 570              		.cfi_offset 4, -8
 571              		.cfi_offset 14, -4
 572 000c 0446     		mov	r4, r0
 270:./Src/stm32f1xx_hal_msp.c ****   {
 271:./Src/stm32f1xx_hal_msp.c ****   /* USER CODE BEGIN I2C2_MspDeInit 0 */
 272:./Src/stm32f1xx_hal_msp.c **** 
 273:./Src/stm32f1xx_hal_msp.c ****   /* USER CODE END I2C2_MspDeInit 0 */
 274:./Src/stm32f1xx_hal_msp.c ****     /* Peripheral clock disable */
 275:./Src/stm32f1xx_hal_msp.c ****     __HAL_RCC_I2C2_CLK_DISABLE();
 573              		.loc 1 275 0
 574 000e 0B4A     		ldr	r2, .L46+4
 575 0010 D369     		ldr	r3, [r2, #28]
 576 0012 23F48003 		bic	r3, r3, #4194304
 577 0016 D361     		str	r3, [r2, #28]
 276:./Src/stm32f1xx_hal_msp.c ****   
 277:./Src/stm32f1xx_hal_msp.c ****     /**I2C2 GPIO Configuration    
 278:./Src/stm32f1xx_hal_msp.c ****     PB10     ------> I2C2_SCL
 279:./Src/stm32f1xx_hal_msp.c ****     PB11     ------> I2C2_SDA 
 280:./Src/stm32f1xx_hal_msp.c ****     */
 281:./Src/stm32f1xx_hal_msp.c ****     HAL_GPIO_DeInit(GPIOB, GPIO_PIN_10|GPIO_PIN_11);
 578              		.loc 1 281 0
 579 0018 4FF44061 		mov	r1, #3072
 580 001c 0848     		ldr	r0, .L46+8
 581              	.LVL38:
 582 001e FFF7FEFF 		bl	HAL_GPIO_DeInit
 583              	.LVL39:
 282:./Src/stm32f1xx_hal_msp.c **** 
 283:./Src/stm32f1xx_hal_msp.c ****     /* Peripheral DMA DeInit*/
 284:./Src/stm32f1xx_hal_msp.c ****     HAL_DMA_DeInit(hi2c->hdmarx);
 584              		.loc 1 284 0
 585 0022 206B     		ldr	r0, [r4, #48]
 586 0024 FFF7FEFF 		bl	HAL_DMA_DeInit
 587              	.LVL40:
 285:./Src/stm32f1xx_hal_msp.c ****     HAL_DMA_DeInit(hi2c->hdmatx);
 588              		.loc 1 285 0
 589 0028 E06A     		ldr	r0, [r4, #44]
 590 002a FFF7FEFF 		bl	HAL_DMA_DeInit
 591              	.LVL41:
 286:./Src/stm32f1xx_hal_msp.c **** 
 287:./Src/stm32f1xx_hal_msp.c ****     /* Peripheral interrupt DeInit*/
 288:./Src/stm32f1xx_hal_msp.c ****     HAL_NVIC_DisableIRQ(I2C2_ER_IRQn);
 592              		.loc 1 288 0
 593 002e 2220     		movs	r0, #34
 594 0030 FFF7FEFF 		bl	HAL_NVIC_DisableIRQ
 595              	.LVL42:
 289:./Src/stm32f1xx_hal_msp.c **** 
 290:./Src/stm32f1xx_hal_msp.c ****   }
 291:./Src/stm32f1xx_hal_msp.c ****   /* USER CODE BEGIN I2C2_MspDeInit 1 */
ARM GAS  /tmp/cch09A2Q.s 			page 17


 292:./Src/stm32f1xx_hal_msp.c **** 
 293:./Src/stm32f1xx_hal_msp.c ****   /* USER CODE END I2C2_MspDeInit 1 */
 294:./Src/stm32f1xx_hal_msp.c **** 
 295:./Src/stm32f1xx_hal_msp.c **** }
 596              		.loc 1 295 0
 597 0034 10BD     		pop	{r4, pc}
 598              	.LVL43:
 599              	.L47:
 600 0036 00BF     		.align	2
 601              	.L46:
 602 0038 00580040 		.word	1073764352
 603 003c 00100240 		.word	1073876992
 604 0040 000C0140 		.word	1073810432
 605              		.cfi_endproc
 606              	.LFE70:
 608              		.section	.text.HAL_TIM_PWM_MspDeInit,"ax",%progbits
 609              		.align	1
 610              		.global	HAL_TIM_PWM_MspDeInit
 611              		.syntax unified
 612              		.thumb
 613              		.thumb_func
 614              		.fpu softvfp
 616              	HAL_TIM_PWM_MspDeInit:
 617              	.LFB71:
 296:./Src/stm32f1xx_hal_msp.c **** 
 297:./Src/stm32f1xx_hal_msp.c **** 
 298:./Src/stm32f1xx_hal_msp.c **** 
 299:./Src/stm32f1xx_hal_msp.c **** void HAL_TIM_PWM_MspDeInit(TIM_HandleTypeDef* htim_pwm)
 300:./Src/stm32f1xx_hal_msp.c **** {
 618              		.loc 1 300 0
 619              		.cfi_startproc
 620              		@ args = 0, pretend = 0, frame = 0
 621              		@ frame_needed = 0, uses_anonymous_args = 0
 622              	.LVL44:
 623 0000 08B5     		push	{r3, lr}
 624              	.LCFI13:
 625              		.cfi_def_cfa_offset 8
 626              		.cfi_offset 3, -8
 627              		.cfi_offset 14, -4
 301:./Src/stm32f1xx_hal_msp.c **** 
 302:./Src/stm32f1xx_hal_msp.c ****   if(htim_pwm->Instance==TIM1)
 628              		.loc 1 302 0
 629 0002 0368     		ldr	r3, [r0]
 630 0004 0D4A     		ldr	r2, .L54
 631 0006 9342     		cmp	r3, r2
 632 0008 03D0     		beq	.L52
 303:./Src/stm32f1xx_hal_msp.c ****   {
 304:./Src/stm32f1xx_hal_msp.c ****   /* USER CODE BEGIN TIM1_MspDeInit 0 */
 305:./Src/stm32f1xx_hal_msp.c **** 
 306:./Src/stm32f1xx_hal_msp.c ****   /* USER CODE END TIM1_MspDeInit 0 */
 307:./Src/stm32f1xx_hal_msp.c ****     /* Peripheral clock disable */
 308:./Src/stm32f1xx_hal_msp.c ****     __HAL_RCC_TIM1_CLK_DISABLE();
 309:./Src/stm32f1xx_hal_msp.c **** 
 310:./Src/stm32f1xx_hal_msp.c ****     /* Peripheral interrupt DeInit*/
 311:./Src/stm32f1xx_hal_msp.c ****     HAL_NVIC_DisableIRQ(TIM1_CC_IRQn);
 312:./Src/stm32f1xx_hal_msp.c **** 
 313:./Src/stm32f1xx_hal_msp.c ****   /* USER CODE BEGIN TIM1_MspDeInit 1 */
ARM GAS  /tmp/cch09A2Q.s 			page 18


 314:./Src/stm32f1xx_hal_msp.c **** 
 315:./Src/stm32f1xx_hal_msp.c ****   /* USER CODE END TIM1_MspDeInit 1 */
 316:./Src/stm32f1xx_hal_msp.c ****   }
 317:./Src/stm32f1xx_hal_msp.c ****   else if(htim_pwm->Instance==TIM8)
 633              		.loc 1 317 0
 634 000a 0D4A     		ldr	r2, .L54+4
 635 000c 9342     		cmp	r3, r2
 636 000e 0AD0     		beq	.L53
 637              	.LVL45:
 638              	.L48:
 318:./Src/stm32f1xx_hal_msp.c ****   {
 319:./Src/stm32f1xx_hal_msp.c ****   /* USER CODE BEGIN TIM8_MspDeInit 0 */
 320:./Src/stm32f1xx_hal_msp.c **** 
 321:./Src/stm32f1xx_hal_msp.c ****   /* USER CODE END TIM8_MspDeInit 0 */
 322:./Src/stm32f1xx_hal_msp.c ****     /* Peripheral clock disable */
 323:./Src/stm32f1xx_hal_msp.c ****     __HAL_RCC_TIM8_CLK_DISABLE();
 324:./Src/stm32f1xx_hal_msp.c **** 
 325:./Src/stm32f1xx_hal_msp.c ****     /* Peripheral interrupt DeInit*/
 326:./Src/stm32f1xx_hal_msp.c ****     HAL_NVIC_DisableIRQ(TIM8_CC_IRQn);
 327:./Src/stm32f1xx_hal_msp.c **** 
 328:./Src/stm32f1xx_hal_msp.c ****   /* USER CODE BEGIN TIM8_MspDeInit 1 */
 329:./Src/stm32f1xx_hal_msp.c **** 
 330:./Src/stm32f1xx_hal_msp.c ****   /* USER CODE END TIM8_MspDeInit 1 */
 331:./Src/stm32f1xx_hal_msp.c ****   }
 332:./Src/stm32f1xx_hal_msp.c **** 
 333:./Src/stm32f1xx_hal_msp.c **** }
 639              		.loc 1 333 0
 640 0010 08BD     		pop	{r3, pc}
 641              	.LVL46:
 642              	.L52:
 308:./Src/stm32f1xx_hal_msp.c **** 
 643              		.loc 1 308 0
 644 0012 02F56442 		add	r2, r2, #58368
 645 0016 9369     		ldr	r3, [r2, #24]
 646 0018 23F40063 		bic	r3, r3, #2048
 647 001c 9361     		str	r3, [r2, #24]
 311:./Src/stm32f1xx_hal_msp.c **** 
 648              		.loc 1 311 0
 649 001e 1B20     		movs	r0, #27
 650              	.LVL47:
 651 0020 FFF7FEFF 		bl	HAL_NVIC_DisableIRQ
 652              	.LVL48:
 653 0024 F4E7     		b	.L48
 654              	.LVL49:
 655              	.L53:
 323:./Src/stm32f1xx_hal_msp.c **** 
 656              		.loc 1 323 0
 657 0026 02F55C42 		add	r2, r2, #56320
 658 002a 9369     		ldr	r3, [r2, #24]
 659 002c 23F40053 		bic	r3, r3, #8192
 660 0030 9361     		str	r3, [r2, #24]
 326:./Src/stm32f1xx_hal_msp.c **** 
 661              		.loc 1 326 0
 662 0032 2E20     		movs	r0, #46
 663              	.LVL50:
 664 0034 FFF7FEFF 		bl	HAL_NVIC_DisableIRQ
 665              	.LVL51:
ARM GAS  /tmp/cch09A2Q.s 			page 19


 666              		.loc 1 333 0
 667 0038 EAE7     		b	.L48
 668              	.L55:
 669 003a 00BF     		.align	2
 670              	.L54:
 671 003c 002C0140 		.word	1073818624
 672 0040 00340140 		.word	1073820672
 673              		.cfi_endproc
 674              	.LFE71:
 676              		.section	.text.HAL_UART_MspInit,"ax",%progbits
 677              		.align	1
 678              		.global	HAL_UART_MspInit
 679              		.syntax unified
 680              		.thumb
 681              		.thumb_func
 682              		.fpu softvfp
 684              	HAL_UART_MspInit:
 685              	.LFB72:
 334:./Src/stm32f1xx_hal_msp.c **** 
 335:./Src/stm32f1xx_hal_msp.c **** void HAL_UART_MspInit(UART_HandleTypeDef* huart)
 336:./Src/stm32f1xx_hal_msp.c **** {
 686              		.loc 1 336 0
 687              		.cfi_startproc
 688              		@ args = 0, pretend = 0, frame = 32
 689              		@ frame_needed = 0, uses_anonymous_args = 0
 690              	.LVL52:
 337:./Src/stm32f1xx_hal_msp.c **** 
 338:./Src/stm32f1xx_hal_msp.c ****   GPIO_InitTypeDef GPIO_InitStruct;
 339:./Src/stm32f1xx_hal_msp.c ****   if(huart->Instance==USART2)
 691              		.loc 1 339 0
 692 0000 0268     		ldr	r2, [r0]
 693 0002 334B     		ldr	r3, .L67
 694 0004 9A42     		cmp	r2, r3
 695 0006 00D0     		beq	.L64
 696 0008 7047     		bx	lr
 697              	.L64:
 336:./Src/stm32f1xx_hal_msp.c **** 
 698              		.loc 1 336 0
 699 000a 70B5     		push	{r4, r5, r6, lr}
 700              	.LCFI14:
 701              		.cfi_def_cfa_offset 16
 702              		.cfi_offset 4, -16
 703              		.cfi_offset 5, -12
 704              		.cfi_offset 6, -8
 705              		.cfi_offset 14, -4
 706 000c 88B0     		sub	sp, sp, #32
 707              	.LCFI15:
 708              		.cfi_def_cfa_offset 48
 709 000e 0446     		mov	r4, r0
 710              	.LBB8:
 340:./Src/stm32f1xx_hal_msp.c ****   {
 341:./Src/stm32f1xx_hal_msp.c ****      __HAL_RCC_DMA1_CLK_ENABLE();
 711              		.loc 1 341 0
 712 0010 03F5E633 		add	r3, r3, #117760
 713 0014 5A69     		ldr	r2, [r3, #20]
 714 0016 42F00102 		orr	r2, r2, #1
 715 001a 5A61     		str	r2, [r3, #20]
ARM GAS  /tmp/cch09A2Q.s 			page 20


 716 001c 5A69     		ldr	r2, [r3, #20]
 717 001e 02F00102 		and	r2, r2, #1
 718 0022 0192     		str	r2, [sp, #4]
 719 0024 019A     		ldr	r2, [sp, #4]
 720              	.LBE8:
 721              	.LBB9:
 342:./Src/stm32f1xx_hal_msp.c ****   /* USER CODE BEGIN USART2_MspInit 0 */
 343:./Src/stm32f1xx_hal_msp.c ****     __HAL_RCC_GPIOA_CLK_ENABLE();
 722              		.loc 1 343 0
 723 0026 9A69     		ldr	r2, [r3, #24]
 724 0028 42F00402 		orr	r2, r2, #4
 725 002c 9A61     		str	r2, [r3, #24]
 726 002e 9A69     		ldr	r2, [r3, #24]
 727 0030 02F00402 		and	r2, r2, #4
 728 0034 0292     		str	r2, [sp, #8]
 729 0036 029A     		ldr	r2, [sp, #8]
 730              	.LBE9:
 731              	.LBB10:
 344:./Src/stm32f1xx_hal_msp.c ****   /* USER CODE END USART2_MspInit 0 */
 345:./Src/stm32f1xx_hal_msp.c ****     /* Peripheral clock enable */
 346:./Src/stm32f1xx_hal_msp.c ****     __HAL_RCC_USART2_CLK_ENABLE();
 732              		.loc 1 346 0
 733 0038 DA69     		ldr	r2, [r3, #28]
 734 003a 42F40032 		orr	r2, r2, #131072
 735 003e DA61     		str	r2, [r3, #28]
 736 0040 DB69     		ldr	r3, [r3, #28]
 737 0042 03F40033 		and	r3, r3, #131072
 738 0046 0393     		str	r3, [sp, #12]
 739 0048 039B     		ldr	r3, [sp, #12]
 740              	.LBE10:
 347:./Src/stm32f1xx_hal_msp.c ****   
 348:./Src/stm32f1xx_hal_msp.c ****     /**USART2 GPIO Configuration    
 349:./Src/stm32f1xx_hal_msp.c ****     PA2     ------> USART2_TX
 350:./Src/stm32f1xx_hal_msp.c ****     PA3     ------> USART2_RX 
 351:./Src/stm32f1xx_hal_msp.c ****     */
 352:./Src/stm32f1xx_hal_msp.c ****     GPIO_InitStruct.Pull = GPIO_PULLUP; //GPIO_NOPULL;
 741              		.loc 1 352 0
 742 004a 0123     		movs	r3, #1
 743 004c 0693     		str	r3, [sp, #24]
 353:./Src/stm32f1xx_hal_msp.c ****     GPIO_InitStruct.Pin = GPIO_PIN_2;
 744              		.loc 1 353 0
 745 004e 0423     		movs	r3, #4
 746 0050 0493     		str	r3, [sp, #16]
 354:./Src/stm32f1xx_hal_msp.c ****     GPIO_InitStruct.Mode = GPIO_MODE_AF_PP;
 747              		.loc 1 354 0
 748 0052 0223     		movs	r3, #2
 749 0054 0593     		str	r3, [sp, #20]
 355:./Src/stm32f1xx_hal_msp.c ****     GPIO_InitStruct.Speed = GPIO_SPEED_FREQ_HIGH;
 750              		.loc 1 355 0
 751 0056 0323     		movs	r3, #3
 752 0058 0793     		str	r3, [sp, #28]
 356:./Src/stm32f1xx_hal_msp.c ****     HAL_GPIO_Init(GPIOA, &GPIO_InitStruct);
 753              		.loc 1 356 0
 754 005a 1E4E     		ldr	r6, .L67+4
 755 005c 04A9     		add	r1, sp, #16
 756 005e 3046     		mov	r0, r6
 757              	.LVL53:
ARM GAS  /tmp/cch09A2Q.s 			page 21


 758 0060 FFF7FEFF 		bl	HAL_GPIO_Init
 759              	.LVL54:
 357:./Src/stm32f1xx_hal_msp.c **** 
 358:./Src/stm32f1xx_hal_msp.c ****     GPIO_InitStruct.Pin = GPIO_PIN_3;
 760              		.loc 1 358 0
 761 0064 0823     		movs	r3, #8
 762 0066 0493     		str	r3, [sp, #16]
 359:./Src/stm32f1xx_hal_msp.c ****     GPIO_InitStruct.Mode = GPIO_MODE_INPUT; //GPIO_MODE_AF_PP;
 763              		.loc 1 359 0
 764 0068 0025     		movs	r5, #0
 765 006a 0595     		str	r5, [sp, #20]
 360:./Src/stm32f1xx_hal_msp.c ****    // GPIO_InitStruct.Pull = GPIO_NOPULL;
 361:./Src/stm32f1xx_hal_msp.c ****     HAL_GPIO_Init(GPIOA, &GPIO_InitStruct);
 766              		.loc 1 361 0
 767 006c 04A9     		add	r1, sp, #16
 768 006e 3046     		mov	r0, r6
 769 0070 FFF7FEFF 		bl	HAL_GPIO_Init
 770              	.LVL55:
 362:./Src/stm32f1xx_hal_msp.c **** 
 363:./Src/stm32f1xx_hal_msp.c ****     /* Peripheral DMA init*/
 364:./Src/stm32f1xx_hal_msp.c ****   
 365:./Src/stm32f1xx_hal_msp.c ****     hdma_usart2_rx.Instance = DMA1_Channel6;
 771              		.loc 1 365 0
 772 0074 1848     		ldr	r0, .L67+8
 773 0076 194B     		ldr	r3, .L67+12
 774 0078 0360     		str	r3, [r0]
 366:./Src/stm32f1xx_hal_msp.c ****     hdma_usart2_rx.Init.Direction = DMA_PERIPH_TO_MEMORY;
 775              		.loc 1 366 0
 776 007a 4560     		str	r5, [r0, #4]
 367:./Src/stm32f1xx_hal_msp.c ****     hdma_usart2_rx.Init.PeriphInc = DMA_PINC_DISABLE;
 777              		.loc 1 367 0
 778 007c 8560     		str	r5, [r0, #8]
 368:./Src/stm32f1xx_hal_msp.c ****     hdma_usart2_rx.Init.MemInc = DMA_MINC_ENABLE;
 779              		.loc 1 368 0
 780 007e 8023     		movs	r3, #128
 781 0080 C360     		str	r3, [r0, #12]
 369:./Src/stm32f1xx_hal_msp.c ****     hdma_usart2_rx.Init.PeriphDataAlignment = DMA_PDATAALIGN_BYTE;
 782              		.loc 1 369 0
 783 0082 0561     		str	r5, [r0, #16]
 370:./Src/stm32f1xx_hal_msp.c ****     hdma_usart2_rx.Init.MemDataAlignment = DMA_MDATAALIGN_BYTE;
 784              		.loc 1 370 0
 785 0084 4561     		str	r5, [r0, #20]
 371:./Src/stm32f1xx_hal_msp.c ****     hdma_usart2_rx.Init.Mode = DMA_CIRCULAR; //DMA_NORMAL;
 786              		.loc 1 371 0
 787 0086 2023     		movs	r3, #32
 788 0088 8361     		str	r3, [r0, #24]
 372:./Src/stm32f1xx_hal_msp.c ****     hdma_usart2_rx.Init.Priority = DMA_PRIORITY_LOW;
 789              		.loc 1 372 0
 790 008a C561     		str	r5, [r0, #28]
 373:./Src/stm32f1xx_hal_msp.c ****     if (HAL_DMA_Init(&hdma_usart2_rx) != HAL_OK)
 791              		.loc 1 373 0
 792 008c FFF7FEFF 		bl	HAL_DMA_Init
 793              	.LVL56:
 794 0090 B8B9     		cbnz	r0, .L65
 795              	.L58:
 374:./Src/stm32f1xx_hal_msp.c ****     {
 375:./Src/stm32f1xx_hal_msp.c ****       Error_Handler();
ARM GAS  /tmp/cch09A2Q.s 			page 22


 376:./Src/stm32f1xx_hal_msp.c ****     }
 377:./Src/stm32f1xx_hal_msp.c **** 
 378:./Src/stm32f1xx_hal_msp.c ****     __HAL_LINKDMA(huart,hdmarx,hdma_usart2_rx);
 796              		.loc 1 378 0
 797 0092 114B     		ldr	r3, .L67+8
 798 0094 6363     		str	r3, [r4, #52]
 799 0096 5C62     		str	r4, [r3, #36]
 379:./Src/stm32f1xx_hal_msp.c **** 
 380:./Src/stm32f1xx_hal_msp.c ****     hdma_usart2_tx.Instance = DMA1_Channel7;
 800              		.loc 1 380 0
 801 0098 1148     		ldr	r0, .L67+16
 802 009a 124B     		ldr	r3, .L67+20
 803 009c 0360     		str	r3, [r0]
 381:./Src/stm32f1xx_hal_msp.c ****     hdma_usart2_tx.Init.Direction = DMA_MEMORY_TO_PERIPH;
 804              		.loc 1 381 0
 805 009e 1023     		movs	r3, #16
 806 00a0 4360     		str	r3, [r0, #4]
 382:./Src/stm32f1xx_hal_msp.c ****     hdma_usart2_tx.Init.PeriphInc = DMA_PINC_DISABLE;
 807              		.loc 1 382 0
 808 00a2 0023     		movs	r3, #0
 809 00a4 8360     		str	r3, [r0, #8]
 383:./Src/stm32f1xx_hal_msp.c ****     hdma_usart2_tx.Init.MemInc = DMA_MINC_ENABLE;
 810              		.loc 1 383 0
 811 00a6 8022     		movs	r2, #128
 812 00a8 C260     		str	r2, [r0, #12]
 384:./Src/stm32f1xx_hal_msp.c ****     hdma_usart2_tx.Init.PeriphDataAlignment = DMA_PDATAALIGN_BYTE;
 813              		.loc 1 384 0
 814 00aa 0361     		str	r3, [r0, #16]
 385:./Src/stm32f1xx_hal_msp.c ****     hdma_usart2_tx.Init.MemDataAlignment = DMA_MDATAALIGN_BYTE;
 815              		.loc 1 385 0
 816 00ac 4361     		str	r3, [r0, #20]
 386:./Src/stm32f1xx_hal_msp.c ****     hdma_usart2_tx.Init.Mode = DMA_NORMAL;
 817              		.loc 1 386 0
 818 00ae 8361     		str	r3, [r0, #24]
 387:./Src/stm32f1xx_hal_msp.c ****     hdma_usart2_tx.Init.Priority = DMA_PRIORITY_LOW;
 819              		.loc 1 387 0
 820 00b0 C361     		str	r3, [r0, #28]
 388:./Src/stm32f1xx_hal_msp.c ****     if (HAL_DMA_Init(&hdma_usart2_tx) != HAL_OK)
 821              		.loc 1 388 0
 822 00b2 FFF7FEFF 		bl	HAL_DMA_Init
 823              	.LVL57:
 824 00b6 38B9     		cbnz	r0, .L66
 825              	.L59:
 389:./Src/stm32f1xx_hal_msp.c ****     {
 390:./Src/stm32f1xx_hal_msp.c ****       Error_Handler();
 391:./Src/stm32f1xx_hal_msp.c ****     }
 392:./Src/stm32f1xx_hal_msp.c **** 
 393:./Src/stm32f1xx_hal_msp.c ****     __HAL_LINKDMA(huart,hdmatx,hdma_usart2_tx);
 826              		.loc 1 393 0
 827 00b8 094B     		ldr	r3, .L67+16
 828 00ba 2363     		str	r3, [r4, #48]
 829 00bc 5C62     		str	r4, [r3, #36]
 394:./Src/stm32f1xx_hal_msp.c **** 
 395:./Src/stm32f1xx_hal_msp.c ****   /* USER CODE BEGIN USART2_MspInit 1 */
 396:./Src/stm32f1xx_hal_msp.c **** 
 397:./Src/stm32f1xx_hal_msp.c ****   /* USER CODE END USART2_MspInit 1 */
 398:./Src/stm32f1xx_hal_msp.c ****   }
ARM GAS  /tmp/cch09A2Q.s 			page 23


 399:./Src/stm32f1xx_hal_msp.c **** 
 400:./Src/stm32f1xx_hal_msp.c **** }
 830              		.loc 1 400 0
 831 00be 08B0     		add	sp, sp, #32
 832              	.LCFI16:
 833              		.cfi_remember_state
 834              		.cfi_def_cfa_offset 16
 835              		@ sp needed
 836 00c0 70BD     		pop	{r4, r5, r6, pc}
 837              	.LVL58:
 838              	.L65:
 839              	.LCFI17:
 840              		.cfi_restore_state
 375:./Src/stm32f1xx_hal_msp.c ****     }
 841              		.loc 1 375 0
 842 00c2 FFF7FEFF 		bl	Error_Handler
 843              	.LVL59:
 844 00c6 E4E7     		b	.L58
 845              	.L66:
 390:./Src/stm32f1xx_hal_msp.c ****     }
 846              		.loc 1 390 0
 847 00c8 FFF7FEFF 		bl	Error_Handler
 848              	.LVL60:
 849 00cc F4E7     		b	.L59
 850              	.L68:
 851 00ce 00BF     		.align	2
 852              	.L67:
 853 00d0 00440040 		.word	1073759232
 854 00d4 00080140 		.word	1073809408
 855 00d8 00000000 		.word	hdma_usart2_rx
 856 00dc 6C000240 		.word	1073873004
 857 00e0 00000000 		.word	hdma_usart2_tx
 858 00e4 80000240 		.word	1073873024
 859              		.cfi_endproc
 860              	.LFE72:
 862              		.section	.text.HAL_UART_MspDeInit,"ax",%progbits
 863              		.align	1
 864              		.global	HAL_UART_MspDeInit
 865              		.syntax unified
 866              		.thumb
 867              		.thumb_func
 868              		.fpu softvfp
 870              	HAL_UART_MspDeInit:
 871              	.LFB73:
 401:./Src/stm32f1xx_hal_msp.c **** 
 402:./Src/stm32f1xx_hal_msp.c **** void HAL_UART_MspDeInit(UART_HandleTypeDef* huart)
 403:./Src/stm32f1xx_hal_msp.c **** {
 872              		.loc 1 403 0
 873              		.cfi_startproc
 874              		@ args = 0, pretend = 0, frame = 0
 875              		@ frame_needed = 0, uses_anonymous_args = 0
 876              	.LVL61:
 404:./Src/stm32f1xx_hal_msp.c **** 
 405:./Src/stm32f1xx_hal_msp.c ****   if(huart->Instance==USART2)
 877              		.loc 1 405 0
 878 0000 0268     		ldr	r2, [r0]
 879 0002 0B4B     		ldr	r3, .L76
ARM GAS  /tmp/cch09A2Q.s 			page 24


 880 0004 9A42     		cmp	r2, r3
 881 0006 00D0     		beq	.L75
 882 0008 7047     		bx	lr
 883              	.L75:
 403:./Src/stm32f1xx_hal_msp.c **** 
 884              		.loc 1 403 0
 885 000a 10B5     		push	{r4, lr}
 886              	.LCFI18:
 887              		.cfi_def_cfa_offset 8
 888              		.cfi_offset 4, -8
 889              		.cfi_offset 14, -4
 890 000c 0446     		mov	r4, r0
 406:./Src/stm32f1xx_hal_msp.c ****   {
 407:./Src/stm32f1xx_hal_msp.c ****   /* USER CODE BEGIN USART2_MspDeInit 0 */
 408:./Src/stm32f1xx_hal_msp.c **** 
 409:./Src/stm32f1xx_hal_msp.c ****   /* USER CODE END USART2_MspDeInit 0 */
 410:./Src/stm32f1xx_hal_msp.c ****     /* Peripheral clock disable */
 411:./Src/stm32f1xx_hal_msp.c ****     __HAL_RCC_USART2_CLK_DISABLE();
 891              		.loc 1 411 0
 892 000e 094A     		ldr	r2, .L76+4
 893 0010 D369     		ldr	r3, [r2, #28]
 894 0012 23F40033 		bic	r3, r3, #131072
 895 0016 D361     		str	r3, [r2, #28]
 412:./Src/stm32f1xx_hal_msp.c ****   
 413:./Src/stm32f1xx_hal_msp.c ****     /**USART2 GPIO Configuration    
 414:./Src/stm32f1xx_hal_msp.c ****     PA2     ------> USART2_TX
 415:./Src/stm32f1xx_hal_msp.c ****     PA3     ------> USART2_RX 
 416:./Src/stm32f1xx_hal_msp.c ****     */
 417:./Src/stm32f1xx_hal_msp.c ****     HAL_GPIO_DeInit(GPIOA, GPIO_PIN_2|GPIO_PIN_3);
 896              		.loc 1 417 0
 897 0018 0C21     		movs	r1, #12
 898 001a 0748     		ldr	r0, .L76+8
 899              	.LVL62:
 900 001c FFF7FEFF 		bl	HAL_GPIO_DeInit
 901              	.LVL63:
 418:./Src/stm32f1xx_hal_msp.c **** 
 419:./Src/stm32f1xx_hal_msp.c ****     /* Peripheral DMA DeInit*/
 420:./Src/stm32f1xx_hal_msp.c ****     HAL_DMA_DeInit(huart->hdmarx);
 902              		.loc 1 420 0
 903 0020 606B     		ldr	r0, [r4, #52]
 904 0022 FFF7FEFF 		bl	HAL_DMA_DeInit
 905              	.LVL64:
 421:./Src/stm32f1xx_hal_msp.c ****     HAL_DMA_DeInit(huart->hdmatx);
 906              		.loc 1 421 0
 907 0026 206B     		ldr	r0, [r4, #48]
 908 0028 FFF7FEFF 		bl	HAL_DMA_DeInit
 909              	.LVL65:
 422:./Src/stm32f1xx_hal_msp.c ****   }
 423:./Src/stm32f1xx_hal_msp.c ****   /* USER CODE BEGIN USART2_MspDeInit 1 */
 424:./Src/stm32f1xx_hal_msp.c **** 
 425:./Src/stm32f1xx_hal_msp.c ****   /* USER CODE END USART2_MspDeInit 1 */
 426:./Src/stm32f1xx_hal_msp.c **** 
 427:./Src/stm32f1xx_hal_msp.c **** }
 910              		.loc 1 427 0
 911 002c 10BD     		pop	{r4, pc}
 912              	.LVL66:
 913              	.L77:
ARM GAS  /tmp/cch09A2Q.s 			page 25


 914 002e 00BF     		.align	2
 915              	.L76:
 916 0030 00440040 		.word	1073759232
 917 0034 00100240 		.word	1073876992
 918 0038 00080140 		.word	1073809408
 919              		.cfi_endproc
 920              	.LFE73:
 922              		.text
 923              	.Letext0:
 924              		.file 2 "/usr/arm-none-eabi/include/machine/_default_types.h"
 925              		.file 3 "/usr/arm-none-eabi/include/sys/_stdint.h"
 926              		.file 4 "./Drivers/CMSIS/Include/core_cm3.h"
 927              		.file 5 "./Drivers/CMSIS/Device/ST/STM32F1xx/Include/system_stm32f1xx.h"
 928              		.file 6 "./Drivers/CMSIS/Device/ST/STM32F1xx/Include/stm32f103xe.h"
 929              		.file 7 "/usr/arm-none-eabi/include/sys/lock.h"
 930              		.file 8 "/usr/arm-none-eabi/include/sys/_types.h"
 931              		.file 9 "/usr/lib/gcc/arm-none-eabi/7.2.0/include/stddef.h"
 932              		.file 10 "/usr/arm-none-eabi/include/sys/reent.h"
 933              		.file 11 "./Drivers/STM32F1xx_HAL_Driver/Inc/stm32f1xx_hal_def.h"
 934              		.file 12 "./Drivers/STM32F1xx_HAL_Driver/Inc/stm32f1xx_hal_gpio.h"
 935              		.file 13 "./Drivers/STM32F1xx_HAL_Driver/Inc/stm32f1xx_hal_dma.h"
 936              		.file 14 "./Drivers/STM32F1xx_HAL_Driver/Inc/stm32f1xx_hal_adc.h"
 937              		.file 15 "./Drivers/STM32F1xx_HAL_Driver/Inc/stm32f1xx_hal_i2c.h"
 938              		.file 16 "./Drivers/STM32F1xx_HAL_Driver/Inc/stm32f1xx_hal_tim.h"
 939              		.file 17 "./Drivers/STM32F1xx_HAL_Driver/Inc/stm32f1xx_hal_uart.h"
 940              		.file 18 "./Drivers/STM32F1xx_HAL_Driver/Inc/stm32f1xx_hal_cortex.h"
ARM GAS  /tmp/cch09A2Q.s 			page 26

