ARM GAS  /tmp/ccBdMCBM.s 			page 1


   1              		.cpu cortex-m3
   2              		.eabi_attribute 20, 1
   3              		.eabi_attribute 21, 1
   4              		.eabi_attribute 23, 3
   5              		.eabi_attribute 24, 1
   6              		.eabi_attribute 25, 1
   7              		.eabi_attribute 26, 1
   8              		.eabi_attribute 30, 1
   9              		.eabi_attribute 34, 1
  10              		.eabi_attribute 18, 4
  11              		.file	"stm32f1xx_hal_dma.c"
  12              		.text
  13              	.Ltext0:
  14              		.cfi_sections	.debug_frame
  15              		.section	.text.DMA_SetConfig,"ax",%progbits
  16              		.align	1
  17              		.syntax unified
  18              		.thumb
  19              		.thumb_func
  20              		.fpu softvfp
  22              	DMA_SetConfig:
  23              	.LFB75:
  24              		.file 1 "./Drivers/STM32F1xx_HAL_Driver/Src/stm32f1xx_hal_dma.c"
   1:./Drivers/STM32F1xx_HAL_Driver/Src/stm32f1xx_hal_dma.c **** /**
   2:./Drivers/STM32F1xx_HAL_Driver/Src/stm32f1xx_hal_dma.c ****   ******************************************************************************
   3:./Drivers/STM32F1xx_HAL_Driver/Src/stm32f1xx_hal_dma.c ****   * @file    stm32f1xx_hal_dma.c
   4:./Drivers/STM32F1xx_HAL_Driver/Src/stm32f1xx_hal_dma.c ****   * @author  MCD Application Team
   5:./Drivers/STM32F1xx_HAL_Driver/Src/stm32f1xx_hal_dma.c ****   * @version V1.0.4
   6:./Drivers/STM32F1xx_HAL_Driver/Src/stm32f1xx_hal_dma.c ****   * @date    29-April-2016
   7:./Drivers/STM32F1xx_HAL_Driver/Src/stm32f1xx_hal_dma.c ****   * @brief   DMA HAL module driver.
   8:./Drivers/STM32F1xx_HAL_Driver/Src/stm32f1xx_hal_dma.c ****   *    
   9:./Drivers/STM32F1xx_HAL_Driver/Src/stm32f1xx_hal_dma.c ****   *          This file provides firmware functions to manage the following 
  10:./Drivers/STM32F1xx_HAL_Driver/Src/stm32f1xx_hal_dma.c ****   *          functionalities of the Direct Memory Access (DMA) peripheral:
  11:./Drivers/STM32F1xx_HAL_Driver/Src/stm32f1xx_hal_dma.c ****   *           + Initialization and de-initialization functions
  12:./Drivers/STM32F1xx_HAL_Driver/Src/stm32f1xx_hal_dma.c ****   *           + IO operation functions
  13:./Drivers/STM32F1xx_HAL_Driver/Src/stm32f1xx_hal_dma.c ****   *           + Peripheral State and errors functions
  14:./Drivers/STM32F1xx_HAL_Driver/Src/stm32f1xx_hal_dma.c ****   @verbatim     
  15:./Drivers/STM32F1xx_HAL_Driver/Src/stm32f1xx_hal_dma.c ****   ==============================================================================      
  16:./Drivers/STM32F1xx_HAL_Driver/Src/stm32f1xx_hal_dma.c ****                         ##### How to use this driver #####
  17:./Drivers/STM32F1xx_HAL_Driver/Src/stm32f1xx_hal_dma.c ****   ============================================================================== 
  18:./Drivers/STM32F1xx_HAL_Driver/Src/stm32f1xx_hal_dma.c ****   [..]
  19:./Drivers/STM32F1xx_HAL_Driver/Src/stm32f1xx_hal_dma.c ****    (#) Enable and configure the peripheral to be connected to the DMA Channel
  20:./Drivers/STM32F1xx_HAL_Driver/Src/stm32f1xx_hal_dma.c ****        (except for internal SRAM / FLASH memories: no initialization is 
  21:./Drivers/STM32F1xx_HAL_Driver/Src/stm32f1xx_hal_dma.c ****        necessary) please refer to Reference manual for connection between peripherals
  22:./Drivers/STM32F1xx_HAL_Driver/Src/stm32f1xx_hal_dma.c ****        and DMA requests.
  23:./Drivers/STM32F1xx_HAL_Driver/Src/stm32f1xx_hal_dma.c **** 
  24:./Drivers/STM32F1xx_HAL_Driver/Src/stm32f1xx_hal_dma.c ****    (#) For a given Channel, program the required configuration through the following parameters:   
  25:./Drivers/STM32F1xx_HAL_Driver/Src/stm32f1xx_hal_dma.c ****        Transfer Direction, Source and Destination data formats, 
  26:./Drivers/STM32F1xx_HAL_Driver/Src/stm32f1xx_hal_dma.c ****        Circular or Normal mode, Channel Priority level, Source and Destination Increment mode, 
  27:./Drivers/STM32F1xx_HAL_Driver/Src/stm32f1xx_hal_dma.c ****        using HAL_DMA_Init() function.
  28:./Drivers/STM32F1xx_HAL_Driver/Src/stm32f1xx_hal_dma.c **** 
  29:./Drivers/STM32F1xx_HAL_Driver/Src/stm32f1xx_hal_dma.c ****    (#) Use HAL_DMA_GetState() function to return the DMA state and HAL_DMA_GetError() in case of er
  30:./Drivers/STM32F1xx_HAL_Driver/Src/stm32f1xx_hal_dma.c ****        detection.
  31:./Drivers/STM32F1xx_HAL_Driver/Src/stm32f1xx_hal_dma.c ****                     
  32:./Drivers/STM32F1xx_HAL_Driver/Src/stm32f1xx_hal_dma.c ****    (#) Use HAL_DMA_Abort() function to abort the current transfer
  33:./Drivers/STM32F1xx_HAL_Driver/Src/stm32f1xx_hal_dma.c ****                    
  34:./Drivers/STM32F1xx_HAL_Driver/Src/stm32f1xx_hal_dma.c ****      -@-   In Memory-to-Memory transfer mode, Circular mode is not allowed.
ARM GAS  /tmp/ccBdMCBM.s 			page 2


  35:./Drivers/STM32F1xx_HAL_Driver/Src/stm32f1xx_hal_dma.c ****      *** Polling mode IO operation ***
  36:./Drivers/STM32F1xx_HAL_Driver/Src/stm32f1xx_hal_dma.c ****      =================================   
  37:./Drivers/STM32F1xx_HAL_Driver/Src/stm32f1xx_hal_dma.c ****     [..] 
  38:./Drivers/STM32F1xx_HAL_Driver/Src/stm32f1xx_hal_dma.c ****       (+) Use HAL_DMA_Start() to start DMA transfer after the configuration of Source 
  39:./Drivers/STM32F1xx_HAL_Driver/Src/stm32f1xx_hal_dma.c ****           address and destination address and the Length of data to be transferred
  40:./Drivers/STM32F1xx_HAL_Driver/Src/stm32f1xx_hal_dma.c ****       (+) Use HAL_DMA_PollForTransfer() to poll for the end of current transfer, in this  
  41:./Drivers/STM32F1xx_HAL_Driver/Src/stm32f1xx_hal_dma.c ****           case a fixed Timeout can be configured by User depending from his application.
  42:./Drivers/STM32F1xx_HAL_Driver/Src/stm32f1xx_hal_dma.c **** 
  43:./Drivers/STM32F1xx_HAL_Driver/Src/stm32f1xx_hal_dma.c ****      *** Interrupt mode IO operation ***    
  44:./Drivers/STM32F1xx_HAL_Driver/Src/stm32f1xx_hal_dma.c ****      =================================== 
  45:./Drivers/STM32F1xx_HAL_Driver/Src/stm32f1xx_hal_dma.c ****     [..]
  46:./Drivers/STM32F1xx_HAL_Driver/Src/stm32f1xx_hal_dma.c ****       (+) Configure the DMA interrupt priority using HAL_NVIC_SetPriority()
  47:./Drivers/STM32F1xx_HAL_Driver/Src/stm32f1xx_hal_dma.c ****       (+) Enable the DMA IRQ handler using HAL_NVIC_EnableIRQ() 
  48:./Drivers/STM32F1xx_HAL_Driver/Src/stm32f1xx_hal_dma.c ****       (+) Use HAL_DMA_Start_IT() to start DMA transfer after the configuration of  
  49:./Drivers/STM32F1xx_HAL_Driver/Src/stm32f1xx_hal_dma.c ****           Source address and destination address and the Length of data to be transferred. 
  50:./Drivers/STM32F1xx_HAL_Driver/Src/stm32f1xx_hal_dma.c ****           In this case the DMA interrupt is configured 
  51:./Drivers/STM32F1xx_HAL_Driver/Src/stm32f1xx_hal_dma.c ****       (+) Use HAL_DMAy_Channelx_IRQHandler() called under DMA_IRQHandler() Interrupt subroutine
  52:./Drivers/STM32F1xx_HAL_Driver/Src/stm32f1xx_hal_dma.c ****       (+) At the end of data transfer HAL_DMA_IRQHandler() function is executed and user can 
  53:./Drivers/STM32F1xx_HAL_Driver/Src/stm32f1xx_hal_dma.c ****           add his own function by customization of function pointer XferCpltCallback and 
  54:./Drivers/STM32F1xx_HAL_Driver/Src/stm32f1xx_hal_dma.c ****           XferErrorCallback (i.e a member of DMA handle structure). 
  55:./Drivers/STM32F1xx_HAL_Driver/Src/stm32f1xx_hal_dma.c **** 
  56:./Drivers/STM32F1xx_HAL_Driver/Src/stm32f1xx_hal_dma.c ****      *** DMA HAL driver macros list ***
  57:./Drivers/STM32F1xx_HAL_Driver/Src/stm32f1xx_hal_dma.c ****      ============================================= 
  58:./Drivers/STM32F1xx_HAL_Driver/Src/stm32f1xx_hal_dma.c ****      [..]
  59:./Drivers/STM32F1xx_HAL_Driver/Src/stm32f1xx_hal_dma.c ****        Below the list of most used macros in DMA HAL driver.
  60:./Drivers/STM32F1xx_HAL_Driver/Src/stm32f1xx_hal_dma.c **** 
  61:./Drivers/STM32F1xx_HAL_Driver/Src/stm32f1xx_hal_dma.c ****        (+) __HAL_DMA_ENABLE: Enable the specified DMA Channel.
  62:./Drivers/STM32F1xx_HAL_Driver/Src/stm32f1xx_hal_dma.c ****        (+) __HAL_DMA_DISABLE: Disable the specified DMA Channel.
  63:./Drivers/STM32F1xx_HAL_Driver/Src/stm32f1xx_hal_dma.c ****        (+) __HAL_DMA_GET_FLAG: Get the DMA Channel pending flags.
  64:./Drivers/STM32F1xx_HAL_Driver/Src/stm32f1xx_hal_dma.c ****        (+) __HAL_DMA_CLEAR_FLAG: Clear the DMA Channel pending flags.
  65:./Drivers/STM32F1xx_HAL_Driver/Src/stm32f1xx_hal_dma.c ****        (+) __HAL_DMA_ENABLE_IT: Enable the specified DMA Channel interrupts.
  66:./Drivers/STM32F1xx_HAL_Driver/Src/stm32f1xx_hal_dma.c ****        (+) __HAL_DMA_DISABLE_IT: Disable the specified DMA Channel interrupts.
  67:./Drivers/STM32F1xx_HAL_Driver/Src/stm32f1xx_hal_dma.c ****        (+) __HAL_DMA_GET_IT_SOURCE: Check whether the specified DMA Channel interrupt has occurred 
  68:./Drivers/STM32F1xx_HAL_Driver/Src/stm32f1xx_hal_dma.c **** 
  69:./Drivers/STM32F1xx_HAL_Driver/Src/stm32f1xx_hal_dma.c ****      [..] 
  70:./Drivers/STM32F1xx_HAL_Driver/Src/stm32f1xx_hal_dma.c ****       (@) You can refer to the DMA HAL driver header file for more useful macros  
  71:./Drivers/STM32F1xx_HAL_Driver/Src/stm32f1xx_hal_dma.c **** 
  72:./Drivers/STM32F1xx_HAL_Driver/Src/stm32f1xx_hal_dma.c ****   @endverbatim
  73:./Drivers/STM32F1xx_HAL_Driver/Src/stm32f1xx_hal_dma.c ****   ******************************************************************************
  74:./Drivers/STM32F1xx_HAL_Driver/Src/stm32f1xx_hal_dma.c ****   * @attention
  75:./Drivers/STM32F1xx_HAL_Driver/Src/stm32f1xx_hal_dma.c ****   *
  76:./Drivers/STM32F1xx_HAL_Driver/Src/stm32f1xx_hal_dma.c ****   * <h2><center>&copy; COPYRIGHT(c) 2016 STMicroelectronics</center></h2>
  77:./Drivers/STM32F1xx_HAL_Driver/Src/stm32f1xx_hal_dma.c ****   *
  78:./Drivers/STM32F1xx_HAL_Driver/Src/stm32f1xx_hal_dma.c ****   * Redistribution and use in source and binary forms, with or without modification,
  79:./Drivers/STM32F1xx_HAL_Driver/Src/stm32f1xx_hal_dma.c ****   * are permitted provided that the following conditions are met:
  80:./Drivers/STM32F1xx_HAL_Driver/Src/stm32f1xx_hal_dma.c ****   *   1. Redistributions of source code must retain the above copyright notice,
  81:./Drivers/STM32F1xx_HAL_Driver/Src/stm32f1xx_hal_dma.c ****   *      this list of conditions and the following disclaimer.
  82:./Drivers/STM32F1xx_HAL_Driver/Src/stm32f1xx_hal_dma.c ****   *   2. Redistributions in binary form must reproduce the above copyright notice,
  83:./Drivers/STM32F1xx_HAL_Driver/Src/stm32f1xx_hal_dma.c ****   *      this list of conditions and the following disclaimer in the documentation
  84:./Drivers/STM32F1xx_HAL_Driver/Src/stm32f1xx_hal_dma.c ****   *      and/or other materials provided with the distribution.
  85:./Drivers/STM32F1xx_HAL_Driver/Src/stm32f1xx_hal_dma.c ****   *   3. Neither the name of STMicroelectronics nor the names of its contributors
  86:./Drivers/STM32F1xx_HAL_Driver/Src/stm32f1xx_hal_dma.c ****   *      may be used to endorse or promote products derived from this software
  87:./Drivers/STM32F1xx_HAL_Driver/Src/stm32f1xx_hal_dma.c ****   *      without specific prior written permission.
  88:./Drivers/STM32F1xx_HAL_Driver/Src/stm32f1xx_hal_dma.c ****   *
  89:./Drivers/STM32F1xx_HAL_Driver/Src/stm32f1xx_hal_dma.c ****   * THIS SOFTWARE IS PROVIDED BY THE COPYRIGHT HOLDERS AND CONTRIBUTORS "AS IS"
  90:./Drivers/STM32F1xx_HAL_Driver/Src/stm32f1xx_hal_dma.c ****   * AND ANY EXPRESS OR IMPLIED WARRANTIES, INCLUDING, BUT NOT LIMITED TO, THE
  91:./Drivers/STM32F1xx_HAL_Driver/Src/stm32f1xx_hal_dma.c ****   * IMPLIED WARRANTIES OF MERCHANTABILITY AND FITNESS FOR A PARTICULAR PURPOSE ARE
ARM GAS  /tmp/ccBdMCBM.s 			page 3


  92:./Drivers/STM32F1xx_HAL_Driver/Src/stm32f1xx_hal_dma.c ****   * DISCLAIMED. IN NO EVENT SHALL THE COPYRIGHT HOLDER OR CONTRIBUTORS BE LIABLE
  93:./Drivers/STM32F1xx_HAL_Driver/Src/stm32f1xx_hal_dma.c ****   * FOR ANY DIRECT, INDIRECT, INCIDENTAL, SPECIAL, EXEMPLARY, OR CONSEQUENTIAL
  94:./Drivers/STM32F1xx_HAL_Driver/Src/stm32f1xx_hal_dma.c ****   * DAMAGES (INCLUDING, BUT NOT LIMITED TO, PROCUREMENT OF SUBSTITUTE GOODS OR
  95:./Drivers/STM32F1xx_HAL_Driver/Src/stm32f1xx_hal_dma.c ****   * SERVICES; LOSS OF USE, DATA, OR PROFITS; OR BUSINESS INTERRUPTION) HOWEVER
  96:./Drivers/STM32F1xx_HAL_Driver/Src/stm32f1xx_hal_dma.c ****   * CAUSED AND ON ANY THEORY OF LIABILITY, WHETHER IN CONTRACT, STRICT LIABILITY,
  97:./Drivers/STM32F1xx_HAL_Driver/Src/stm32f1xx_hal_dma.c ****   * OR TORT (INCLUDING NEGLIGENCE OR OTHERWISE) ARISING IN ANY WAY OUT OF THE USE
  98:./Drivers/STM32F1xx_HAL_Driver/Src/stm32f1xx_hal_dma.c ****   * OF THIS SOFTWARE, EVEN IF ADVISED OF THE POSSIBILITY OF SUCH DAMAGE.
  99:./Drivers/STM32F1xx_HAL_Driver/Src/stm32f1xx_hal_dma.c ****   *
 100:./Drivers/STM32F1xx_HAL_Driver/Src/stm32f1xx_hal_dma.c ****   ******************************************************************************
 101:./Drivers/STM32F1xx_HAL_Driver/Src/stm32f1xx_hal_dma.c ****   */ 
 102:./Drivers/STM32F1xx_HAL_Driver/Src/stm32f1xx_hal_dma.c **** 
 103:./Drivers/STM32F1xx_HAL_Driver/Src/stm32f1xx_hal_dma.c **** /* Includes ------------------------------------------------------------------*/
 104:./Drivers/STM32F1xx_HAL_Driver/Src/stm32f1xx_hal_dma.c **** #include "stm32f1xx_hal.h"
 105:./Drivers/STM32F1xx_HAL_Driver/Src/stm32f1xx_hal_dma.c **** 
 106:./Drivers/STM32F1xx_HAL_Driver/Src/stm32f1xx_hal_dma.c **** /** @addtogroup STM32F1xx_HAL_Driver
 107:./Drivers/STM32F1xx_HAL_Driver/Src/stm32f1xx_hal_dma.c ****   * @{
 108:./Drivers/STM32F1xx_HAL_Driver/Src/stm32f1xx_hal_dma.c ****   */
 109:./Drivers/STM32F1xx_HAL_Driver/Src/stm32f1xx_hal_dma.c **** 
 110:./Drivers/STM32F1xx_HAL_Driver/Src/stm32f1xx_hal_dma.c **** /** @defgroup DMA DMA
 111:./Drivers/STM32F1xx_HAL_Driver/Src/stm32f1xx_hal_dma.c ****   * @brief DMA HAL module driver
 112:./Drivers/STM32F1xx_HAL_Driver/Src/stm32f1xx_hal_dma.c ****   * @{
 113:./Drivers/STM32F1xx_HAL_Driver/Src/stm32f1xx_hal_dma.c ****   */
 114:./Drivers/STM32F1xx_HAL_Driver/Src/stm32f1xx_hal_dma.c **** 
 115:./Drivers/STM32F1xx_HAL_Driver/Src/stm32f1xx_hal_dma.c **** #ifdef HAL_DMA_MODULE_ENABLED
 116:./Drivers/STM32F1xx_HAL_Driver/Src/stm32f1xx_hal_dma.c **** 
 117:./Drivers/STM32F1xx_HAL_Driver/Src/stm32f1xx_hal_dma.c **** /* Private typedef -----------------------------------------------------------*/
 118:./Drivers/STM32F1xx_HAL_Driver/Src/stm32f1xx_hal_dma.c **** /* Private define ------------------------------------------------------------*/
 119:./Drivers/STM32F1xx_HAL_Driver/Src/stm32f1xx_hal_dma.c **** /** @defgroup DMA_Private_Constants DMA Private Constants
 120:./Drivers/STM32F1xx_HAL_Driver/Src/stm32f1xx_hal_dma.c ****   * @{
 121:./Drivers/STM32F1xx_HAL_Driver/Src/stm32f1xx_hal_dma.c ****   */
 122:./Drivers/STM32F1xx_HAL_Driver/Src/stm32f1xx_hal_dma.c **** #define HAL_TIMEOUT_DMA_ABORT    ((uint32_t)1000)  /* 1s */
 123:./Drivers/STM32F1xx_HAL_Driver/Src/stm32f1xx_hal_dma.c **** /**
 124:./Drivers/STM32F1xx_HAL_Driver/Src/stm32f1xx_hal_dma.c ****   * @}
 125:./Drivers/STM32F1xx_HAL_Driver/Src/stm32f1xx_hal_dma.c ****   */
 126:./Drivers/STM32F1xx_HAL_Driver/Src/stm32f1xx_hal_dma.c **** 
 127:./Drivers/STM32F1xx_HAL_Driver/Src/stm32f1xx_hal_dma.c **** /* Private macro -------------------------------------------------------------*/
 128:./Drivers/STM32F1xx_HAL_Driver/Src/stm32f1xx_hal_dma.c **** /* Private variables ---------------------------------------------------------*/
 129:./Drivers/STM32F1xx_HAL_Driver/Src/stm32f1xx_hal_dma.c **** /* Private function prototypes -----------------------------------------------*/
 130:./Drivers/STM32F1xx_HAL_Driver/Src/stm32f1xx_hal_dma.c **** /** @defgroup DMA_Private_Functions DMA Private Functions
 131:./Drivers/STM32F1xx_HAL_Driver/Src/stm32f1xx_hal_dma.c ****   * @{
 132:./Drivers/STM32F1xx_HAL_Driver/Src/stm32f1xx_hal_dma.c ****   */
 133:./Drivers/STM32F1xx_HAL_Driver/Src/stm32f1xx_hal_dma.c **** static void DMA_SetConfig(DMA_HandleTypeDef *hdma, uint32_t SrcAddress, uint32_t DstAddress, uint32
 134:./Drivers/STM32F1xx_HAL_Driver/Src/stm32f1xx_hal_dma.c **** /**
 135:./Drivers/STM32F1xx_HAL_Driver/Src/stm32f1xx_hal_dma.c ****   * @}
 136:./Drivers/STM32F1xx_HAL_Driver/Src/stm32f1xx_hal_dma.c ****   */
 137:./Drivers/STM32F1xx_HAL_Driver/Src/stm32f1xx_hal_dma.c **** 
 138:./Drivers/STM32F1xx_HAL_Driver/Src/stm32f1xx_hal_dma.c **** /* Exported functions ---------------------------------------------------------*/
 139:./Drivers/STM32F1xx_HAL_Driver/Src/stm32f1xx_hal_dma.c **** 
 140:./Drivers/STM32F1xx_HAL_Driver/Src/stm32f1xx_hal_dma.c **** /** @defgroup DMA_Exported_Functions DMA Exported Functions
 141:./Drivers/STM32F1xx_HAL_Driver/Src/stm32f1xx_hal_dma.c ****   * @{
 142:./Drivers/STM32F1xx_HAL_Driver/Src/stm32f1xx_hal_dma.c ****   */
 143:./Drivers/STM32F1xx_HAL_Driver/Src/stm32f1xx_hal_dma.c **** 
 144:./Drivers/STM32F1xx_HAL_Driver/Src/stm32f1xx_hal_dma.c **** /** @defgroup DMA_Exported_Functions_Group1 Initialization and de-initialization functions
 145:./Drivers/STM32F1xx_HAL_Driver/Src/stm32f1xx_hal_dma.c ****  *  @brief   Initialization and de-initialization functions 
 146:./Drivers/STM32F1xx_HAL_Driver/Src/stm32f1xx_hal_dma.c ****  *
 147:./Drivers/STM32F1xx_HAL_Driver/Src/stm32f1xx_hal_dma.c **** @verbatim   
 148:./Drivers/STM32F1xx_HAL_Driver/Src/stm32f1xx_hal_dma.c ****  ===============================================================================
ARM GAS  /tmp/ccBdMCBM.s 			page 4


 149:./Drivers/STM32F1xx_HAL_Driver/Src/stm32f1xx_hal_dma.c ****              ##### Initialization and de-initialization functions  #####
 150:./Drivers/STM32F1xx_HAL_Driver/Src/stm32f1xx_hal_dma.c ****  ===============================================================================  
 151:./Drivers/STM32F1xx_HAL_Driver/Src/stm32f1xx_hal_dma.c ****     [..]
 152:./Drivers/STM32F1xx_HAL_Driver/Src/stm32f1xx_hal_dma.c ****     This section provides functions allowing to initialize the DMA Channel source
 153:./Drivers/STM32F1xx_HAL_Driver/Src/stm32f1xx_hal_dma.c ****     and destination addresses, incrementation and data sizes, transfer direction, 
 154:./Drivers/STM32F1xx_HAL_Driver/Src/stm32f1xx_hal_dma.c ****     circular/normal mode selection, memory-to-memory mode selection and Channel priority value.
 155:./Drivers/STM32F1xx_HAL_Driver/Src/stm32f1xx_hal_dma.c ****     [..]
 156:./Drivers/STM32F1xx_HAL_Driver/Src/stm32f1xx_hal_dma.c ****     The HAL_DMA_Init() function follows the DMA configuration procedures as described in
 157:./Drivers/STM32F1xx_HAL_Driver/Src/stm32f1xx_hal_dma.c ****     reference manual.  
 158:./Drivers/STM32F1xx_HAL_Driver/Src/stm32f1xx_hal_dma.c **** 
 159:./Drivers/STM32F1xx_HAL_Driver/Src/stm32f1xx_hal_dma.c **** @endverbatim
 160:./Drivers/STM32F1xx_HAL_Driver/Src/stm32f1xx_hal_dma.c ****   * @{
 161:./Drivers/STM32F1xx_HAL_Driver/Src/stm32f1xx_hal_dma.c ****   */
 162:./Drivers/STM32F1xx_HAL_Driver/Src/stm32f1xx_hal_dma.c ****   
 163:./Drivers/STM32F1xx_HAL_Driver/Src/stm32f1xx_hal_dma.c **** /**
 164:./Drivers/STM32F1xx_HAL_Driver/Src/stm32f1xx_hal_dma.c ****   * @brief  Initializes the DMA according to the specified
 165:./Drivers/STM32F1xx_HAL_Driver/Src/stm32f1xx_hal_dma.c ****   *         parameters in the DMA_InitTypeDef and create the associated handle.
 166:./Drivers/STM32F1xx_HAL_Driver/Src/stm32f1xx_hal_dma.c ****   * @param  hdma: Pointer to a DMA_HandleTypeDef structure that contains
 167:./Drivers/STM32F1xx_HAL_Driver/Src/stm32f1xx_hal_dma.c ****   *               the configuration information for the specified DMA Channel.  
 168:./Drivers/STM32F1xx_HAL_Driver/Src/stm32f1xx_hal_dma.c ****   * @retval HAL status
 169:./Drivers/STM32F1xx_HAL_Driver/Src/stm32f1xx_hal_dma.c ****   */
 170:./Drivers/STM32F1xx_HAL_Driver/Src/stm32f1xx_hal_dma.c **** HAL_StatusTypeDef HAL_DMA_Init(DMA_HandleTypeDef *hdma)
 171:./Drivers/STM32F1xx_HAL_Driver/Src/stm32f1xx_hal_dma.c **** { 
 172:./Drivers/STM32F1xx_HAL_Driver/Src/stm32f1xx_hal_dma.c ****   uint32_t tmp = 0;
 173:./Drivers/STM32F1xx_HAL_Driver/Src/stm32f1xx_hal_dma.c ****   
 174:./Drivers/STM32F1xx_HAL_Driver/Src/stm32f1xx_hal_dma.c ****   /* Check the DMA handle allocation */
 175:./Drivers/STM32F1xx_HAL_Driver/Src/stm32f1xx_hal_dma.c ****   if(hdma == NULL)
 176:./Drivers/STM32F1xx_HAL_Driver/Src/stm32f1xx_hal_dma.c ****   {
 177:./Drivers/STM32F1xx_HAL_Driver/Src/stm32f1xx_hal_dma.c ****     return HAL_ERROR;
 178:./Drivers/STM32F1xx_HAL_Driver/Src/stm32f1xx_hal_dma.c ****   }
 179:./Drivers/STM32F1xx_HAL_Driver/Src/stm32f1xx_hal_dma.c ****   
 180:./Drivers/STM32F1xx_HAL_Driver/Src/stm32f1xx_hal_dma.c ****   /* Check the parameters */
 181:./Drivers/STM32F1xx_HAL_Driver/Src/stm32f1xx_hal_dma.c ****   assert_param(IS_DMA_ALL_INSTANCE(hdma->Instance));
 182:./Drivers/STM32F1xx_HAL_Driver/Src/stm32f1xx_hal_dma.c ****   assert_param(IS_DMA_DIRECTION(hdma->Init.Direction));
 183:./Drivers/STM32F1xx_HAL_Driver/Src/stm32f1xx_hal_dma.c ****   assert_param(IS_DMA_PERIPHERAL_INC_STATE(hdma->Init.PeriphInc));
 184:./Drivers/STM32F1xx_HAL_Driver/Src/stm32f1xx_hal_dma.c ****   assert_param(IS_DMA_MEMORY_INC_STATE(hdma->Init.MemInc));
 185:./Drivers/STM32F1xx_HAL_Driver/Src/stm32f1xx_hal_dma.c ****   assert_param(IS_DMA_PERIPHERAL_DATA_SIZE(hdma->Init.PeriphDataAlignment));
 186:./Drivers/STM32F1xx_HAL_Driver/Src/stm32f1xx_hal_dma.c ****   assert_param(IS_DMA_MEMORY_DATA_SIZE(hdma->Init.MemDataAlignment));
 187:./Drivers/STM32F1xx_HAL_Driver/Src/stm32f1xx_hal_dma.c ****   assert_param(IS_DMA_MODE(hdma->Init.Mode));
 188:./Drivers/STM32F1xx_HAL_Driver/Src/stm32f1xx_hal_dma.c ****   assert_param(IS_DMA_PRIORITY(hdma->Init.Priority));
 189:./Drivers/STM32F1xx_HAL_Driver/Src/stm32f1xx_hal_dma.c ****   
 190:./Drivers/STM32F1xx_HAL_Driver/Src/stm32f1xx_hal_dma.c ****   if(hdma->State == HAL_DMA_STATE_RESET)
 191:./Drivers/STM32F1xx_HAL_Driver/Src/stm32f1xx_hal_dma.c ****   {  
 192:./Drivers/STM32F1xx_HAL_Driver/Src/stm32f1xx_hal_dma.c ****     /* Allocate lock resource and initialize it */
 193:./Drivers/STM32F1xx_HAL_Driver/Src/stm32f1xx_hal_dma.c ****     hdma->Lock = HAL_UNLOCKED;
 194:./Drivers/STM32F1xx_HAL_Driver/Src/stm32f1xx_hal_dma.c ****   }
 195:./Drivers/STM32F1xx_HAL_Driver/Src/stm32f1xx_hal_dma.c ****   
 196:./Drivers/STM32F1xx_HAL_Driver/Src/stm32f1xx_hal_dma.c ****   /* Change DMA peripheral state */
 197:./Drivers/STM32F1xx_HAL_Driver/Src/stm32f1xx_hal_dma.c ****   hdma->State = HAL_DMA_STATE_BUSY;
 198:./Drivers/STM32F1xx_HAL_Driver/Src/stm32f1xx_hal_dma.c **** 
 199:./Drivers/STM32F1xx_HAL_Driver/Src/stm32f1xx_hal_dma.c ****   /* Get the CR register value */
 200:./Drivers/STM32F1xx_HAL_Driver/Src/stm32f1xx_hal_dma.c ****   tmp = hdma->Instance->CCR;
 201:./Drivers/STM32F1xx_HAL_Driver/Src/stm32f1xx_hal_dma.c ****   
 202:./Drivers/STM32F1xx_HAL_Driver/Src/stm32f1xx_hal_dma.c ****   /* Clear PL, MSIZE, PSIZE, MINC, PINC, CIRC, DIR bits */
 203:./Drivers/STM32F1xx_HAL_Driver/Src/stm32f1xx_hal_dma.c ****   tmp &= ((uint32_t)~(DMA_CCR_PL    | DMA_CCR_MSIZE  | DMA_CCR_PSIZE  | \
 204:./Drivers/STM32F1xx_HAL_Driver/Src/stm32f1xx_hal_dma.c ****                       DMA_CCR_MINC  | DMA_CCR_PINC   | DMA_CCR_CIRC   | \
 205:./Drivers/STM32F1xx_HAL_Driver/Src/stm32f1xx_hal_dma.c ****                       DMA_CCR_DIR));
ARM GAS  /tmp/ccBdMCBM.s 			page 5


 206:./Drivers/STM32F1xx_HAL_Driver/Src/stm32f1xx_hal_dma.c ****   
 207:./Drivers/STM32F1xx_HAL_Driver/Src/stm32f1xx_hal_dma.c ****   /* Prepare the DMA Channel configuration */
 208:./Drivers/STM32F1xx_HAL_Driver/Src/stm32f1xx_hal_dma.c ****   tmp |=  hdma->Init.Direction        |
 209:./Drivers/STM32F1xx_HAL_Driver/Src/stm32f1xx_hal_dma.c ****           hdma->Init.PeriphInc           | hdma->Init.MemInc           |
 210:./Drivers/STM32F1xx_HAL_Driver/Src/stm32f1xx_hal_dma.c ****           hdma->Init.PeriphDataAlignment | hdma->Init.MemDataAlignment |
 211:./Drivers/STM32F1xx_HAL_Driver/Src/stm32f1xx_hal_dma.c ****           hdma->Init.Mode                | hdma->Init.Priority;
 212:./Drivers/STM32F1xx_HAL_Driver/Src/stm32f1xx_hal_dma.c **** 
 213:./Drivers/STM32F1xx_HAL_Driver/Src/stm32f1xx_hal_dma.c ****   /* Write to DMA Channel CR register */
 214:./Drivers/STM32F1xx_HAL_Driver/Src/stm32f1xx_hal_dma.c ****   hdma->Instance->CCR = tmp;  
 215:./Drivers/STM32F1xx_HAL_Driver/Src/stm32f1xx_hal_dma.c ****   
 216:./Drivers/STM32F1xx_HAL_Driver/Src/stm32f1xx_hal_dma.c ****   /* Initialise the error code */
 217:./Drivers/STM32F1xx_HAL_Driver/Src/stm32f1xx_hal_dma.c ****   hdma->ErrorCode = HAL_DMA_ERROR_NONE;
 218:./Drivers/STM32F1xx_HAL_Driver/Src/stm32f1xx_hal_dma.c **** 
 219:./Drivers/STM32F1xx_HAL_Driver/Src/stm32f1xx_hal_dma.c ****   /* Initialize the DMA state*/
 220:./Drivers/STM32F1xx_HAL_Driver/Src/stm32f1xx_hal_dma.c ****   hdma->State = HAL_DMA_STATE_READY;
 221:./Drivers/STM32F1xx_HAL_Driver/Src/stm32f1xx_hal_dma.c ****   
 222:./Drivers/STM32F1xx_HAL_Driver/Src/stm32f1xx_hal_dma.c ****   return HAL_OK;
 223:./Drivers/STM32F1xx_HAL_Driver/Src/stm32f1xx_hal_dma.c **** }
 224:./Drivers/STM32F1xx_HAL_Driver/Src/stm32f1xx_hal_dma.c **** 
 225:./Drivers/STM32F1xx_HAL_Driver/Src/stm32f1xx_hal_dma.c **** /**
 226:./Drivers/STM32F1xx_HAL_Driver/Src/stm32f1xx_hal_dma.c ****   * @brief  DeInitializes the DMA peripheral 
 227:./Drivers/STM32F1xx_HAL_Driver/Src/stm32f1xx_hal_dma.c ****   * @param  hdma: pointer to a DMA_HandleTypeDef structure that contains
 228:./Drivers/STM32F1xx_HAL_Driver/Src/stm32f1xx_hal_dma.c ****   *               the configuration information for the specified DMA Channel.  
 229:./Drivers/STM32F1xx_HAL_Driver/Src/stm32f1xx_hal_dma.c ****   * @retval HAL status
 230:./Drivers/STM32F1xx_HAL_Driver/Src/stm32f1xx_hal_dma.c ****   */
 231:./Drivers/STM32F1xx_HAL_Driver/Src/stm32f1xx_hal_dma.c **** HAL_StatusTypeDef HAL_DMA_DeInit(DMA_HandleTypeDef *hdma)
 232:./Drivers/STM32F1xx_HAL_Driver/Src/stm32f1xx_hal_dma.c **** {
 233:./Drivers/STM32F1xx_HAL_Driver/Src/stm32f1xx_hal_dma.c ****   /* Check the DMA handle allocation */
 234:./Drivers/STM32F1xx_HAL_Driver/Src/stm32f1xx_hal_dma.c ****   if(hdma == NULL)
 235:./Drivers/STM32F1xx_HAL_Driver/Src/stm32f1xx_hal_dma.c ****   {
 236:./Drivers/STM32F1xx_HAL_Driver/Src/stm32f1xx_hal_dma.c ****     return HAL_ERROR;
 237:./Drivers/STM32F1xx_HAL_Driver/Src/stm32f1xx_hal_dma.c ****   }
 238:./Drivers/STM32F1xx_HAL_Driver/Src/stm32f1xx_hal_dma.c ****   
 239:./Drivers/STM32F1xx_HAL_Driver/Src/stm32f1xx_hal_dma.c ****   /* Check the parameters */
 240:./Drivers/STM32F1xx_HAL_Driver/Src/stm32f1xx_hal_dma.c ****   assert_param(IS_DMA_ALL_INSTANCE(hdma->Instance));
 241:./Drivers/STM32F1xx_HAL_Driver/Src/stm32f1xx_hal_dma.c **** 
 242:./Drivers/STM32F1xx_HAL_Driver/Src/stm32f1xx_hal_dma.c ****   /* Check the DMA peripheral state */
 243:./Drivers/STM32F1xx_HAL_Driver/Src/stm32f1xx_hal_dma.c ****   if(hdma->State == HAL_DMA_STATE_BUSY)
 244:./Drivers/STM32F1xx_HAL_Driver/Src/stm32f1xx_hal_dma.c ****   {
 245:./Drivers/STM32F1xx_HAL_Driver/Src/stm32f1xx_hal_dma.c ****      return HAL_ERROR;
 246:./Drivers/STM32F1xx_HAL_Driver/Src/stm32f1xx_hal_dma.c ****   }
 247:./Drivers/STM32F1xx_HAL_Driver/Src/stm32f1xx_hal_dma.c **** 
 248:./Drivers/STM32F1xx_HAL_Driver/Src/stm32f1xx_hal_dma.c ****   /* Disable the selected DMA Channelx */
 249:./Drivers/STM32F1xx_HAL_Driver/Src/stm32f1xx_hal_dma.c ****   __HAL_DMA_DISABLE(hdma);
 250:./Drivers/STM32F1xx_HAL_Driver/Src/stm32f1xx_hal_dma.c ****   
 251:./Drivers/STM32F1xx_HAL_Driver/Src/stm32f1xx_hal_dma.c ****   /* Reset DMA Channel control register */
 252:./Drivers/STM32F1xx_HAL_Driver/Src/stm32f1xx_hal_dma.c ****   hdma->Instance->CCR  = 0;
 253:./Drivers/STM32F1xx_HAL_Driver/Src/stm32f1xx_hal_dma.c ****   
 254:./Drivers/STM32F1xx_HAL_Driver/Src/stm32f1xx_hal_dma.c ****   /* Reset DMA Channel Number of Data to Transfer register */
 255:./Drivers/STM32F1xx_HAL_Driver/Src/stm32f1xx_hal_dma.c ****   hdma->Instance->CNDTR = 0;
 256:./Drivers/STM32F1xx_HAL_Driver/Src/stm32f1xx_hal_dma.c ****   
 257:./Drivers/STM32F1xx_HAL_Driver/Src/stm32f1xx_hal_dma.c ****   /* Reset DMA Channel peripheral address register */
 258:./Drivers/STM32F1xx_HAL_Driver/Src/stm32f1xx_hal_dma.c ****   hdma->Instance->CPAR  = 0;
 259:./Drivers/STM32F1xx_HAL_Driver/Src/stm32f1xx_hal_dma.c ****   
 260:./Drivers/STM32F1xx_HAL_Driver/Src/stm32f1xx_hal_dma.c ****   /* Reset DMA Channel memory address register */
 261:./Drivers/STM32F1xx_HAL_Driver/Src/stm32f1xx_hal_dma.c ****   hdma->Instance->CMAR = 0;
 262:./Drivers/STM32F1xx_HAL_Driver/Src/stm32f1xx_hal_dma.c **** 
ARM GAS  /tmp/ccBdMCBM.s 			page 6


 263:./Drivers/STM32F1xx_HAL_Driver/Src/stm32f1xx_hal_dma.c ****   /* Clear all flags */
 264:./Drivers/STM32F1xx_HAL_Driver/Src/stm32f1xx_hal_dma.c ****   __HAL_DMA_CLEAR_FLAG(hdma, __HAL_DMA_GET_TC_FLAG_INDEX(hdma));
 265:./Drivers/STM32F1xx_HAL_Driver/Src/stm32f1xx_hal_dma.c ****   __HAL_DMA_CLEAR_FLAG(hdma, __HAL_DMA_GET_TE_FLAG_INDEX(hdma));
 266:./Drivers/STM32F1xx_HAL_Driver/Src/stm32f1xx_hal_dma.c ****   __HAL_DMA_CLEAR_FLAG(hdma, __HAL_DMA_GET_HT_FLAG_INDEX(hdma));
 267:./Drivers/STM32F1xx_HAL_Driver/Src/stm32f1xx_hal_dma.c ****   
 268:./Drivers/STM32F1xx_HAL_Driver/Src/stm32f1xx_hal_dma.c ****   /* Initialize the error code */
 269:./Drivers/STM32F1xx_HAL_Driver/Src/stm32f1xx_hal_dma.c ****   hdma->ErrorCode = HAL_DMA_ERROR_NONE;
 270:./Drivers/STM32F1xx_HAL_Driver/Src/stm32f1xx_hal_dma.c **** 
 271:./Drivers/STM32F1xx_HAL_Driver/Src/stm32f1xx_hal_dma.c ****   /* Initialize the DMA state */
 272:./Drivers/STM32F1xx_HAL_Driver/Src/stm32f1xx_hal_dma.c ****   hdma->State = HAL_DMA_STATE_RESET;
 273:./Drivers/STM32F1xx_HAL_Driver/Src/stm32f1xx_hal_dma.c **** 
 274:./Drivers/STM32F1xx_HAL_Driver/Src/stm32f1xx_hal_dma.c ****   /* Release Lock */
 275:./Drivers/STM32F1xx_HAL_Driver/Src/stm32f1xx_hal_dma.c ****   __HAL_UNLOCK(hdma);
 276:./Drivers/STM32F1xx_HAL_Driver/Src/stm32f1xx_hal_dma.c **** 
 277:./Drivers/STM32F1xx_HAL_Driver/Src/stm32f1xx_hal_dma.c ****   return HAL_OK;
 278:./Drivers/STM32F1xx_HAL_Driver/Src/stm32f1xx_hal_dma.c **** }
 279:./Drivers/STM32F1xx_HAL_Driver/Src/stm32f1xx_hal_dma.c **** 
 280:./Drivers/STM32F1xx_HAL_Driver/Src/stm32f1xx_hal_dma.c **** /**
 281:./Drivers/STM32F1xx_HAL_Driver/Src/stm32f1xx_hal_dma.c ****   * @}
 282:./Drivers/STM32F1xx_HAL_Driver/Src/stm32f1xx_hal_dma.c ****   */
 283:./Drivers/STM32F1xx_HAL_Driver/Src/stm32f1xx_hal_dma.c **** 
 284:./Drivers/STM32F1xx_HAL_Driver/Src/stm32f1xx_hal_dma.c **** /** @defgroup DMA_Exported_Functions_Group2 Input and Output operation functions 
 285:./Drivers/STM32F1xx_HAL_Driver/Src/stm32f1xx_hal_dma.c ****  *  @brief   I/O operation functions  
 286:./Drivers/STM32F1xx_HAL_Driver/Src/stm32f1xx_hal_dma.c ****  *
 287:./Drivers/STM32F1xx_HAL_Driver/Src/stm32f1xx_hal_dma.c **** @verbatim   
 288:./Drivers/STM32F1xx_HAL_Driver/Src/stm32f1xx_hal_dma.c ****  ===============================================================================
 289:./Drivers/STM32F1xx_HAL_Driver/Src/stm32f1xx_hal_dma.c ****                       #####  IO operation functions  #####
 290:./Drivers/STM32F1xx_HAL_Driver/Src/stm32f1xx_hal_dma.c ****  ===============================================================================  
 291:./Drivers/STM32F1xx_HAL_Driver/Src/stm32f1xx_hal_dma.c ****     [..]  This section provides functions allowing to:
 292:./Drivers/STM32F1xx_HAL_Driver/Src/stm32f1xx_hal_dma.c ****       (+) Configure the source, destination address and data length and Start DMA transfer
 293:./Drivers/STM32F1xx_HAL_Driver/Src/stm32f1xx_hal_dma.c ****       (+) Configure the source, destination address and data length and 
 294:./Drivers/STM32F1xx_HAL_Driver/Src/stm32f1xx_hal_dma.c ****           Start DMA transfer with interrupt
 295:./Drivers/STM32F1xx_HAL_Driver/Src/stm32f1xx_hal_dma.c ****       (+) Abort DMA transfer
 296:./Drivers/STM32F1xx_HAL_Driver/Src/stm32f1xx_hal_dma.c ****       (+) Poll for transfer complete
 297:./Drivers/STM32F1xx_HAL_Driver/Src/stm32f1xx_hal_dma.c ****       (+) Handle DMA interrupt request  
 298:./Drivers/STM32F1xx_HAL_Driver/Src/stm32f1xx_hal_dma.c **** 
 299:./Drivers/STM32F1xx_HAL_Driver/Src/stm32f1xx_hal_dma.c **** @endverbatim
 300:./Drivers/STM32F1xx_HAL_Driver/Src/stm32f1xx_hal_dma.c ****   * @{
 301:./Drivers/STM32F1xx_HAL_Driver/Src/stm32f1xx_hal_dma.c ****   */
 302:./Drivers/STM32F1xx_HAL_Driver/Src/stm32f1xx_hal_dma.c **** 
 303:./Drivers/STM32F1xx_HAL_Driver/Src/stm32f1xx_hal_dma.c **** /**
 304:./Drivers/STM32F1xx_HAL_Driver/Src/stm32f1xx_hal_dma.c ****   * @brief  Starts the DMA Transfer.
 305:./Drivers/STM32F1xx_HAL_Driver/Src/stm32f1xx_hal_dma.c ****   * @param  hdma      : pointer to a DMA_HandleTypeDef structure that contains
 306:./Drivers/STM32F1xx_HAL_Driver/Src/stm32f1xx_hal_dma.c ****   *                     the configuration information for the specified DMA Channel.  
 307:./Drivers/STM32F1xx_HAL_Driver/Src/stm32f1xx_hal_dma.c ****   * @param  SrcAddress: The source memory Buffer address
 308:./Drivers/STM32F1xx_HAL_Driver/Src/stm32f1xx_hal_dma.c ****   * @param  DstAddress: The destination memory Buffer address
 309:./Drivers/STM32F1xx_HAL_Driver/Src/stm32f1xx_hal_dma.c ****   * @param  DataLength: The length of data to be transferred from source to destination
 310:./Drivers/STM32F1xx_HAL_Driver/Src/stm32f1xx_hal_dma.c ****   * @retval HAL status
 311:./Drivers/STM32F1xx_HAL_Driver/Src/stm32f1xx_hal_dma.c ****   */
 312:./Drivers/STM32F1xx_HAL_Driver/Src/stm32f1xx_hal_dma.c **** HAL_StatusTypeDef HAL_DMA_Start(DMA_HandleTypeDef *hdma, uint32_t SrcAddress, uint32_t DstAddress, 
 313:./Drivers/STM32F1xx_HAL_Driver/Src/stm32f1xx_hal_dma.c **** {
 314:./Drivers/STM32F1xx_HAL_Driver/Src/stm32f1xx_hal_dma.c ****   /* Process locked */
 315:./Drivers/STM32F1xx_HAL_Driver/Src/stm32f1xx_hal_dma.c ****   __HAL_LOCK(hdma);
 316:./Drivers/STM32F1xx_HAL_Driver/Src/stm32f1xx_hal_dma.c **** 
 317:./Drivers/STM32F1xx_HAL_Driver/Src/stm32f1xx_hal_dma.c ****   /* Change DMA peripheral state */
 318:./Drivers/STM32F1xx_HAL_Driver/Src/stm32f1xx_hal_dma.c ****   hdma->State = HAL_DMA_STATE_BUSY;
 319:./Drivers/STM32F1xx_HAL_Driver/Src/stm32f1xx_hal_dma.c **** 
ARM GAS  /tmp/ccBdMCBM.s 			page 7


 320:./Drivers/STM32F1xx_HAL_Driver/Src/stm32f1xx_hal_dma.c ****    /* Check the parameters */
 321:./Drivers/STM32F1xx_HAL_Driver/Src/stm32f1xx_hal_dma.c ****   assert_param(IS_DMA_BUFFER_SIZE(DataLength));
 322:./Drivers/STM32F1xx_HAL_Driver/Src/stm32f1xx_hal_dma.c ****   
 323:./Drivers/STM32F1xx_HAL_Driver/Src/stm32f1xx_hal_dma.c ****   /* Disable the peripheral */
 324:./Drivers/STM32F1xx_HAL_Driver/Src/stm32f1xx_hal_dma.c ****   __HAL_DMA_DISABLE(hdma);
 325:./Drivers/STM32F1xx_HAL_Driver/Src/stm32f1xx_hal_dma.c ****   
 326:./Drivers/STM32F1xx_HAL_Driver/Src/stm32f1xx_hal_dma.c ****   /* Configure the source, destination address and the data length */
 327:./Drivers/STM32F1xx_HAL_Driver/Src/stm32f1xx_hal_dma.c ****   DMA_SetConfig(hdma, SrcAddress, DstAddress, DataLength);
 328:./Drivers/STM32F1xx_HAL_Driver/Src/stm32f1xx_hal_dma.c **** 
 329:./Drivers/STM32F1xx_HAL_Driver/Src/stm32f1xx_hal_dma.c ****   /* Enable the Peripheral */
 330:./Drivers/STM32F1xx_HAL_Driver/Src/stm32f1xx_hal_dma.c ****   __HAL_DMA_ENABLE(hdma);
 331:./Drivers/STM32F1xx_HAL_Driver/Src/stm32f1xx_hal_dma.c **** 
 332:./Drivers/STM32F1xx_HAL_Driver/Src/stm32f1xx_hal_dma.c ****   return HAL_OK; 
 333:./Drivers/STM32F1xx_HAL_Driver/Src/stm32f1xx_hal_dma.c **** }
 334:./Drivers/STM32F1xx_HAL_Driver/Src/stm32f1xx_hal_dma.c **** 
 335:./Drivers/STM32F1xx_HAL_Driver/Src/stm32f1xx_hal_dma.c **** /**
 336:./Drivers/STM32F1xx_HAL_Driver/Src/stm32f1xx_hal_dma.c ****   * @brief  Start the DMA Transfer with interrupt enabled.
 337:./Drivers/STM32F1xx_HAL_Driver/Src/stm32f1xx_hal_dma.c ****   * @param  hdma:       pointer to a DMA_HandleTypeDef structure that contains
 338:./Drivers/STM32F1xx_HAL_Driver/Src/stm32f1xx_hal_dma.c ****   *                     the configuration information for the specified DMA Channel.  
 339:./Drivers/STM32F1xx_HAL_Driver/Src/stm32f1xx_hal_dma.c ****   * @param  SrcAddress: The source memory Buffer address
 340:./Drivers/STM32F1xx_HAL_Driver/Src/stm32f1xx_hal_dma.c ****   * @param  DstAddress: The destination memory Buffer address
 341:./Drivers/STM32F1xx_HAL_Driver/Src/stm32f1xx_hal_dma.c ****   * @param  DataLength: The length of data to be transferred from source to destination
 342:./Drivers/STM32F1xx_HAL_Driver/Src/stm32f1xx_hal_dma.c ****   * @retval HAL status
 343:./Drivers/STM32F1xx_HAL_Driver/Src/stm32f1xx_hal_dma.c ****   */
 344:./Drivers/STM32F1xx_HAL_Driver/Src/stm32f1xx_hal_dma.c **** HAL_StatusTypeDef HAL_DMA_Start_IT(DMA_HandleTypeDef *hdma, uint32_t SrcAddress, uint32_t DstAddres
 345:./Drivers/STM32F1xx_HAL_Driver/Src/stm32f1xx_hal_dma.c **** {
 346:./Drivers/STM32F1xx_HAL_Driver/Src/stm32f1xx_hal_dma.c ****   /* Process locked */
 347:./Drivers/STM32F1xx_HAL_Driver/Src/stm32f1xx_hal_dma.c ****   __HAL_LOCK(hdma);
 348:./Drivers/STM32F1xx_HAL_Driver/Src/stm32f1xx_hal_dma.c **** 
 349:./Drivers/STM32F1xx_HAL_Driver/Src/stm32f1xx_hal_dma.c ****   /* Change DMA peripheral state */
 350:./Drivers/STM32F1xx_HAL_Driver/Src/stm32f1xx_hal_dma.c ****   hdma->State = HAL_DMA_STATE_BUSY;
 351:./Drivers/STM32F1xx_HAL_Driver/Src/stm32f1xx_hal_dma.c **** 
 352:./Drivers/STM32F1xx_HAL_Driver/Src/stm32f1xx_hal_dma.c ****    /* Check the parameters */
 353:./Drivers/STM32F1xx_HAL_Driver/Src/stm32f1xx_hal_dma.c ****   assert_param(IS_DMA_BUFFER_SIZE(DataLength));
 354:./Drivers/STM32F1xx_HAL_Driver/Src/stm32f1xx_hal_dma.c ****   
 355:./Drivers/STM32F1xx_HAL_Driver/Src/stm32f1xx_hal_dma.c ****   /* Disable the peripheral */
 356:./Drivers/STM32F1xx_HAL_Driver/Src/stm32f1xx_hal_dma.c ****   __HAL_DMA_DISABLE(hdma);
 357:./Drivers/STM32F1xx_HAL_Driver/Src/stm32f1xx_hal_dma.c ****   
 358:./Drivers/STM32F1xx_HAL_Driver/Src/stm32f1xx_hal_dma.c ****   /* Configure the source, destination address and the data length */
 359:./Drivers/STM32F1xx_HAL_Driver/Src/stm32f1xx_hal_dma.c ****   DMA_SetConfig(hdma, SrcAddress, DstAddress, DataLength);
 360:./Drivers/STM32F1xx_HAL_Driver/Src/stm32f1xx_hal_dma.c ****   
 361:./Drivers/STM32F1xx_HAL_Driver/Src/stm32f1xx_hal_dma.c ****   /* Enable the transfer complete interrupt */
 362:./Drivers/STM32F1xx_HAL_Driver/Src/stm32f1xx_hal_dma.c ****   __HAL_DMA_ENABLE_IT(hdma, DMA_IT_TC);
 363:./Drivers/STM32F1xx_HAL_Driver/Src/stm32f1xx_hal_dma.c **** 
 364:./Drivers/STM32F1xx_HAL_Driver/Src/stm32f1xx_hal_dma.c ****   /* Enable the Half transfer complete interrupt */
 365:./Drivers/STM32F1xx_HAL_Driver/Src/stm32f1xx_hal_dma.c ****   __HAL_DMA_ENABLE_IT(hdma, DMA_IT_HT);  
 366:./Drivers/STM32F1xx_HAL_Driver/Src/stm32f1xx_hal_dma.c **** 
 367:./Drivers/STM32F1xx_HAL_Driver/Src/stm32f1xx_hal_dma.c ****   /* Enable the transfer Error interrupt */
 368:./Drivers/STM32F1xx_HAL_Driver/Src/stm32f1xx_hal_dma.c ****   __HAL_DMA_ENABLE_IT(hdma, DMA_IT_TE);
 369:./Drivers/STM32F1xx_HAL_Driver/Src/stm32f1xx_hal_dma.c ****   
 370:./Drivers/STM32F1xx_HAL_Driver/Src/stm32f1xx_hal_dma.c ****    /* Enable the Peripheral */
 371:./Drivers/STM32F1xx_HAL_Driver/Src/stm32f1xx_hal_dma.c ****   __HAL_DMA_ENABLE(hdma);
 372:./Drivers/STM32F1xx_HAL_Driver/Src/stm32f1xx_hal_dma.c ****   
 373:./Drivers/STM32F1xx_HAL_Driver/Src/stm32f1xx_hal_dma.c ****   return HAL_OK;
 374:./Drivers/STM32F1xx_HAL_Driver/Src/stm32f1xx_hal_dma.c **** } 
 375:./Drivers/STM32F1xx_HAL_Driver/Src/stm32f1xx_hal_dma.c **** 
 376:./Drivers/STM32F1xx_HAL_Driver/Src/stm32f1xx_hal_dma.c **** /**
ARM GAS  /tmp/ccBdMCBM.s 			page 8


 377:./Drivers/STM32F1xx_HAL_Driver/Src/stm32f1xx_hal_dma.c ****   * @brief  Aborts the DMA Transfer.
 378:./Drivers/STM32F1xx_HAL_Driver/Src/stm32f1xx_hal_dma.c ****   * @param  hdma  : pointer to a DMA_HandleTypeDef structure that contains
 379:./Drivers/STM32F1xx_HAL_Driver/Src/stm32f1xx_hal_dma.c ****   *                 the configuration information for the specified DMA Channel.
 380:./Drivers/STM32F1xx_HAL_Driver/Src/stm32f1xx_hal_dma.c ****   *                   
 381:./Drivers/STM32F1xx_HAL_Driver/Src/stm32f1xx_hal_dma.c ****   * @note  After disabling a DMA Channel, a check for wait until the DMA Channel is 
 382:./Drivers/STM32F1xx_HAL_Driver/Src/stm32f1xx_hal_dma.c ****   *        effectively disabled is added. If a Channel is disabled 
 383:./Drivers/STM32F1xx_HAL_Driver/Src/stm32f1xx_hal_dma.c ****   *        while a data transfer is ongoing, the current data will be transferred
 384:./Drivers/STM32F1xx_HAL_Driver/Src/stm32f1xx_hal_dma.c ****   *        and the Channel will be effectively disabled only after the transfer of
 385:./Drivers/STM32F1xx_HAL_Driver/Src/stm32f1xx_hal_dma.c ****   *        this single data is finished.  
 386:./Drivers/STM32F1xx_HAL_Driver/Src/stm32f1xx_hal_dma.c ****   * @retval HAL status
 387:./Drivers/STM32F1xx_HAL_Driver/Src/stm32f1xx_hal_dma.c ****   */
 388:./Drivers/STM32F1xx_HAL_Driver/Src/stm32f1xx_hal_dma.c **** HAL_StatusTypeDef HAL_DMA_Abort(DMA_HandleTypeDef *hdma)
 389:./Drivers/STM32F1xx_HAL_Driver/Src/stm32f1xx_hal_dma.c **** {
 390:./Drivers/STM32F1xx_HAL_Driver/Src/stm32f1xx_hal_dma.c ****   uint32_t tickstart = 0x00;
 391:./Drivers/STM32F1xx_HAL_Driver/Src/stm32f1xx_hal_dma.c ****   
 392:./Drivers/STM32F1xx_HAL_Driver/Src/stm32f1xx_hal_dma.c ****   /* Disable the channel */
 393:./Drivers/STM32F1xx_HAL_Driver/Src/stm32f1xx_hal_dma.c ****   __HAL_DMA_DISABLE(hdma);
 394:./Drivers/STM32F1xx_HAL_Driver/Src/stm32f1xx_hal_dma.c **** 
 395:./Drivers/STM32F1xx_HAL_Driver/Src/stm32f1xx_hal_dma.c ****   /* Get tick */
 396:./Drivers/STM32F1xx_HAL_Driver/Src/stm32f1xx_hal_dma.c ****   tickstart = HAL_GetTick();
 397:./Drivers/STM32F1xx_HAL_Driver/Src/stm32f1xx_hal_dma.c ****   
 398:./Drivers/STM32F1xx_HAL_Driver/Src/stm32f1xx_hal_dma.c ****   /* Check if the DMA Channel is effectively disabled */
 399:./Drivers/STM32F1xx_HAL_Driver/Src/stm32f1xx_hal_dma.c ****   while((hdma->Instance->CCR & DMA_CCR_EN) != 0)
 400:./Drivers/STM32F1xx_HAL_Driver/Src/stm32f1xx_hal_dma.c ****   {
 401:./Drivers/STM32F1xx_HAL_Driver/Src/stm32f1xx_hal_dma.c ****     /* Check for the Timeout */
 402:./Drivers/STM32F1xx_HAL_Driver/Src/stm32f1xx_hal_dma.c ****     if((HAL_GetTick() - tickstart) > HAL_TIMEOUT_DMA_ABORT)
 403:./Drivers/STM32F1xx_HAL_Driver/Src/stm32f1xx_hal_dma.c ****     {
 404:./Drivers/STM32F1xx_HAL_Driver/Src/stm32f1xx_hal_dma.c ****       /* Update error code */
 405:./Drivers/STM32F1xx_HAL_Driver/Src/stm32f1xx_hal_dma.c ****       SET_BIT(hdma->ErrorCode, HAL_DMA_ERROR_TIMEOUT);
 406:./Drivers/STM32F1xx_HAL_Driver/Src/stm32f1xx_hal_dma.c **** 
 407:./Drivers/STM32F1xx_HAL_Driver/Src/stm32f1xx_hal_dma.c ****       /* Change the DMA state */
 408:./Drivers/STM32F1xx_HAL_Driver/Src/stm32f1xx_hal_dma.c ****       hdma->State = HAL_DMA_STATE_TIMEOUT;
 409:./Drivers/STM32F1xx_HAL_Driver/Src/stm32f1xx_hal_dma.c **** 
 410:./Drivers/STM32F1xx_HAL_Driver/Src/stm32f1xx_hal_dma.c ****       /* Process Unlocked */
 411:./Drivers/STM32F1xx_HAL_Driver/Src/stm32f1xx_hal_dma.c ****       __HAL_UNLOCK(hdma);
 412:./Drivers/STM32F1xx_HAL_Driver/Src/stm32f1xx_hal_dma.c **** 
 413:./Drivers/STM32F1xx_HAL_Driver/Src/stm32f1xx_hal_dma.c ****       return HAL_TIMEOUT;
 414:./Drivers/STM32F1xx_HAL_Driver/Src/stm32f1xx_hal_dma.c ****     }
 415:./Drivers/STM32F1xx_HAL_Driver/Src/stm32f1xx_hal_dma.c ****   }
 416:./Drivers/STM32F1xx_HAL_Driver/Src/stm32f1xx_hal_dma.c ****   /* Change the DMA state */
 417:./Drivers/STM32F1xx_HAL_Driver/Src/stm32f1xx_hal_dma.c ****   hdma->State = HAL_DMA_STATE_READY;
 418:./Drivers/STM32F1xx_HAL_Driver/Src/stm32f1xx_hal_dma.c ****   
 419:./Drivers/STM32F1xx_HAL_Driver/Src/stm32f1xx_hal_dma.c ****   /* Process Unlocked */
 420:./Drivers/STM32F1xx_HAL_Driver/Src/stm32f1xx_hal_dma.c ****   __HAL_UNLOCK(hdma);
 421:./Drivers/STM32F1xx_HAL_Driver/Src/stm32f1xx_hal_dma.c ****   
 422:./Drivers/STM32F1xx_HAL_Driver/Src/stm32f1xx_hal_dma.c ****   return HAL_OK;
 423:./Drivers/STM32F1xx_HAL_Driver/Src/stm32f1xx_hal_dma.c **** }
 424:./Drivers/STM32F1xx_HAL_Driver/Src/stm32f1xx_hal_dma.c **** 
 425:./Drivers/STM32F1xx_HAL_Driver/Src/stm32f1xx_hal_dma.c **** /**
 426:./Drivers/STM32F1xx_HAL_Driver/Src/stm32f1xx_hal_dma.c ****   * @brief  Polling for transfer complete.
 427:./Drivers/STM32F1xx_HAL_Driver/Src/stm32f1xx_hal_dma.c ****   * @param  hdma:    pointer to a DMA_HandleTypeDef structure that contains
 428:./Drivers/STM32F1xx_HAL_Driver/Src/stm32f1xx_hal_dma.c ****   *                  the configuration information for the specified DMA Channel.
 429:./Drivers/STM32F1xx_HAL_Driver/Src/stm32f1xx_hal_dma.c ****   * @param  CompleteLevel: Specifies the DMA level complete.  
 430:./Drivers/STM32F1xx_HAL_Driver/Src/stm32f1xx_hal_dma.c ****   * @param  Timeout:       Timeout duration.
 431:./Drivers/STM32F1xx_HAL_Driver/Src/stm32f1xx_hal_dma.c ****   * @retval HAL status
 432:./Drivers/STM32F1xx_HAL_Driver/Src/stm32f1xx_hal_dma.c ****   */
 433:./Drivers/STM32F1xx_HAL_Driver/Src/stm32f1xx_hal_dma.c **** HAL_StatusTypeDef HAL_DMA_PollForTransfer(DMA_HandleTypeDef *hdma, uint32_t CompleteLevel, uint32_t
ARM GAS  /tmp/ccBdMCBM.s 			page 9


 434:./Drivers/STM32F1xx_HAL_Driver/Src/stm32f1xx_hal_dma.c **** {
 435:./Drivers/STM32F1xx_HAL_Driver/Src/stm32f1xx_hal_dma.c ****   uint32_t temp;
 436:./Drivers/STM32F1xx_HAL_Driver/Src/stm32f1xx_hal_dma.c ****   uint32_t tickstart = 0x00;
 437:./Drivers/STM32F1xx_HAL_Driver/Src/stm32f1xx_hal_dma.c ****   
 438:./Drivers/STM32F1xx_HAL_Driver/Src/stm32f1xx_hal_dma.c ****   /* Get the level transfer complete flag */
 439:./Drivers/STM32F1xx_HAL_Driver/Src/stm32f1xx_hal_dma.c ****   if(CompleteLevel == HAL_DMA_FULL_TRANSFER)
 440:./Drivers/STM32F1xx_HAL_Driver/Src/stm32f1xx_hal_dma.c ****   {
 441:./Drivers/STM32F1xx_HAL_Driver/Src/stm32f1xx_hal_dma.c ****     /* Transfer Complete flag */
 442:./Drivers/STM32F1xx_HAL_Driver/Src/stm32f1xx_hal_dma.c ****     temp = __HAL_DMA_GET_TC_FLAG_INDEX(hdma);
 443:./Drivers/STM32F1xx_HAL_Driver/Src/stm32f1xx_hal_dma.c ****   }
 444:./Drivers/STM32F1xx_HAL_Driver/Src/stm32f1xx_hal_dma.c ****   else
 445:./Drivers/STM32F1xx_HAL_Driver/Src/stm32f1xx_hal_dma.c ****   {
 446:./Drivers/STM32F1xx_HAL_Driver/Src/stm32f1xx_hal_dma.c ****     /* Half Transfer Complete flag */
 447:./Drivers/STM32F1xx_HAL_Driver/Src/stm32f1xx_hal_dma.c ****     temp = __HAL_DMA_GET_HT_FLAG_INDEX(hdma);
 448:./Drivers/STM32F1xx_HAL_Driver/Src/stm32f1xx_hal_dma.c ****   }
 449:./Drivers/STM32F1xx_HAL_Driver/Src/stm32f1xx_hal_dma.c **** 
 450:./Drivers/STM32F1xx_HAL_Driver/Src/stm32f1xx_hal_dma.c ****   /* Get tick */
 451:./Drivers/STM32F1xx_HAL_Driver/Src/stm32f1xx_hal_dma.c ****   tickstart = HAL_GetTick();
 452:./Drivers/STM32F1xx_HAL_Driver/Src/stm32f1xx_hal_dma.c **** 
 453:./Drivers/STM32F1xx_HAL_Driver/Src/stm32f1xx_hal_dma.c ****   while(__HAL_DMA_GET_FLAG(hdma, temp) == RESET)
 454:./Drivers/STM32F1xx_HAL_Driver/Src/stm32f1xx_hal_dma.c ****   {
 455:./Drivers/STM32F1xx_HAL_Driver/Src/stm32f1xx_hal_dma.c ****     if((__HAL_DMA_GET_FLAG(hdma, __HAL_DMA_GET_TE_FLAG_INDEX(hdma)) != RESET))
 456:./Drivers/STM32F1xx_HAL_Driver/Src/stm32f1xx_hal_dma.c ****     {      
 457:./Drivers/STM32F1xx_HAL_Driver/Src/stm32f1xx_hal_dma.c ****       /* Clear the transfer error flags */
 458:./Drivers/STM32F1xx_HAL_Driver/Src/stm32f1xx_hal_dma.c ****       __HAL_DMA_CLEAR_FLAG(hdma, __HAL_DMA_GET_TE_FLAG_INDEX(hdma));
 459:./Drivers/STM32F1xx_HAL_Driver/Src/stm32f1xx_hal_dma.c ****       
 460:./Drivers/STM32F1xx_HAL_Driver/Src/stm32f1xx_hal_dma.c ****       /* Update error code */
 461:./Drivers/STM32F1xx_HAL_Driver/Src/stm32f1xx_hal_dma.c ****       SET_BIT(hdma->ErrorCode, HAL_DMA_ERROR_TE);
 462:./Drivers/STM32F1xx_HAL_Driver/Src/stm32f1xx_hal_dma.c **** 
 463:./Drivers/STM32F1xx_HAL_Driver/Src/stm32f1xx_hal_dma.c ****       /* Change the DMA state */
 464:./Drivers/STM32F1xx_HAL_Driver/Src/stm32f1xx_hal_dma.c ****       hdma->State= HAL_DMA_STATE_ERROR;
 465:./Drivers/STM32F1xx_HAL_Driver/Src/stm32f1xx_hal_dma.c ****       
 466:./Drivers/STM32F1xx_HAL_Driver/Src/stm32f1xx_hal_dma.c ****       /* Process Unlocked */
 467:./Drivers/STM32F1xx_HAL_Driver/Src/stm32f1xx_hal_dma.c ****       __HAL_UNLOCK(hdma);
 468:./Drivers/STM32F1xx_HAL_Driver/Src/stm32f1xx_hal_dma.c ****       
 469:./Drivers/STM32F1xx_HAL_Driver/Src/stm32f1xx_hal_dma.c ****       return HAL_ERROR;
 470:./Drivers/STM32F1xx_HAL_Driver/Src/stm32f1xx_hal_dma.c ****     }
 471:./Drivers/STM32F1xx_HAL_Driver/Src/stm32f1xx_hal_dma.c ****     /* Check for the Timeout */
 472:./Drivers/STM32F1xx_HAL_Driver/Src/stm32f1xx_hal_dma.c ****     if(Timeout != HAL_MAX_DELAY)
 473:./Drivers/STM32F1xx_HAL_Driver/Src/stm32f1xx_hal_dma.c ****     {
 474:./Drivers/STM32F1xx_HAL_Driver/Src/stm32f1xx_hal_dma.c ****       if((Timeout == 0) || ((HAL_GetTick() - tickstart) > Timeout))
 475:./Drivers/STM32F1xx_HAL_Driver/Src/stm32f1xx_hal_dma.c ****       {
 476:./Drivers/STM32F1xx_HAL_Driver/Src/stm32f1xx_hal_dma.c ****         /* Update error code */
 477:./Drivers/STM32F1xx_HAL_Driver/Src/stm32f1xx_hal_dma.c ****         SET_BIT(hdma->ErrorCode, HAL_DMA_ERROR_TIMEOUT);
 478:./Drivers/STM32F1xx_HAL_Driver/Src/stm32f1xx_hal_dma.c ****         
 479:./Drivers/STM32F1xx_HAL_Driver/Src/stm32f1xx_hal_dma.c ****         /* Change the DMA state */
 480:./Drivers/STM32F1xx_HAL_Driver/Src/stm32f1xx_hal_dma.c ****         hdma->State = HAL_DMA_STATE_TIMEOUT;
 481:./Drivers/STM32F1xx_HAL_Driver/Src/stm32f1xx_hal_dma.c **** 
 482:./Drivers/STM32F1xx_HAL_Driver/Src/stm32f1xx_hal_dma.c ****         /* Process Unlocked */
 483:./Drivers/STM32F1xx_HAL_Driver/Src/stm32f1xx_hal_dma.c ****         __HAL_UNLOCK(hdma);
 484:./Drivers/STM32F1xx_HAL_Driver/Src/stm32f1xx_hal_dma.c ****         
 485:./Drivers/STM32F1xx_HAL_Driver/Src/stm32f1xx_hal_dma.c ****         return HAL_TIMEOUT;
 486:./Drivers/STM32F1xx_HAL_Driver/Src/stm32f1xx_hal_dma.c ****       }
 487:./Drivers/STM32F1xx_HAL_Driver/Src/stm32f1xx_hal_dma.c ****     }
 488:./Drivers/STM32F1xx_HAL_Driver/Src/stm32f1xx_hal_dma.c ****   }
 489:./Drivers/STM32F1xx_HAL_Driver/Src/stm32f1xx_hal_dma.c **** 
 490:./Drivers/STM32F1xx_HAL_Driver/Src/stm32f1xx_hal_dma.c ****   if(CompleteLevel == HAL_DMA_FULL_TRANSFER)
ARM GAS  /tmp/ccBdMCBM.s 			page 10


 491:./Drivers/STM32F1xx_HAL_Driver/Src/stm32f1xx_hal_dma.c ****   {
 492:./Drivers/STM32F1xx_HAL_Driver/Src/stm32f1xx_hal_dma.c ****     /* Clear the transfer complete flag */
 493:./Drivers/STM32F1xx_HAL_Driver/Src/stm32f1xx_hal_dma.c ****     __HAL_DMA_CLEAR_FLAG(hdma, __HAL_DMA_GET_TC_FLAG_INDEX(hdma));
 494:./Drivers/STM32F1xx_HAL_Driver/Src/stm32f1xx_hal_dma.c **** 
 495:./Drivers/STM32F1xx_HAL_Driver/Src/stm32f1xx_hal_dma.c ****     /* The selected Channelx EN bit is cleared (DMA is disabled and 
 496:./Drivers/STM32F1xx_HAL_Driver/Src/stm32f1xx_hal_dma.c ****     all transfers are complete) */
 497:./Drivers/STM32F1xx_HAL_Driver/Src/stm32f1xx_hal_dma.c ****     hdma->State = HAL_DMA_STATE_READY;
 498:./Drivers/STM32F1xx_HAL_Driver/Src/stm32f1xx_hal_dma.c **** 
 499:./Drivers/STM32F1xx_HAL_Driver/Src/stm32f1xx_hal_dma.c ****   }
 500:./Drivers/STM32F1xx_HAL_Driver/Src/stm32f1xx_hal_dma.c ****   else
 501:./Drivers/STM32F1xx_HAL_Driver/Src/stm32f1xx_hal_dma.c ****   { 
 502:./Drivers/STM32F1xx_HAL_Driver/Src/stm32f1xx_hal_dma.c ****     /* Clear the half transfer complete flag */
 503:./Drivers/STM32F1xx_HAL_Driver/Src/stm32f1xx_hal_dma.c ****     __HAL_DMA_CLEAR_FLAG(hdma, __HAL_DMA_GET_HT_FLAG_INDEX(hdma));
 504:./Drivers/STM32F1xx_HAL_Driver/Src/stm32f1xx_hal_dma.c ****   
 505:./Drivers/STM32F1xx_HAL_Driver/Src/stm32f1xx_hal_dma.c ****     /* The selected Channelx EN bit is cleared (DMA is disabled and 
 506:./Drivers/STM32F1xx_HAL_Driver/Src/stm32f1xx_hal_dma.c ****     all transfers of half buffer are complete) */
 507:./Drivers/STM32F1xx_HAL_Driver/Src/stm32f1xx_hal_dma.c ****     hdma->State = HAL_DMA_STATE_READY_HALF;
 508:./Drivers/STM32F1xx_HAL_Driver/Src/stm32f1xx_hal_dma.c ****   }
 509:./Drivers/STM32F1xx_HAL_Driver/Src/stm32f1xx_hal_dma.c ****   
 510:./Drivers/STM32F1xx_HAL_Driver/Src/stm32f1xx_hal_dma.c ****   /* Process unlocked */
 511:./Drivers/STM32F1xx_HAL_Driver/Src/stm32f1xx_hal_dma.c ****   __HAL_UNLOCK(hdma);
 512:./Drivers/STM32F1xx_HAL_Driver/Src/stm32f1xx_hal_dma.c **** 
 513:./Drivers/STM32F1xx_HAL_Driver/Src/stm32f1xx_hal_dma.c ****   return HAL_OK;
 514:./Drivers/STM32F1xx_HAL_Driver/Src/stm32f1xx_hal_dma.c **** }
 515:./Drivers/STM32F1xx_HAL_Driver/Src/stm32f1xx_hal_dma.c **** 
 516:./Drivers/STM32F1xx_HAL_Driver/Src/stm32f1xx_hal_dma.c **** /**
 517:./Drivers/STM32F1xx_HAL_Driver/Src/stm32f1xx_hal_dma.c ****   * @brief  Handles DMA interrupt request.
 518:./Drivers/STM32F1xx_HAL_Driver/Src/stm32f1xx_hal_dma.c ****   * @param  hdma: pointer to a DMA_HandleTypeDef structure that contains
 519:./Drivers/STM32F1xx_HAL_Driver/Src/stm32f1xx_hal_dma.c ****   *               the configuration information for the specified DMA Channel.  
 520:./Drivers/STM32F1xx_HAL_Driver/Src/stm32f1xx_hal_dma.c ****   * @retval None
 521:./Drivers/STM32F1xx_HAL_Driver/Src/stm32f1xx_hal_dma.c ****   */
 522:./Drivers/STM32F1xx_HAL_Driver/Src/stm32f1xx_hal_dma.c **** void HAL_DMA_IRQHandler(DMA_HandleTypeDef *hdma)
 523:./Drivers/STM32F1xx_HAL_Driver/Src/stm32f1xx_hal_dma.c **** {
 524:./Drivers/STM32F1xx_HAL_Driver/Src/stm32f1xx_hal_dma.c ****   /* Transfer Error Interrupt management ***************************************/
 525:./Drivers/STM32F1xx_HAL_Driver/Src/stm32f1xx_hal_dma.c ****   if(__HAL_DMA_GET_FLAG(hdma, __HAL_DMA_GET_TE_FLAG_INDEX(hdma)) != RESET)
 526:./Drivers/STM32F1xx_HAL_Driver/Src/stm32f1xx_hal_dma.c ****   {
 527:./Drivers/STM32F1xx_HAL_Driver/Src/stm32f1xx_hal_dma.c ****     if(__HAL_DMA_GET_IT_SOURCE(hdma, DMA_IT_TE) != RESET)
 528:./Drivers/STM32F1xx_HAL_Driver/Src/stm32f1xx_hal_dma.c ****     {
 529:./Drivers/STM32F1xx_HAL_Driver/Src/stm32f1xx_hal_dma.c ****       /* Disable the transfer error interrupt */
 530:./Drivers/STM32F1xx_HAL_Driver/Src/stm32f1xx_hal_dma.c ****       __HAL_DMA_DISABLE_IT(hdma, DMA_IT_TE);
 531:./Drivers/STM32F1xx_HAL_Driver/Src/stm32f1xx_hal_dma.c ****       
 532:./Drivers/STM32F1xx_HAL_Driver/Src/stm32f1xx_hal_dma.c ****       /* Clear the transfer error flag */
 533:./Drivers/STM32F1xx_HAL_Driver/Src/stm32f1xx_hal_dma.c ****       __HAL_DMA_CLEAR_FLAG(hdma, __HAL_DMA_GET_TE_FLAG_INDEX(hdma));
 534:./Drivers/STM32F1xx_HAL_Driver/Src/stm32f1xx_hal_dma.c ****       
 535:./Drivers/STM32F1xx_HAL_Driver/Src/stm32f1xx_hal_dma.c ****       /* Update error code */
 536:./Drivers/STM32F1xx_HAL_Driver/Src/stm32f1xx_hal_dma.c ****       SET_BIT(hdma->ErrorCode, HAL_DMA_ERROR_TE);
 537:./Drivers/STM32F1xx_HAL_Driver/Src/stm32f1xx_hal_dma.c ****       
 538:./Drivers/STM32F1xx_HAL_Driver/Src/stm32f1xx_hal_dma.c ****       /* Change the DMA state */
 539:./Drivers/STM32F1xx_HAL_Driver/Src/stm32f1xx_hal_dma.c ****       hdma->State = HAL_DMA_STATE_ERROR;
 540:./Drivers/STM32F1xx_HAL_Driver/Src/stm32f1xx_hal_dma.c ****       
 541:./Drivers/STM32F1xx_HAL_Driver/Src/stm32f1xx_hal_dma.c ****       /* Process Unlocked */
 542:./Drivers/STM32F1xx_HAL_Driver/Src/stm32f1xx_hal_dma.c ****       __HAL_UNLOCK(hdma); 
 543:./Drivers/STM32F1xx_HAL_Driver/Src/stm32f1xx_hal_dma.c ****       
 544:./Drivers/STM32F1xx_HAL_Driver/Src/stm32f1xx_hal_dma.c ****       if (hdma->XferErrorCallback != NULL)
 545:./Drivers/STM32F1xx_HAL_Driver/Src/stm32f1xx_hal_dma.c ****       {
 546:./Drivers/STM32F1xx_HAL_Driver/Src/stm32f1xx_hal_dma.c ****         /* Transfer error callback */
 547:./Drivers/STM32F1xx_HAL_Driver/Src/stm32f1xx_hal_dma.c ****         hdma->XferErrorCallback(hdma);
ARM GAS  /tmp/ccBdMCBM.s 			page 11


 548:./Drivers/STM32F1xx_HAL_Driver/Src/stm32f1xx_hal_dma.c ****       }
 549:./Drivers/STM32F1xx_HAL_Driver/Src/stm32f1xx_hal_dma.c ****     }
 550:./Drivers/STM32F1xx_HAL_Driver/Src/stm32f1xx_hal_dma.c ****   }
 551:./Drivers/STM32F1xx_HAL_Driver/Src/stm32f1xx_hal_dma.c **** 
 552:./Drivers/STM32F1xx_HAL_Driver/Src/stm32f1xx_hal_dma.c ****   /* Half Transfer Complete Interrupt management ******************************/
 553:./Drivers/STM32F1xx_HAL_Driver/Src/stm32f1xx_hal_dma.c ****   if(__HAL_DMA_GET_FLAG(hdma, __HAL_DMA_GET_HT_FLAG_INDEX(hdma)) != RESET)
 554:./Drivers/STM32F1xx_HAL_Driver/Src/stm32f1xx_hal_dma.c ****   {
 555:./Drivers/STM32F1xx_HAL_Driver/Src/stm32f1xx_hal_dma.c ****     if(__HAL_DMA_GET_IT_SOURCE(hdma, DMA_IT_HT) != RESET)
 556:./Drivers/STM32F1xx_HAL_Driver/Src/stm32f1xx_hal_dma.c ****     { 
 557:./Drivers/STM32F1xx_HAL_Driver/Src/stm32f1xx_hal_dma.c ****       /* Disable the half transfer interrupt if the DMA mode is not CIRCULAR */
 558:./Drivers/STM32F1xx_HAL_Driver/Src/stm32f1xx_hal_dma.c ****       if((hdma->Instance->CCR & DMA_CCR_CIRC) == 0)
 559:./Drivers/STM32F1xx_HAL_Driver/Src/stm32f1xx_hal_dma.c ****       {
 560:./Drivers/STM32F1xx_HAL_Driver/Src/stm32f1xx_hal_dma.c ****         /* Disable the half transfer interrupt */
 561:./Drivers/STM32F1xx_HAL_Driver/Src/stm32f1xx_hal_dma.c ****         __HAL_DMA_DISABLE_IT(hdma, DMA_IT_HT);
 562:./Drivers/STM32F1xx_HAL_Driver/Src/stm32f1xx_hal_dma.c ****       }
 563:./Drivers/STM32F1xx_HAL_Driver/Src/stm32f1xx_hal_dma.c ****       /* Clear the half transfer complete flag */
 564:./Drivers/STM32F1xx_HAL_Driver/Src/stm32f1xx_hal_dma.c ****       __HAL_DMA_CLEAR_FLAG(hdma, __HAL_DMA_GET_HT_FLAG_INDEX(hdma));
 565:./Drivers/STM32F1xx_HAL_Driver/Src/stm32f1xx_hal_dma.c **** 
 566:./Drivers/STM32F1xx_HAL_Driver/Src/stm32f1xx_hal_dma.c ****       /* Change DMA peripheral state */
 567:./Drivers/STM32F1xx_HAL_Driver/Src/stm32f1xx_hal_dma.c ****       hdma->State = HAL_DMA_STATE_READY_HALF;
 568:./Drivers/STM32F1xx_HAL_Driver/Src/stm32f1xx_hal_dma.c **** 
 569:./Drivers/STM32F1xx_HAL_Driver/Src/stm32f1xx_hal_dma.c ****       if(hdma->XferHalfCpltCallback != NULL)
 570:./Drivers/STM32F1xx_HAL_Driver/Src/stm32f1xx_hal_dma.c ****       {
 571:./Drivers/STM32F1xx_HAL_Driver/Src/stm32f1xx_hal_dma.c ****         /* Half transfer callback */
 572:./Drivers/STM32F1xx_HAL_Driver/Src/stm32f1xx_hal_dma.c ****         hdma->XferHalfCpltCallback(hdma);
 573:./Drivers/STM32F1xx_HAL_Driver/Src/stm32f1xx_hal_dma.c ****       }
 574:./Drivers/STM32F1xx_HAL_Driver/Src/stm32f1xx_hal_dma.c ****     }
 575:./Drivers/STM32F1xx_HAL_Driver/Src/stm32f1xx_hal_dma.c ****   }
 576:./Drivers/STM32F1xx_HAL_Driver/Src/stm32f1xx_hal_dma.c ****   
 577:./Drivers/STM32F1xx_HAL_Driver/Src/stm32f1xx_hal_dma.c ****   /* Transfer Complete Interrupt management ***********************************/
 578:./Drivers/STM32F1xx_HAL_Driver/Src/stm32f1xx_hal_dma.c ****   if(__HAL_DMA_GET_FLAG(hdma, __HAL_DMA_GET_TC_FLAG_INDEX(hdma)) != RESET)
 579:./Drivers/STM32F1xx_HAL_Driver/Src/stm32f1xx_hal_dma.c ****   {
 580:./Drivers/STM32F1xx_HAL_Driver/Src/stm32f1xx_hal_dma.c ****     if(__HAL_DMA_GET_IT_SOURCE(hdma, DMA_IT_TC) != RESET)
 581:./Drivers/STM32F1xx_HAL_Driver/Src/stm32f1xx_hal_dma.c ****     {
 582:./Drivers/STM32F1xx_HAL_Driver/Src/stm32f1xx_hal_dma.c ****       if((hdma->Instance->CCR & DMA_CCR_CIRC) == 0)
 583:./Drivers/STM32F1xx_HAL_Driver/Src/stm32f1xx_hal_dma.c ****       {
 584:./Drivers/STM32F1xx_HAL_Driver/Src/stm32f1xx_hal_dma.c ****         /* Disable the transfer complete interrupt */
 585:./Drivers/STM32F1xx_HAL_Driver/Src/stm32f1xx_hal_dma.c ****         __HAL_DMA_DISABLE_IT(hdma, DMA_IT_TC);
 586:./Drivers/STM32F1xx_HAL_Driver/Src/stm32f1xx_hal_dma.c ****       }
 587:./Drivers/STM32F1xx_HAL_Driver/Src/stm32f1xx_hal_dma.c ****       /* Clear the transfer complete flag */
 588:./Drivers/STM32F1xx_HAL_Driver/Src/stm32f1xx_hal_dma.c ****       __HAL_DMA_CLEAR_FLAG(hdma, __HAL_DMA_GET_TC_FLAG_INDEX(hdma));
 589:./Drivers/STM32F1xx_HAL_Driver/Src/stm32f1xx_hal_dma.c ****     
 590:./Drivers/STM32F1xx_HAL_Driver/Src/stm32f1xx_hal_dma.c ****       /* Update error code */
 591:./Drivers/STM32F1xx_HAL_Driver/Src/stm32f1xx_hal_dma.c ****       SET_BIT(hdma->ErrorCode, HAL_DMA_ERROR_NONE);
 592:./Drivers/STM32F1xx_HAL_Driver/Src/stm32f1xx_hal_dma.c **** 
 593:./Drivers/STM32F1xx_HAL_Driver/Src/stm32f1xx_hal_dma.c ****       /* Change the DMA state */
 594:./Drivers/STM32F1xx_HAL_Driver/Src/stm32f1xx_hal_dma.c ****       hdma->State = HAL_DMA_STATE_READY;
 595:./Drivers/STM32F1xx_HAL_Driver/Src/stm32f1xx_hal_dma.c ****     
 596:./Drivers/STM32F1xx_HAL_Driver/Src/stm32f1xx_hal_dma.c ****       /* Process Unlocked */
 597:./Drivers/STM32F1xx_HAL_Driver/Src/stm32f1xx_hal_dma.c ****       __HAL_UNLOCK(hdma);
 598:./Drivers/STM32F1xx_HAL_Driver/Src/stm32f1xx_hal_dma.c ****     
 599:./Drivers/STM32F1xx_HAL_Driver/Src/stm32f1xx_hal_dma.c ****       if(hdma->XferCpltCallback != NULL)
 600:./Drivers/STM32F1xx_HAL_Driver/Src/stm32f1xx_hal_dma.c ****       {       
 601:./Drivers/STM32F1xx_HAL_Driver/Src/stm32f1xx_hal_dma.c ****         /* Transfer complete callback */
 602:./Drivers/STM32F1xx_HAL_Driver/Src/stm32f1xx_hal_dma.c ****         hdma->XferCpltCallback(hdma);
 603:./Drivers/STM32F1xx_HAL_Driver/Src/stm32f1xx_hal_dma.c ****       }
 604:./Drivers/STM32F1xx_HAL_Driver/Src/stm32f1xx_hal_dma.c ****     }
ARM GAS  /tmp/ccBdMCBM.s 			page 12


 605:./Drivers/STM32F1xx_HAL_Driver/Src/stm32f1xx_hal_dma.c ****   }
 606:./Drivers/STM32F1xx_HAL_Driver/Src/stm32f1xx_hal_dma.c **** }
 607:./Drivers/STM32F1xx_HAL_Driver/Src/stm32f1xx_hal_dma.c **** 
 608:./Drivers/STM32F1xx_HAL_Driver/Src/stm32f1xx_hal_dma.c **** /**
 609:./Drivers/STM32F1xx_HAL_Driver/Src/stm32f1xx_hal_dma.c ****   * @}
 610:./Drivers/STM32F1xx_HAL_Driver/Src/stm32f1xx_hal_dma.c ****   */
 611:./Drivers/STM32F1xx_HAL_Driver/Src/stm32f1xx_hal_dma.c **** 
 612:./Drivers/STM32F1xx_HAL_Driver/Src/stm32f1xx_hal_dma.c **** /** @defgroup DMA_Exported_Functions_Group3 Peripheral State functions
 613:./Drivers/STM32F1xx_HAL_Driver/Src/stm32f1xx_hal_dma.c ****  *  @brief    Peripheral State functions 
 614:./Drivers/STM32F1xx_HAL_Driver/Src/stm32f1xx_hal_dma.c ****  *
 615:./Drivers/STM32F1xx_HAL_Driver/Src/stm32f1xx_hal_dma.c **** @verbatim   
 616:./Drivers/STM32F1xx_HAL_Driver/Src/stm32f1xx_hal_dma.c ****  ===============================================================================
 617:./Drivers/STM32F1xx_HAL_Driver/Src/stm32f1xx_hal_dma.c ****                     ##### State and Errors functions #####
 618:./Drivers/STM32F1xx_HAL_Driver/Src/stm32f1xx_hal_dma.c ****  ===============================================================================
 619:./Drivers/STM32F1xx_HAL_Driver/Src/stm32f1xx_hal_dma.c ****     [..]
 620:./Drivers/STM32F1xx_HAL_Driver/Src/stm32f1xx_hal_dma.c ****     This subsection provides functions allowing to
 621:./Drivers/STM32F1xx_HAL_Driver/Src/stm32f1xx_hal_dma.c ****       (+) Check the DMA state
 622:./Drivers/STM32F1xx_HAL_Driver/Src/stm32f1xx_hal_dma.c ****       (+) Get error code
 623:./Drivers/STM32F1xx_HAL_Driver/Src/stm32f1xx_hal_dma.c **** 
 624:./Drivers/STM32F1xx_HAL_Driver/Src/stm32f1xx_hal_dma.c **** @endverbatim
 625:./Drivers/STM32F1xx_HAL_Driver/Src/stm32f1xx_hal_dma.c ****   * @{
 626:./Drivers/STM32F1xx_HAL_Driver/Src/stm32f1xx_hal_dma.c ****   */
 627:./Drivers/STM32F1xx_HAL_Driver/Src/stm32f1xx_hal_dma.c **** 
 628:./Drivers/STM32F1xx_HAL_Driver/Src/stm32f1xx_hal_dma.c **** /**
 629:./Drivers/STM32F1xx_HAL_Driver/Src/stm32f1xx_hal_dma.c ****   * @brief  Returns the DMA state.
 630:./Drivers/STM32F1xx_HAL_Driver/Src/stm32f1xx_hal_dma.c ****   * @param  hdma: pointer to a DMA_HandleTypeDef structure that contains
 631:./Drivers/STM32F1xx_HAL_Driver/Src/stm32f1xx_hal_dma.c ****   *               the configuration information for the specified DMA Channel.  
 632:./Drivers/STM32F1xx_HAL_Driver/Src/stm32f1xx_hal_dma.c ****   * @retval HAL state
 633:./Drivers/STM32F1xx_HAL_Driver/Src/stm32f1xx_hal_dma.c ****   */
 634:./Drivers/STM32F1xx_HAL_Driver/Src/stm32f1xx_hal_dma.c **** HAL_DMA_StateTypeDef HAL_DMA_GetState(DMA_HandleTypeDef *hdma)
 635:./Drivers/STM32F1xx_HAL_Driver/Src/stm32f1xx_hal_dma.c **** {
 636:./Drivers/STM32F1xx_HAL_Driver/Src/stm32f1xx_hal_dma.c ****   return hdma->State;
 637:./Drivers/STM32F1xx_HAL_Driver/Src/stm32f1xx_hal_dma.c **** }
 638:./Drivers/STM32F1xx_HAL_Driver/Src/stm32f1xx_hal_dma.c **** 
 639:./Drivers/STM32F1xx_HAL_Driver/Src/stm32f1xx_hal_dma.c **** /**
 640:./Drivers/STM32F1xx_HAL_Driver/Src/stm32f1xx_hal_dma.c ****   * @brief  Return the DMA error code
 641:./Drivers/STM32F1xx_HAL_Driver/Src/stm32f1xx_hal_dma.c ****   * @param  hdma : pointer to a DMA_HandleTypeDef structure that contains
 642:./Drivers/STM32F1xx_HAL_Driver/Src/stm32f1xx_hal_dma.c ****   *              the configuration information for the specified DMA Channel.
 643:./Drivers/STM32F1xx_HAL_Driver/Src/stm32f1xx_hal_dma.c ****   * @retval DMA Error Code
 644:./Drivers/STM32F1xx_HAL_Driver/Src/stm32f1xx_hal_dma.c ****   */
 645:./Drivers/STM32F1xx_HAL_Driver/Src/stm32f1xx_hal_dma.c **** uint32_t HAL_DMA_GetError(DMA_HandleTypeDef *hdma)
 646:./Drivers/STM32F1xx_HAL_Driver/Src/stm32f1xx_hal_dma.c **** {
 647:./Drivers/STM32F1xx_HAL_Driver/Src/stm32f1xx_hal_dma.c ****   return hdma->ErrorCode;
 648:./Drivers/STM32F1xx_HAL_Driver/Src/stm32f1xx_hal_dma.c **** }
 649:./Drivers/STM32F1xx_HAL_Driver/Src/stm32f1xx_hal_dma.c **** 
 650:./Drivers/STM32F1xx_HAL_Driver/Src/stm32f1xx_hal_dma.c **** /**
 651:./Drivers/STM32F1xx_HAL_Driver/Src/stm32f1xx_hal_dma.c ****   * @}
 652:./Drivers/STM32F1xx_HAL_Driver/Src/stm32f1xx_hal_dma.c ****   */
 653:./Drivers/STM32F1xx_HAL_Driver/Src/stm32f1xx_hal_dma.c **** 
 654:./Drivers/STM32F1xx_HAL_Driver/Src/stm32f1xx_hal_dma.c **** /**
 655:./Drivers/STM32F1xx_HAL_Driver/Src/stm32f1xx_hal_dma.c ****   * @}
 656:./Drivers/STM32F1xx_HAL_Driver/Src/stm32f1xx_hal_dma.c ****   */
 657:./Drivers/STM32F1xx_HAL_Driver/Src/stm32f1xx_hal_dma.c **** 
 658:./Drivers/STM32F1xx_HAL_Driver/Src/stm32f1xx_hal_dma.c **** /** @addtogroup DMA_Private_Functions DMA Private Functions
 659:./Drivers/STM32F1xx_HAL_Driver/Src/stm32f1xx_hal_dma.c ****   * @{
 660:./Drivers/STM32F1xx_HAL_Driver/Src/stm32f1xx_hal_dma.c ****   */
 661:./Drivers/STM32F1xx_HAL_Driver/Src/stm32f1xx_hal_dma.c **** 
ARM GAS  /tmp/ccBdMCBM.s 			page 13


 662:./Drivers/STM32F1xx_HAL_Driver/Src/stm32f1xx_hal_dma.c **** /**
 663:./Drivers/STM32F1xx_HAL_Driver/Src/stm32f1xx_hal_dma.c ****   * @brief  Sets the DMA Transfer parameter.
 664:./Drivers/STM32F1xx_HAL_Driver/Src/stm32f1xx_hal_dma.c ****   * @param  hdma:       pointer to a DMA_HandleTypeDef structure that contains
 665:./Drivers/STM32F1xx_HAL_Driver/Src/stm32f1xx_hal_dma.c ****   *                     the configuration information for the specified DMA Channel.  
 666:./Drivers/STM32F1xx_HAL_Driver/Src/stm32f1xx_hal_dma.c ****   * @param  SrcAddress: The source memory Buffer address
 667:./Drivers/STM32F1xx_HAL_Driver/Src/stm32f1xx_hal_dma.c ****   * @param  DstAddress: The destination memory Buffer address
 668:./Drivers/STM32F1xx_HAL_Driver/Src/stm32f1xx_hal_dma.c ****   * @param  DataLength: The length of data to be transferred from source to destination
 669:./Drivers/STM32F1xx_HAL_Driver/Src/stm32f1xx_hal_dma.c ****   * @retval HAL status
 670:./Drivers/STM32F1xx_HAL_Driver/Src/stm32f1xx_hal_dma.c ****   */
 671:./Drivers/STM32F1xx_HAL_Driver/Src/stm32f1xx_hal_dma.c **** static void DMA_SetConfig(DMA_HandleTypeDef *hdma, uint32_t SrcAddress, uint32_t DstAddress, uint32
 672:./Drivers/STM32F1xx_HAL_Driver/Src/stm32f1xx_hal_dma.c **** {
  25              		.loc 1 672 0
  26              		.cfi_startproc
  27              		@ args = 0, pretend = 0, frame = 0
  28              		@ frame_needed = 0, uses_anonymous_args = 0
  29              		@ link register save eliminated.
  30              	.LVL0:
  31 0000 10B4     		push	{r4}
  32              	.LCFI0:
  33              		.cfi_def_cfa_offset 4
  34              		.cfi_offset 4, -4
 673:./Drivers/STM32F1xx_HAL_Driver/Src/stm32f1xx_hal_dma.c ****   /* Configure DMA Channel data length */
 674:./Drivers/STM32F1xx_HAL_Driver/Src/stm32f1xx_hal_dma.c ****   hdma->Instance->CNDTR = DataLength;
  35              		.loc 1 674 0
  36 0002 0468     		ldr	r4, [r0]
  37 0004 6360     		str	r3, [r4, #4]
 675:./Drivers/STM32F1xx_HAL_Driver/Src/stm32f1xx_hal_dma.c ****   
 676:./Drivers/STM32F1xx_HAL_Driver/Src/stm32f1xx_hal_dma.c ****   /* Peripheral to Memory */
 677:./Drivers/STM32F1xx_HAL_Driver/Src/stm32f1xx_hal_dma.c ****   if((hdma->Init.Direction) == DMA_MEMORY_TO_PERIPH)
  38              		.loc 1 677 0
  39 0006 4368     		ldr	r3, [r0, #4]
  40              	.LVL1:
  41 0008 102B     		cmp	r3, #16
  42 000a 05D0     		beq	.L5
 678:./Drivers/STM32F1xx_HAL_Driver/Src/stm32f1xx_hal_dma.c ****   {
 679:./Drivers/STM32F1xx_HAL_Driver/Src/stm32f1xx_hal_dma.c ****     /* Configure DMA Channel destination address */
 680:./Drivers/STM32F1xx_HAL_Driver/Src/stm32f1xx_hal_dma.c ****     hdma->Instance->CPAR = DstAddress;
 681:./Drivers/STM32F1xx_HAL_Driver/Src/stm32f1xx_hal_dma.c ****     
 682:./Drivers/STM32F1xx_HAL_Driver/Src/stm32f1xx_hal_dma.c ****     /* Configure DMA Channel source address */
 683:./Drivers/STM32F1xx_HAL_Driver/Src/stm32f1xx_hal_dma.c ****     hdma->Instance->CMAR = SrcAddress;
 684:./Drivers/STM32F1xx_HAL_Driver/Src/stm32f1xx_hal_dma.c ****   }
 685:./Drivers/STM32F1xx_HAL_Driver/Src/stm32f1xx_hal_dma.c ****   /* Memory to Peripheral */
 686:./Drivers/STM32F1xx_HAL_Driver/Src/stm32f1xx_hal_dma.c ****   else
 687:./Drivers/STM32F1xx_HAL_Driver/Src/stm32f1xx_hal_dma.c ****   {
 688:./Drivers/STM32F1xx_HAL_Driver/Src/stm32f1xx_hal_dma.c ****     /* Configure DMA Channel source address */
 689:./Drivers/STM32F1xx_HAL_Driver/Src/stm32f1xx_hal_dma.c ****     hdma->Instance->CPAR = SrcAddress;
  43              		.loc 1 689 0
  44 000c 0368     		ldr	r3, [r0]
  45 000e 9960     		str	r1, [r3, #8]
  46              	.LVL2:
 690:./Drivers/STM32F1xx_HAL_Driver/Src/stm32f1xx_hal_dma.c ****     
 691:./Drivers/STM32F1xx_HAL_Driver/Src/stm32f1xx_hal_dma.c ****     /* Configure DMA Channel destination address */
 692:./Drivers/STM32F1xx_HAL_Driver/Src/stm32f1xx_hal_dma.c ****     hdma->Instance->CMAR = DstAddress;
  47              		.loc 1 692 0
  48 0010 0368     		ldr	r3, [r0]
  49 0012 DA60     		str	r2, [r3, #12]
  50              	.L1:
ARM GAS  /tmp/ccBdMCBM.s 			page 14


 693:./Drivers/STM32F1xx_HAL_Driver/Src/stm32f1xx_hal_dma.c ****   }
 694:./Drivers/STM32F1xx_HAL_Driver/Src/stm32f1xx_hal_dma.c **** }
  51              		.loc 1 694 0
  52 0014 10BC     		pop	{r4}
  53              	.LCFI1:
  54              		.cfi_remember_state
  55              		.cfi_restore 4
  56              		.cfi_def_cfa_offset 0
  57 0016 7047     		bx	lr
  58              	.LVL3:
  59              	.L5:
  60              	.LCFI2:
  61              		.cfi_restore_state
 680:./Drivers/STM32F1xx_HAL_Driver/Src/stm32f1xx_hal_dma.c ****     
  62              		.loc 1 680 0
  63 0018 0368     		ldr	r3, [r0]
  64 001a 9A60     		str	r2, [r3, #8]
  65              	.LVL4:
 683:./Drivers/STM32F1xx_HAL_Driver/Src/stm32f1xx_hal_dma.c ****   }
  66              		.loc 1 683 0
  67 001c 0368     		ldr	r3, [r0]
  68 001e D960     		str	r1, [r3, #12]
  69 0020 F8E7     		b	.L1
  70              		.cfi_endproc
  71              	.LFE75:
  73              		.section	.text.HAL_DMA_Init,"ax",%progbits
  74              		.align	1
  75              		.global	HAL_DMA_Init
  76              		.syntax unified
  77              		.thumb
  78              		.thumb_func
  79              		.fpu softvfp
  81              	HAL_DMA_Init:
  82              	.LFB66:
 171:./Drivers/STM32F1xx_HAL_Driver/Src/stm32f1xx_hal_dma.c ****   uint32_t tmp = 0;
  83              		.loc 1 171 0
  84              		.cfi_startproc
  85              		@ args = 0, pretend = 0, frame = 0
  86              		@ frame_needed = 0, uses_anonymous_args = 0
  87              		@ link register save eliminated.
  88              	.LVL5:
 175:./Drivers/STM32F1xx_HAL_Driver/Src/stm32f1xx_hal_dma.c ****   {
  89              		.loc 1 175 0
  90 0000 28B3     		cbz	r0, .L9
 171:./Drivers/STM32F1xx_HAL_Driver/Src/stm32f1xx_hal_dma.c ****   uint32_t tmp = 0;
  91              		.loc 1 171 0
  92 0002 10B4     		push	{r4}
  93              	.LCFI3:
  94              		.cfi_def_cfa_offset 4
  95              		.cfi_offset 4, -4
  96 0004 0246     		mov	r2, r0
 190:./Drivers/STM32F1xx_HAL_Driver/Src/stm32f1xx_hal_dma.c ****   {  
  97              		.loc 1 190 0
  98 0006 90F82130 		ldrb	r3, [r0, #33]	@ zero_extendqisi2
  99 000a 0BB9     		cbnz	r3, .L8
 193:./Drivers/STM32F1xx_HAL_Driver/Src/stm32f1xx_hal_dma.c ****   }
 100              		.loc 1 193 0
ARM GAS  /tmp/ccBdMCBM.s 			page 15


 101 000c 80F82030 		strb	r3, [r0, #32]
 102              	.L8:
 197:./Drivers/STM32F1xx_HAL_Driver/Src/stm32f1xx_hal_dma.c **** 
 103              		.loc 1 197 0
 104 0010 0223     		movs	r3, #2
 105 0012 82F82130 		strb	r3, [r2, #33]
 200:./Drivers/STM32F1xx_HAL_Driver/Src/stm32f1xx_hal_dma.c ****   
 106              		.loc 1 200 0
 107 0016 1068     		ldr	r0, [r2]
 108              	.LVL6:
 109 0018 0168     		ldr	r1, [r0]
 110              	.LVL7:
 203:./Drivers/STM32F1xx_HAL_Driver/Src/stm32f1xx_hal_dma.c ****                       DMA_CCR_MINC  | DMA_CCR_PINC   | DMA_CCR_CIRC   | \
 111              		.loc 1 203 0
 112 001a 21F47F51 		bic	r1, r1, #16320
 113              	.LVL8:
 114 001e 21F03001 		bic	r1, r1, #48
 115              	.LVL9:
 208:./Drivers/STM32F1xx_HAL_Driver/Src/stm32f1xx_hal_dma.c ****           hdma->Init.PeriphInc           | hdma->Init.MemInc           |
 116              		.loc 1 208 0
 117 0022 5368     		ldr	r3, [r2, #4]
 209:./Drivers/STM32F1xx_HAL_Driver/Src/stm32f1xx_hal_dma.c ****           hdma->Init.PeriphDataAlignment | hdma->Init.MemDataAlignment |
 118              		.loc 1 209 0
 119 0024 9468     		ldr	r4, [r2, #8]
 208:./Drivers/STM32F1xx_HAL_Driver/Src/stm32f1xx_hal_dma.c ****           hdma->Init.PeriphInc           | hdma->Init.MemInc           |
 120              		.loc 1 208 0
 121 0026 2343     		orrs	r3, r3, r4
 209:./Drivers/STM32F1xx_HAL_Driver/Src/stm32f1xx_hal_dma.c ****           hdma->Init.PeriphDataAlignment | hdma->Init.MemDataAlignment |
 122              		.loc 1 209 0
 123 0028 D468     		ldr	r4, [r2, #12]
 124 002a 2343     		orrs	r3, r3, r4
 210:./Drivers/STM32F1xx_HAL_Driver/Src/stm32f1xx_hal_dma.c ****           hdma->Init.Mode                | hdma->Init.Priority;
 125              		.loc 1 210 0
 126 002c 1469     		ldr	r4, [r2, #16]
 209:./Drivers/STM32F1xx_HAL_Driver/Src/stm32f1xx_hal_dma.c ****           hdma->Init.PeriphDataAlignment | hdma->Init.MemDataAlignment |
 127              		.loc 1 209 0
 128 002e 2343     		orrs	r3, r3, r4
 210:./Drivers/STM32F1xx_HAL_Driver/Src/stm32f1xx_hal_dma.c ****           hdma->Init.Mode                | hdma->Init.Priority;
 129              		.loc 1 210 0
 130 0030 5469     		ldr	r4, [r2, #20]
 131 0032 2343     		orrs	r3, r3, r4
 211:./Drivers/STM32F1xx_HAL_Driver/Src/stm32f1xx_hal_dma.c **** 
 132              		.loc 1 211 0
 133 0034 9469     		ldr	r4, [r2, #24]
 210:./Drivers/STM32F1xx_HAL_Driver/Src/stm32f1xx_hal_dma.c ****           hdma->Init.Mode                | hdma->Init.Priority;
 134              		.loc 1 210 0
 135 0036 2343     		orrs	r3, r3, r4
 211:./Drivers/STM32F1xx_HAL_Driver/Src/stm32f1xx_hal_dma.c **** 
 136              		.loc 1 211 0
 137 0038 D469     		ldr	r4, [r2, #28]
 138 003a 2343     		orrs	r3, r3, r4
 208:./Drivers/STM32F1xx_HAL_Driver/Src/stm32f1xx_hal_dma.c ****           hdma->Init.PeriphInc           | hdma->Init.MemInc           |
 139              		.loc 1 208 0
 140 003c 0B43     		orrs	r3, r3, r1
 141              	.LVL10:
 214:./Drivers/STM32F1xx_HAL_Driver/Src/stm32f1xx_hal_dma.c ****   
 142              		.loc 1 214 0
ARM GAS  /tmp/ccBdMCBM.s 			page 16


 143 003e 0360     		str	r3, [r0]
 217:./Drivers/STM32F1xx_HAL_Driver/Src/stm32f1xx_hal_dma.c **** 
 144              		.loc 1 217 0
 145 0040 0020     		movs	r0, #0
 146 0042 5063     		str	r0, [r2, #52]
 220:./Drivers/STM32F1xx_HAL_Driver/Src/stm32f1xx_hal_dma.c ****   
 147              		.loc 1 220 0
 148 0044 0123     		movs	r3, #1
 149              	.LVL11:
 150 0046 82F82130 		strb	r3, [r2, #33]
 223:./Drivers/STM32F1xx_HAL_Driver/Src/stm32f1xx_hal_dma.c **** 
 151              		.loc 1 223 0
 152 004a 10BC     		pop	{r4}
 153              	.LCFI4:
 154              		.cfi_restore 4
 155              		.cfi_def_cfa_offset 0
 156 004c 7047     		bx	lr
 157              	.LVL12:
 158              	.L9:
 177:./Drivers/STM32F1xx_HAL_Driver/Src/stm32f1xx_hal_dma.c ****   }
 159              		.loc 1 177 0
 160 004e 0120     		movs	r0, #1
 161              	.LVL13:
 223:./Drivers/STM32F1xx_HAL_Driver/Src/stm32f1xx_hal_dma.c **** 
 162              		.loc 1 223 0
 163 0050 7047     		bx	lr
 164              		.cfi_endproc
 165              	.LFE66:
 167              		.section	.text.HAL_DMA_DeInit,"ax",%progbits
 168              		.align	1
 169              		.global	HAL_DMA_DeInit
 170              		.syntax unified
 171              		.thumb
 172              		.thumb_func
 173              		.fpu softvfp
 175              	HAL_DMA_DeInit:
 176              	.LFB67:
 232:./Drivers/STM32F1xx_HAL_Driver/Src/stm32f1xx_hal_dma.c ****   /* Check the DMA handle allocation */
 177              		.loc 1 232 0
 178              		.cfi_startproc
 179              		@ args = 0, pretend = 0, frame = 0
 180              		@ frame_needed = 0, uses_anonymous_args = 0
 181              		@ link register save eliminated.
 182              	.LVL14:
 234:./Drivers/STM32F1xx_HAL_Driver/Src/stm32f1xx_hal_dma.c ****   {
 183              		.loc 1 234 0
 184 0000 0346     		mov	r3, r0
 185 0002 0028     		cmp	r0, #0
 186 0004 00F0DA81 		beq	.L28
 243:./Drivers/STM32F1xx_HAL_Driver/Src/stm32f1xx_hal_dma.c ****   {
 187              		.loc 1 243 0
 188 0008 90F82120 		ldrb	r2, [r0, #33]	@ zero_extendqisi2
 189 000c 022A     		cmp	r2, #2
 190 000e 00F0D781 		beq	.L29
 249:./Drivers/STM32F1xx_HAL_Driver/Src/stm32f1xx_hal_dma.c ****   
 191              		.loc 1 249 0
 192 0012 0168     		ldr	r1, [r0]
ARM GAS  /tmp/ccBdMCBM.s 			page 17


 193 0014 0A68     		ldr	r2, [r1]
 194 0016 22F00102 		bic	r2, r2, #1
 195 001a 0A60     		str	r2, [r1]
 252:./Drivers/STM32F1xx_HAL_Driver/Src/stm32f1xx_hal_dma.c ****   
 196              		.loc 1 252 0
 197 001c 0168     		ldr	r1, [r0]
 198 001e 0022     		movs	r2, #0
 199 0020 0A60     		str	r2, [r1]
 255:./Drivers/STM32F1xx_HAL_Driver/Src/stm32f1xx_hal_dma.c ****   
 200              		.loc 1 255 0
 201 0022 0168     		ldr	r1, [r0]
 202 0024 4A60     		str	r2, [r1, #4]
 258:./Drivers/STM32F1xx_HAL_Driver/Src/stm32f1xx_hal_dma.c ****   
 203              		.loc 1 258 0
 204 0026 0168     		ldr	r1, [r0]
 205 0028 8A60     		str	r2, [r1, #8]
 261:./Drivers/STM32F1xx_HAL_Driver/Src/stm32f1xx_hal_dma.c **** 
 206              		.loc 1 261 0
 207 002a 0168     		ldr	r1, [r0]
 208 002c CA60     		str	r2, [r1, #12]
 264:./Drivers/STM32F1xx_HAL_Driver/Src/stm32f1xx_hal_dma.c ****   __HAL_DMA_CLEAR_FLAG(hdma, __HAL_DMA_GET_TE_FLAG_INDEX(hdma));
 209              		.loc 1 264 0
 210 002e 0268     		ldr	r2, [r0]
 211 0030 BC49     		ldr	r1, .L102
 212 0032 8A42     		cmp	r2, r1
 213 0034 76D9     		bls	.L16
 264:./Drivers/STM32F1xx_HAL_Driver/Src/stm32f1xx_hal_dma.c ****   __HAL_DMA_CLEAR_FLAG(hdma, __HAL_DMA_GET_TE_FLAG_INDEX(hdma));
 214              		.loc 1 264 0 is_stmt 0 discriminator 1
 215 0036 7839     		subs	r1, r1, #120
 216 0038 8A42     		cmp	r2, r1
 217 003a 24D0     		beq	.L30
 264:./Drivers/STM32F1xx_HAL_Driver/Src/stm32f1xx_hal_dma.c ****   __HAL_DMA_CLEAR_FLAG(hdma, __HAL_DMA_GET_TE_FLAG_INDEX(hdma));
 218              		.loc 1 264 0 discriminator 3
 219 003c 1431     		adds	r1, r1, #20
 220 003e 8A42     		cmp	r2, r1
 221 0040 58D0     		beq	.L31
 264:./Drivers/STM32F1xx_HAL_Driver/Src/stm32f1xx_hal_dma.c ****   __HAL_DMA_CLEAR_FLAG(hdma, __HAL_DMA_GET_TE_FLAG_INDEX(hdma));
 222              		.loc 1 264 0 discriminator 5
 223 0042 1431     		adds	r1, r1, #20
 224 0044 8A42     		cmp	r2, r1
 225 0046 57D0     		beq	.L32
 264:./Drivers/STM32F1xx_HAL_Driver/Src/stm32f1xx_hal_dma.c ****   __HAL_DMA_CLEAR_FLAG(hdma, __HAL_DMA_GET_TE_FLAG_INDEX(hdma));
 226              		.loc 1 264 0 discriminator 7
 227 0048 1431     		adds	r1, r1, #20
 228 004a 8A42     		cmp	r2, r1
 229 004c 57D0     		beq	.L33
 264:./Drivers/STM32F1xx_HAL_Driver/Src/stm32f1xx_hal_dma.c ****   __HAL_DMA_CLEAR_FLAG(hdma, __HAL_DMA_GET_TE_FLAG_INDEX(hdma));
 230              		.loc 1 264 0 discriminator 9
 231 004e 1431     		adds	r1, r1, #20
 232 0050 8A42     		cmp	r2, r1
 233 0052 57D0     		beq	.L34
 264:./Drivers/STM32F1xx_HAL_Driver/Src/stm32f1xx_hal_dma.c ****   __HAL_DMA_CLEAR_FLAG(hdma, __HAL_DMA_GET_TE_FLAG_INDEX(hdma));
 234              		.loc 1 264 0 discriminator 11
 235 0054 1431     		adds	r1, r1, #20
 236 0056 8A42     		cmp	r2, r1
 237 0058 57D0     		beq	.L35
 264:./Drivers/STM32F1xx_HAL_Driver/Src/stm32f1xx_hal_dma.c ****   __HAL_DMA_CLEAR_FLAG(hdma, __HAL_DMA_GET_TE_FLAG_INDEX(hdma));
ARM GAS  /tmp/ccBdMCBM.s 			page 18


 238              		.loc 1 264 0 discriminator 13
 239 005a 1431     		adds	r1, r1, #20
 240 005c 8A42     		cmp	r2, r1
 241 005e 57D0     		beq	.L36
 264:./Drivers/STM32F1xx_HAL_Driver/Src/stm32f1xx_hal_dma.c ****   __HAL_DMA_CLEAR_FLAG(hdma, __HAL_DMA_GET_TE_FLAG_INDEX(hdma));
 242              		.loc 1 264 0 discriminator 15
 243 0060 01F56271 		add	r1, r1, #904
 244 0064 8A42     		cmp	r2, r1
 245 0066 56D0     		beq	.L37
 264:./Drivers/STM32F1xx_HAL_Driver/Src/stm32f1xx_hal_dma.c ****   __HAL_DMA_CLEAR_FLAG(hdma, __HAL_DMA_GET_TE_FLAG_INDEX(hdma));
 246              		.loc 1 264 0 discriminator 17
 247 0068 1431     		adds	r1, r1, #20
 248 006a 8A42     		cmp	r2, r1
 249 006c 55D0     		beq	.L38
 264:./Drivers/STM32F1xx_HAL_Driver/Src/stm32f1xx_hal_dma.c ****   __HAL_DMA_CLEAR_FLAG(hdma, __HAL_DMA_GET_TE_FLAG_INDEX(hdma));
 250              		.loc 1 264 0 discriminator 19
 251 006e 1431     		adds	r1, r1, #20
 252 0070 8A42     		cmp	r2, r1
 253 0072 54D0     		beq	.L39
 264:./Drivers/STM32F1xx_HAL_Driver/Src/stm32f1xx_hal_dma.c ****   __HAL_DMA_CLEAR_FLAG(hdma, __HAL_DMA_GET_TE_FLAG_INDEX(hdma));
 254              		.loc 1 264 0 discriminator 21
 255 0074 1431     		adds	r1, r1, #20
 256 0076 8A42     		cmp	r2, r1
 257 0078 02D0     		beq	.L96
 264:./Drivers/STM32F1xx_HAL_Driver/Src/stm32f1xx_hal_dma.c ****   __HAL_DMA_CLEAR_FLAG(hdma, __HAL_DMA_GET_TE_FLAG_INDEX(hdma));
 258              		.loc 1 264 0
 259 007a 4FF40031 		mov	r1, #131072
 260 007e 03E0     		b	.L17
 261              	.L96:
 262 0080 4FF40051 		mov	r1, #8192
 263 0084 00E0     		b	.L17
 264              	.L30:
 265 0086 0221     		movs	r1, #2
 266              	.L17:
 264:./Drivers/STM32F1xx_HAL_Driver/Src/stm32f1xx_hal_dma.c ****   __HAL_DMA_CLEAR_FLAG(hdma, __HAL_DMA_GET_TE_FLAG_INDEX(hdma));
 267              		.loc 1 264 0 discriminator 46
 268 0088 A74A     		ldr	r2, .L102+4
 269 008a 5160     		str	r1, [r2, #4]
 270              	.L18:
 265:./Drivers/STM32F1xx_HAL_Driver/Src/stm32f1xx_hal_dma.c ****   __HAL_DMA_CLEAR_FLAG(hdma, __HAL_DMA_GET_HT_FLAG_INDEX(hdma));
 271              		.loc 1 265 0 is_stmt 1
 272 008c 1A68     		ldr	r2, [r3]
 273 008e A549     		ldr	r1, .L102
 274 0090 8A42     		cmp	r2, r1
 275 0092 40F2DD80 		bls	.L20
 265:./Drivers/STM32F1xx_HAL_Driver/Src/stm32f1xx_hal_dma.c ****   __HAL_DMA_CLEAR_FLAG(hdma, __HAL_DMA_GET_HT_FLAG_INDEX(hdma));
 276              		.loc 1 265 0 is_stmt 0 discriminator 1
 277 0096 7839     		subs	r1, r1, #120
 278 0098 8A42     		cmp	r2, r1
 279 009a 00F08A80 		beq	.L52
 265:./Drivers/STM32F1xx_HAL_Driver/Src/stm32f1xx_hal_dma.c ****   __HAL_DMA_CLEAR_FLAG(hdma, __HAL_DMA_GET_HT_FLAG_INDEX(hdma));
 280              		.loc 1 265 0 discriminator 3
 281 009e 1431     		adds	r1, r1, #20
 282 00a0 8A42     		cmp	r2, r1
 283 00a2 00F0BD80 		beq	.L53
 265:./Drivers/STM32F1xx_HAL_Driver/Src/stm32f1xx_hal_dma.c ****   __HAL_DMA_CLEAR_FLAG(hdma, __HAL_DMA_GET_HT_FLAG_INDEX(hdma));
 284              		.loc 1 265 0 discriminator 5
ARM GAS  /tmp/ccBdMCBM.s 			page 19


 285 00a6 1431     		adds	r1, r1, #20
 286 00a8 8A42     		cmp	r2, r1
 287 00aa 00F0BB80 		beq	.L54
 265:./Drivers/STM32F1xx_HAL_Driver/Src/stm32f1xx_hal_dma.c ****   __HAL_DMA_CLEAR_FLAG(hdma, __HAL_DMA_GET_HT_FLAG_INDEX(hdma));
 288              		.loc 1 265 0 discriminator 7
 289 00ae 1431     		adds	r1, r1, #20
 290 00b0 8A42     		cmp	r2, r1
 291 00b2 00F0BA80 		beq	.L55
 265:./Drivers/STM32F1xx_HAL_Driver/Src/stm32f1xx_hal_dma.c ****   __HAL_DMA_CLEAR_FLAG(hdma, __HAL_DMA_GET_HT_FLAG_INDEX(hdma));
 292              		.loc 1 265 0 discriminator 9
 293 00b6 1431     		adds	r1, r1, #20
 294 00b8 8A42     		cmp	r2, r1
 295 00ba 00F0B980 		beq	.L56
 265:./Drivers/STM32F1xx_HAL_Driver/Src/stm32f1xx_hal_dma.c ****   __HAL_DMA_CLEAR_FLAG(hdma, __HAL_DMA_GET_HT_FLAG_INDEX(hdma));
 296              		.loc 1 265 0 discriminator 11
 297 00be 1431     		adds	r1, r1, #20
 298 00c0 8A42     		cmp	r2, r1
 299 00c2 00F0B880 		beq	.L57
 265:./Drivers/STM32F1xx_HAL_Driver/Src/stm32f1xx_hal_dma.c ****   __HAL_DMA_CLEAR_FLAG(hdma, __HAL_DMA_GET_HT_FLAG_INDEX(hdma));
 300              		.loc 1 265 0 discriminator 13
 301 00c6 1431     		adds	r1, r1, #20
 302 00c8 8A42     		cmp	r2, r1
 303 00ca 00F0B780 		beq	.L58
 265:./Drivers/STM32F1xx_HAL_Driver/Src/stm32f1xx_hal_dma.c ****   __HAL_DMA_CLEAR_FLAG(hdma, __HAL_DMA_GET_HT_FLAG_INDEX(hdma));
 304              		.loc 1 265 0 discriminator 15
 305 00ce 01F56271 		add	r1, r1, #904
 306 00d2 8A42     		cmp	r2, r1
 307 00d4 00F0B580 		beq	.L59
 265:./Drivers/STM32F1xx_HAL_Driver/Src/stm32f1xx_hal_dma.c ****   __HAL_DMA_CLEAR_FLAG(hdma, __HAL_DMA_GET_HT_FLAG_INDEX(hdma));
 308              		.loc 1 265 0 discriminator 17
 309 00d8 1431     		adds	r1, r1, #20
 310 00da 8A42     		cmp	r2, r1
 311 00dc 00F0B380 		beq	.L60
 265:./Drivers/STM32F1xx_HAL_Driver/Src/stm32f1xx_hal_dma.c ****   __HAL_DMA_CLEAR_FLAG(hdma, __HAL_DMA_GET_HT_FLAG_INDEX(hdma));
 312              		.loc 1 265 0 discriminator 19
 313 00e0 1431     		adds	r1, r1, #20
 314 00e2 8A42     		cmp	r2, r1
 315 00e4 00F0B180 		beq	.L61
 265:./Drivers/STM32F1xx_HAL_Driver/Src/stm32f1xx_hal_dma.c ****   __HAL_DMA_CLEAR_FLAG(hdma, __HAL_DMA_GET_HT_FLAG_INDEX(hdma));
 316              		.loc 1 265 0 discriminator 21
 317 00e8 1431     		adds	r1, r1, #20
 318 00ea 8A42     		cmp	r2, r1
 319 00ec 5ED0     		beq	.L97
 265:./Drivers/STM32F1xx_HAL_Driver/Src/stm32f1xx_hal_dma.c ****   __HAL_DMA_CLEAR_FLAG(hdma, __HAL_DMA_GET_HT_FLAG_INDEX(hdma));
 320              		.loc 1 265 0
 321 00ee 4FF40021 		mov	r1, #524288
 322 00f2 5FE0     		b	.L21
 323              	.L31:
 264:./Drivers/STM32F1xx_HAL_Driver/Src/stm32f1xx_hal_dma.c ****   __HAL_DMA_CLEAR_FLAG(hdma, __HAL_DMA_GET_TE_FLAG_INDEX(hdma));
 324              		.loc 1 264 0 is_stmt 1
 325 00f4 2021     		movs	r1, #32
 326 00f6 C7E7     		b	.L17
 327              	.L32:
 328 00f8 4FF40071 		mov	r1, #512
 329 00fc C4E7     		b	.L17
 330              	.L33:
 331 00fe 4FF40051 		mov	r1, #8192
ARM GAS  /tmp/ccBdMCBM.s 			page 20


 332 0102 C1E7     		b	.L17
 333              	.L34:
 334 0104 4FF40031 		mov	r1, #131072
 335 0108 BEE7     		b	.L17
 336              	.L35:
 337 010a 4FF40011 		mov	r1, #2097152
 338 010e BBE7     		b	.L17
 339              	.L36:
 340 0110 4FF00071 		mov	r1, #33554432
 341 0114 B8E7     		b	.L17
 342              	.L37:
 343 0116 0221     		movs	r1, #2
 344 0118 B6E7     		b	.L17
 345              	.L38:
 346 011a 2021     		movs	r1, #32
 347 011c B4E7     		b	.L17
 348              	.L39:
 349 011e 4FF40071 		mov	r1, #512
 350 0122 B1E7     		b	.L17
 351              	.L16:
 264:./Drivers/STM32F1xx_HAL_Driver/Src/stm32f1xx_hal_dma.c ****   __HAL_DMA_CLEAR_FLAG(hdma, __HAL_DMA_GET_TE_FLAG_INDEX(hdma));
 352              		.loc 1 264 0 is_stmt 0 discriminator 2
 353 0124 8149     		ldr	r1, .L102+8
 354 0126 8A42     		cmp	r2, r1
 355 0128 24D0     		beq	.L41
 264:./Drivers/STM32F1xx_HAL_Driver/Src/stm32f1xx_hal_dma.c ****   __HAL_DMA_CLEAR_FLAG(hdma, __HAL_DMA_GET_TE_FLAG_INDEX(hdma));
 356              		.loc 1 264 0 discriminator 47
 357 012a 1431     		adds	r1, r1, #20
 358 012c 8A42     		cmp	r2, r1
 359 012e 25D0     		beq	.L42
 264:./Drivers/STM32F1xx_HAL_Driver/Src/stm32f1xx_hal_dma.c ****   __HAL_DMA_CLEAR_FLAG(hdma, __HAL_DMA_GET_TE_FLAG_INDEX(hdma));
 360              		.loc 1 264 0 discriminator 49
 361 0130 1431     		adds	r1, r1, #20
 362 0132 8A42     		cmp	r2, r1
 363 0134 24D0     		beq	.L43
 264:./Drivers/STM32F1xx_HAL_Driver/Src/stm32f1xx_hal_dma.c ****   __HAL_DMA_CLEAR_FLAG(hdma, __HAL_DMA_GET_TE_FLAG_INDEX(hdma));
 364              		.loc 1 264 0 discriminator 51
 365 0136 1431     		adds	r1, r1, #20
 366 0138 8A42     		cmp	r2, r1
 367 013a 24D0     		beq	.L44
 264:./Drivers/STM32F1xx_HAL_Driver/Src/stm32f1xx_hal_dma.c ****   __HAL_DMA_CLEAR_FLAG(hdma, __HAL_DMA_GET_TE_FLAG_INDEX(hdma));
 368              		.loc 1 264 0 discriminator 53
 369 013c 1431     		adds	r1, r1, #20
 370 013e 8A42     		cmp	r2, r1
 371 0140 24D0     		beq	.L45
 264:./Drivers/STM32F1xx_HAL_Driver/Src/stm32f1xx_hal_dma.c ****   __HAL_DMA_CLEAR_FLAG(hdma, __HAL_DMA_GET_TE_FLAG_INDEX(hdma));
 372              		.loc 1 264 0 discriminator 55
 373 0142 1431     		adds	r1, r1, #20
 374 0144 8A42     		cmp	r2, r1
 375 0146 24D0     		beq	.L46
 264:./Drivers/STM32F1xx_HAL_Driver/Src/stm32f1xx_hal_dma.c ****   __HAL_DMA_CLEAR_FLAG(hdma, __HAL_DMA_GET_TE_FLAG_INDEX(hdma));
 376              		.loc 1 264 0 discriminator 57
 377 0148 1431     		adds	r1, r1, #20
 378 014a 8A42     		cmp	r2, r1
 379 014c 24D0     		beq	.L47
 264:./Drivers/STM32F1xx_HAL_Driver/Src/stm32f1xx_hal_dma.c ****   __HAL_DMA_CLEAR_FLAG(hdma, __HAL_DMA_GET_TE_FLAG_INDEX(hdma));
 380              		.loc 1 264 0 discriminator 59
ARM GAS  /tmp/ccBdMCBM.s 			page 21


 381 014e 01F56271 		add	r1, r1, #904
 382 0152 8A42     		cmp	r2, r1
 383 0154 23D0     		beq	.L48
 264:./Drivers/STM32F1xx_HAL_Driver/Src/stm32f1xx_hal_dma.c ****   __HAL_DMA_CLEAR_FLAG(hdma, __HAL_DMA_GET_TE_FLAG_INDEX(hdma));
 384              		.loc 1 264 0 discriminator 61
 385 0156 1431     		adds	r1, r1, #20
 386 0158 8A42     		cmp	r2, r1
 387 015a 22D0     		beq	.L49
 264:./Drivers/STM32F1xx_HAL_Driver/Src/stm32f1xx_hal_dma.c ****   __HAL_DMA_CLEAR_FLAG(hdma, __HAL_DMA_GET_TE_FLAG_INDEX(hdma));
 388              		.loc 1 264 0 discriminator 63
 389 015c 1431     		adds	r1, r1, #20
 390 015e 8A42     		cmp	r2, r1
 391 0160 21D0     		beq	.L50
 264:./Drivers/STM32F1xx_HAL_Driver/Src/stm32f1xx_hal_dma.c ****   __HAL_DMA_CLEAR_FLAG(hdma, __HAL_DMA_GET_TE_FLAG_INDEX(hdma));
 392              		.loc 1 264 0 discriminator 65
 393 0162 1431     		adds	r1, r1, #20
 394 0164 8A42     		cmp	r2, r1
 395 0166 02D0     		beq	.L98
 264:./Drivers/STM32F1xx_HAL_Driver/Src/stm32f1xx_hal_dma.c ****   __HAL_DMA_CLEAR_FLAG(hdma, __HAL_DMA_GET_TE_FLAG_INDEX(hdma));
 396              		.loc 1 264 0
 397 0168 4FF40031 		mov	r1, #131072
 398 016c 03E0     		b	.L19
 399              	.L98:
 400 016e 4FF40051 		mov	r1, #8192
 401 0172 00E0     		b	.L19
 402              	.L41:
 403 0174 0221     		movs	r1, #2
 404              	.L19:
 264:./Drivers/STM32F1xx_HAL_Driver/Src/stm32f1xx_hal_dma.c ****   __HAL_DMA_CLEAR_FLAG(hdma, __HAL_DMA_GET_TE_FLAG_INDEX(hdma));
 405              		.loc 1 264 0 discriminator 90
 406 0176 6E4A     		ldr	r2, .L102+12
 407 0178 5160     		str	r1, [r2, #4]
 408 017a 87E7     		b	.L18
 409              	.L42:
 264:./Drivers/STM32F1xx_HAL_Driver/Src/stm32f1xx_hal_dma.c ****   __HAL_DMA_CLEAR_FLAG(hdma, __HAL_DMA_GET_TE_FLAG_INDEX(hdma));
 410              		.loc 1 264 0
 411 017c 2021     		movs	r1, #32
 412 017e FAE7     		b	.L19
 413              	.L43:
 414 0180 4FF40071 		mov	r1, #512
 415 0184 F7E7     		b	.L19
 416              	.L44:
 417 0186 4FF40051 		mov	r1, #8192
 418 018a F4E7     		b	.L19
 419              	.L45:
 420 018c 4FF40031 		mov	r1, #131072
 421 0190 F1E7     		b	.L19
 422              	.L46:
 423 0192 4FF40011 		mov	r1, #2097152
 424 0196 EEE7     		b	.L19
 425              	.L47:
 426 0198 4FF00071 		mov	r1, #33554432
 427 019c EBE7     		b	.L19
 428              	.L48:
 429 019e 0221     		movs	r1, #2
 430 01a0 E9E7     		b	.L19
 431              	.L49:
ARM GAS  /tmp/ccBdMCBM.s 			page 22


 432 01a2 2021     		movs	r1, #32
 433 01a4 E7E7     		b	.L19
 434              	.L50:
 435 01a6 4FF40071 		mov	r1, #512
 436 01aa E4E7     		b	.L19
 437              	.L97:
 265:./Drivers/STM32F1xx_HAL_Driver/Src/stm32f1xx_hal_dma.c ****   __HAL_DMA_CLEAR_FLAG(hdma, __HAL_DMA_GET_HT_FLAG_INDEX(hdma));
 438              		.loc 1 265 0 is_stmt 1
 439 01ac 4FF40041 		mov	r1, #32768
 440 01b0 00E0     		b	.L21
 441              	.L52:
 442 01b2 0821     		movs	r1, #8
 443              	.L21:
 265:./Drivers/STM32F1xx_HAL_Driver/Src/stm32f1xx_hal_dma.c ****   __HAL_DMA_CLEAR_FLAG(hdma, __HAL_DMA_GET_HT_FLAG_INDEX(hdma));
 444              		.loc 1 265 0 is_stmt 0 discriminator 46
 445 01b4 5C4A     		ldr	r2, .L102+4
 446 01b6 5160     		str	r1, [r2, #4]
 447              	.L22:
 266:./Drivers/STM32F1xx_HAL_Driver/Src/stm32f1xx_hal_dma.c ****   
 448              		.loc 1 266 0 is_stmt 1
 449 01b8 1A68     		ldr	r2, [r3]
 450 01ba 5A49     		ldr	r1, .L102
 451 01bc 8A42     		cmp	r2, r1
 452 01be 40F2B980 		bls	.L24
 266:./Drivers/STM32F1xx_HAL_Driver/Src/stm32f1xx_hal_dma.c ****   
 453              		.loc 1 266 0 is_stmt 0 discriminator 1
 454 01c2 7839     		subs	r1, r1, #120
 455 01c4 8A42     		cmp	r2, r1
 456 01c6 00F08A80 		beq	.L74
 266:./Drivers/STM32F1xx_HAL_Driver/Src/stm32f1xx_hal_dma.c ****   
 457              		.loc 1 266 0 discriminator 3
 458 01ca 1431     		adds	r1, r1, #20
 459 01cc 8A42     		cmp	r2, r1
 460 01ce 00F09080 		beq	.L75
 266:./Drivers/STM32F1xx_HAL_Driver/Src/stm32f1xx_hal_dma.c ****   
 461              		.loc 1 266 0 discriminator 5
 462 01d2 1431     		adds	r1, r1, #20
 463 01d4 8A42     		cmp	r2, r1
 464 01d6 00F08E80 		beq	.L76
 266:./Drivers/STM32F1xx_HAL_Driver/Src/stm32f1xx_hal_dma.c ****   
 465              		.loc 1 266 0 discriminator 7
 466 01da 1431     		adds	r1, r1, #20
 467 01dc 8A42     		cmp	r2, r1
 468 01de 00F08D80 		beq	.L77
 266:./Drivers/STM32F1xx_HAL_Driver/Src/stm32f1xx_hal_dma.c ****   
 469              		.loc 1 266 0 discriminator 9
 470 01e2 1431     		adds	r1, r1, #20
 471 01e4 8A42     		cmp	r2, r1
 472 01e6 00F08C80 		beq	.L78
 266:./Drivers/STM32F1xx_HAL_Driver/Src/stm32f1xx_hal_dma.c ****   
 473              		.loc 1 266 0 discriminator 11
 474 01ea 1431     		adds	r1, r1, #20
 475 01ec 8A42     		cmp	r2, r1
 476 01ee 00F08B80 		beq	.L79
 266:./Drivers/STM32F1xx_HAL_Driver/Src/stm32f1xx_hal_dma.c ****   
 477              		.loc 1 266 0 discriminator 13
 478 01f2 1431     		adds	r1, r1, #20
ARM GAS  /tmp/ccBdMCBM.s 			page 23


 479 01f4 8A42     		cmp	r2, r1
 480 01f6 00F08A80 		beq	.L80
 266:./Drivers/STM32F1xx_HAL_Driver/Src/stm32f1xx_hal_dma.c ****   
 481              		.loc 1 266 0 discriminator 15
 482 01fa 01F56271 		add	r1, r1, #904
 483 01fe 8A42     		cmp	r2, r1
 484 0200 00F08880 		beq	.L81
 266:./Drivers/STM32F1xx_HAL_Driver/Src/stm32f1xx_hal_dma.c ****   
 485              		.loc 1 266 0 discriminator 17
 486 0204 1431     		adds	r1, r1, #20
 487 0206 8A42     		cmp	r2, r1
 488 0208 00F08680 		beq	.L82
 266:./Drivers/STM32F1xx_HAL_Driver/Src/stm32f1xx_hal_dma.c ****   
 489              		.loc 1 266 0 discriminator 19
 490 020c 1431     		adds	r1, r1, #20
 491 020e 8A42     		cmp	r2, r1
 492 0210 00F08480 		beq	.L83
 266:./Drivers/STM32F1xx_HAL_Driver/Src/stm32f1xx_hal_dma.c ****   
 493              		.loc 1 266 0 discriminator 21
 494 0214 1431     		adds	r1, r1, #20
 495 0216 8A42     		cmp	r2, r1
 496 0218 5ED0     		beq	.L99
 266:./Drivers/STM32F1xx_HAL_Driver/Src/stm32f1xx_hal_dma.c ****   
 497              		.loc 1 266 0
 498 021a 4FF48021 		mov	r1, #262144
 499 021e 5FE0     		b	.L25
 500              	.L53:
 265:./Drivers/STM32F1xx_HAL_Driver/Src/stm32f1xx_hal_dma.c ****   __HAL_DMA_CLEAR_FLAG(hdma, __HAL_DMA_GET_HT_FLAG_INDEX(hdma));
 501              		.loc 1 265 0 is_stmt 1
 502 0220 8021     		movs	r1, #128
 503 0222 C7E7     		b	.L21
 504              	.L54:
 505 0224 4FF40061 		mov	r1, #2048
 506 0228 C4E7     		b	.L21
 507              	.L55:
 508 022a 4FF40041 		mov	r1, #32768
 509 022e C1E7     		b	.L21
 510              	.L56:
 511 0230 4FF40021 		mov	r1, #524288
 512 0234 BEE7     		b	.L21
 513              	.L57:
 514 0236 4FF40001 		mov	r1, #8388608
 515 023a BBE7     		b	.L21
 516              	.L58:
 517 023c 4FF00061 		mov	r1, #134217728
 518 0240 B8E7     		b	.L21
 519              	.L59:
 520 0242 0821     		movs	r1, #8
 521 0244 B6E7     		b	.L21
 522              	.L60:
 523 0246 8021     		movs	r1, #128
 524 0248 B4E7     		b	.L21
 525              	.L61:
 526 024a 4FF40061 		mov	r1, #2048
 527 024e B1E7     		b	.L21
 528              	.L20:
 265:./Drivers/STM32F1xx_HAL_Driver/Src/stm32f1xx_hal_dma.c ****   __HAL_DMA_CLEAR_FLAG(hdma, __HAL_DMA_GET_HT_FLAG_INDEX(hdma));
ARM GAS  /tmp/ccBdMCBM.s 			page 24


 529              		.loc 1 265 0 is_stmt 0 discriminator 2
 530 0250 3649     		ldr	r1, .L102+8
 531 0252 8A42     		cmp	r2, r1
 532 0254 24D0     		beq	.L63
 265:./Drivers/STM32F1xx_HAL_Driver/Src/stm32f1xx_hal_dma.c ****   __HAL_DMA_CLEAR_FLAG(hdma, __HAL_DMA_GET_HT_FLAG_INDEX(hdma));
 533              		.loc 1 265 0 discriminator 47
 534 0256 1431     		adds	r1, r1, #20
 535 0258 8A42     		cmp	r2, r1
 536 025a 25D0     		beq	.L64
 265:./Drivers/STM32F1xx_HAL_Driver/Src/stm32f1xx_hal_dma.c ****   __HAL_DMA_CLEAR_FLAG(hdma, __HAL_DMA_GET_HT_FLAG_INDEX(hdma));
 537              		.loc 1 265 0 discriminator 49
 538 025c 1431     		adds	r1, r1, #20
 539 025e 8A42     		cmp	r2, r1
 540 0260 24D0     		beq	.L65
 265:./Drivers/STM32F1xx_HAL_Driver/Src/stm32f1xx_hal_dma.c ****   __HAL_DMA_CLEAR_FLAG(hdma, __HAL_DMA_GET_HT_FLAG_INDEX(hdma));
 541              		.loc 1 265 0 discriminator 51
 542 0262 1431     		adds	r1, r1, #20
 543 0264 8A42     		cmp	r2, r1
 544 0266 24D0     		beq	.L66
 265:./Drivers/STM32F1xx_HAL_Driver/Src/stm32f1xx_hal_dma.c ****   __HAL_DMA_CLEAR_FLAG(hdma, __HAL_DMA_GET_HT_FLAG_INDEX(hdma));
 545              		.loc 1 265 0 discriminator 53
 546 0268 1431     		adds	r1, r1, #20
 547 026a 8A42     		cmp	r2, r1
 548 026c 24D0     		beq	.L67
 265:./Drivers/STM32F1xx_HAL_Driver/Src/stm32f1xx_hal_dma.c ****   __HAL_DMA_CLEAR_FLAG(hdma, __HAL_DMA_GET_HT_FLAG_INDEX(hdma));
 549              		.loc 1 265 0 discriminator 55
 550 026e 1431     		adds	r1, r1, #20
 551 0270 8A42     		cmp	r2, r1
 552 0272 24D0     		beq	.L68
 265:./Drivers/STM32F1xx_HAL_Driver/Src/stm32f1xx_hal_dma.c ****   __HAL_DMA_CLEAR_FLAG(hdma, __HAL_DMA_GET_HT_FLAG_INDEX(hdma));
 553              		.loc 1 265 0 discriminator 57
 554 0274 1431     		adds	r1, r1, #20
 555 0276 8A42     		cmp	r2, r1
 556 0278 24D0     		beq	.L69
 265:./Drivers/STM32F1xx_HAL_Driver/Src/stm32f1xx_hal_dma.c ****   __HAL_DMA_CLEAR_FLAG(hdma, __HAL_DMA_GET_HT_FLAG_INDEX(hdma));
 557              		.loc 1 265 0 discriminator 59
 558 027a 01F56271 		add	r1, r1, #904
 559 027e 8A42     		cmp	r2, r1
 560 0280 23D0     		beq	.L70
 265:./Drivers/STM32F1xx_HAL_Driver/Src/stm32f1xx_hal_dma.c ****   __HAL_DMA_CLEAR_FLAG(hdma, __HAL_DMA_GET_HT_FLAG_INDEX(hdma));
 561              		.loc 1 265 0 discriminator 61
 562 0282 1431     		adds	r1, r1, #20
 563 0284 8A42     		cmp	r2, r1
 564 0286 22D0     		beq	.L71
 265:./Drivers/STM32F1xx_HAL_Driver/Src/stm32f1xx_hal_dma.c ****   __HAL_DMA_CLEAR_FLAG(hdma, __HAL_DMA_GET_HT_FLAG_INDEX(hdma));
 565              		.loc 1 265 0 discriminator 63
 566 0288 1431     		adds	r1, r1, #20
 567 028a 8A42     		cmp	r2, r1
 568 028c 21D0     		beq	.L72
 265:./Drivers/STM32F1xx_HAL_Driver/Src/stm32f1xx_hal_dma.c ****   __HAL_DMA_CLEAR_FLAG(hdma, __HAL_DMA_GET_HT_FLAG_INDEX(hdma));
 569              		.loc 1 265 0 discriminator 65
 570 028e 1431     		adds	r1, r1, #20
 571 0290 8A42     		cmp	r2, r1
 572 0292 02D0     		beq	.L100
 265:./Drivers/STM32F1xx_HAL_Driver/Src/stm32f1xx_hal_dma.c ****   __HAL_DMA_CLEAR_FLAG(hdma, __HAL_DMA_GET_HT_FLAG_INDEX(hdma));
 573              		.loc 1 265 0
 574 0294 4FF40021 		mov	r1, #524288
ARM GAS  /tmp/ccBdMCBM.s 			page 25


 575 0298 03E0     		b	.L23
 576              	.L100:
 577 029a 4FF40041 		mov	r1, #32768
 578 029e 00E0     		b	.L23
 579              	.L63:
 580 02a0 0821     		movs	r1, #8
 581              	.L23:
 265:./Drivers/STM32F1xx_HAL_Driver/Src/stm32f1xx_hal_dma.c ****   __HAL_DMA_CLEAR_FLAG(hdma, __HAL_DMA_GET_HT_FLAG_INDEX(hdma));
 582              		.loc 1 265 0 discriminator 90
 583 02a2 234A     		ldr	r2, .L102+12
 584 02a4 5160     		str	r1, [r2, #4]
 585 02a6 87E7     		b	.L22
 586              	.L64:
 265:./Drivers/STM32F1xx_HAL_Driver/Src/stm32f1xx_hal_dma.c ****   __HAL_DMA_CLEAR_FLAG(hdma, __HAL_DMA_GET_HT_FLAG_INDEX(hdma));
 587              		.loc 1 265 0
 588 02a8 8021     		movs	r1, #128
 589 02aa FAE7     		b	.L23
 590              	.L65:
 591 02ac 4FF40061 		mov	r1, #2048
 592 02b0 F7E7     		b	.L23
 593              	.L66:
 594 02b2 4FF40041 		mov	r1, #32768
 595 02b6 F4E7     		b	.L23
 596              	.L67:
 597 02b8 4FF40021 		mov	r1, #524288
 598 02bc F1E7     		b	.L23
 599              	.L68:
 600 02be 4FF40001 		mov	r1, #8388608
 601 02c2 EEE7     		b	.L23
 602              	.L69:
 603 02c4 4FF00061 		mov	r1, #134217728
 604 02c8 EBE7     		b	.L23
 605              	.L70:
 606 02ca 0821     		movs	r1, #8
 607 02cc E9E7     		b	.L23
 608              	.L71:
 609 02ce 8021     		movs	r1, #128
 610 02d0 E7E7     		b	.L23
 611              	.L72:
 612 02d2 4FF40061 		mov	r1, #2048
 613 02d6 E4E7     		b	.L23
 614              	.L99:
 266:./Drivers/STM32F1xx_HAL_Driver/Src/stm32f1xx_hal_dma.c ****   
 615              		.loc 1 266 0 is_stmt 1
 616 02d8 4FF48041 		mov	r1, #16384
 617 02dc 00E0     		b	.L25
 618              	.L74:
 619 02de 0421     		movs	r1, #4
 620              	.L25:
 266:./Drivers/STM32F1xx_HAL_Driver/Src/stm32f1xx_hal_dma.c ****   
 621              		.loc 1 266 0 is_stmt 0 discriminator 46
 622 02e0 114A     		ldr	r2, .L102+4
 623 02e2 5160     		str	r1, [r2, #4]
 624              	.L26:
 269:./Drivers/STM32F1xx_HAL_Driver/Src/stm32f1xx_hal_dma.c **** 
 625              		.loc 1 269 0 is_stmt 1
 626 02e4 0020     		movs	r0, #0
ARM GAS  /tmp/ccBdMCBM.s 			page 26


 627              	.LVL15:
 628 02e6 5863     		str	r0, [r3, #52]
 272:./Drivers/STM32F1xx_HAL_Driver/Src/stm32f1xx_hal_dma.c **** 
 629              		.loc 1 272 0
 630 02e8 83F82100 		strb	r0, [r3, #33]
 275:./Drivers/STM32F1xx_HAL_Driver/Src/stm32f1xx_hal_dma.c **** 
 631              		.loc 1 275 0
 632 02ec 83F82000 		strb	r0, [r3, #32]
 277:./Drivers/STM32F1xx_HAL_Driver/Src/stm32f1xx_hal_dma.c **** }
 633              		.loc 1 277 0
 634 02f0 7047     		bx	lr
 635              	.LVL16:
 636              	.L75:
 266:./Drivers/STM32F1xx_HAL_Driver/Src/stm32f1xx_hal_dma.c ****   
 637              		.loc 1 266 0
 638 02f2 4021     		movs	r1, #64
 639 02f4 F4E7     		b	.L25
 640              	.L76:
 641 02f6 4FF48061 		mov	r1, #1024
 642 02fa F1E7     		b	.L25
 643              	.L77:
 644 02fc 4FF48041 		mov	r1, #16384
 645 0300 EEE7     		b	.L25
 646              	.L78:
 647 0302 4FF48021 		mov	r1, #262144
 648 0306 EBE7     		b	.L25
 649              	.L79:
 650 0308 4FF48001 		mov	r1, #4194304
 651 030c E8E7     		b	.L25
 652              	.L80:
 653 030e 4FF08061 		mov	r1, #67108864
 654 0312 E5E7     		b	.L25
 655              	.L81:
 656 0314 0421     		movs	r1, #4
 657 0316 E3E7     		b	.L25
 658              	.L82:
 659 0318 4021     		movs	r1, #64
 660 031a E1E7     		b	.L25
 661              	.L83:
 662 031c 4FF48061 		mov	r1, #1024
 663 0320 DEE7     		b	.L25
 664              	.L103:
 665 0322 00BF     		.align	2
 666              	.L102:
 667 0324 80000240 		.word	1073873024
 668 0328 00040240 		.word	1073873920
 669 032c 08000240 		.word	1073872904
 670 0330 00000240 		.word	1073872896
 671              	.L24:
 266:./Drivers/STM32F1xx_HAL_Driver/Src/stm32f1xx_hal_dma.c ****   
 672              		.loc 1 266 0 is_stmt 0 discriminator 2
 673 0334 2349     		ldr	r1, .L104
 674 0336 8A42     		cmp	r2, r1
 675 0338 24D0     		beq	.L85
 266:./Drivers/STM32F1xx_HAL_Driver/Src/stm32f1xx_hal_dma.c ****   
 676              		.loc 1 266 0 discriminator 47
 677 033a 1431     		adds	r1, r1, #20
ARM GAS  /tmp/ccBdMCBM.s 			page 27


 678 033c 8A42     		cmp	r2, r1
 679 033e 25D0     		beq	.L86
 266:./Drivers/STM32F1xx_HAL_Driver/Src/stm32f1xx_hal_dma.c ****   
 680              		.loc 1 266 0 discriminator 49
 681 0340 1431     		adds	r1, r1, #20
 682 0342 8A42     		cmp	r2, r1
 683 0344 24D0     		beq	.L87
 266:./Drivers/STM32F1xx_HAL_Driver/Src/stm32f1xx_hal_dma.c ****   
 684              		.loc 1 266 0 discriminator 51
 685 0346 1431     		adds	r1, r1, #20
 686 0348 8A42     		cmp	r2, r1
 687 034a 24D0     		beq	.L88
 266:./Drivers/STM32F1xx_HAL_Driver/Src/stm32f1xx_hal_dma.c ****   
 688              		.loc 1 266 0 discriminator 53
 689 034c 1431     		adds	r1, r1, #20
 690 034e 8A42     		cmp	r2, r1
 691 0350 24D0     		beq	.L89
 266:./Drivers/STM32F1xx_HAL_Driver/Src/stm32f1xx_hal_dma.c ****   
 692              		.loc 1 266 0 discriminator 55
 693 0352 1431     		adds	r1, r1, #20
 694 0354 8A42     		cmp	r2, r1
 695 0356 24D0     		beq	.L90
 266:./Drivers/STM32F1xx_HAL_Driver/Src/stm32f1xx_hal_dma.c ****   
 696              		.loc 1 266 0 discriminator 57
 697 0358 1431     		adds	r1, r1, #20
 698 035a 8A42     		cmp	r2, r1
 699 035c 24D0     		beq	.L91
 266:./Drivers/STM32F1xx_HAL_Driver/Src/stm32f1xx_hal_dma.c ****   
 700              		.loc 1 266 0 discriminator 59
 701 035e 01F56271 		add	r1, r1, #904
 702 0362 8A42     		cmp	r2, r1
 703 0364 23D0     		beq	.L92
 266:./Drivers/STM32F1xx_HAL_Driver/Src/stm32f1xx_hal_dma.c ****   
 704              		.loc 1 266 0 discriminator 61
 705 0366 1431     		adds	r1, r1, #20
 706 0368 8A42     		cmp	r2, r1
 707 036a 22D0     		beq	.L93
 266:./Drivers/STM32F1xx_HAL_Driver/Src/stm32f1xx_hal_dma.c ****   
 708              		.loc 1 266 0 discriminator 63
 709 036c 1431     		adds	r1, r1, #20
 710 036e 8A42     		cmp	r2, r1
 711 0370 21D0     		beq	.L94
 266:./Drivers/STM32F1xx_HAL_Driver/Src/stm32f1xx_hal_dma.c ****   
 712              		.loc 1 266 0 discriminator 65
 713 0372 1431     		adds	r1, r1, #20
 714 0374 8A42     		cmp	r2, r1
 715 0376 02D0     		beq	.L101
 266:./Drivers/STM32F1xx_HAL_Driver/Src/stm32f1xx_hal_dma.c ****   
 716              		.loc 1 266 0
 717 0378 4FF48021 		mov	r1, #262144
 718 037c 03E0     		b	.L27
 719              	.L101:
 720 037e 4FF48041 		mov	r1, #16384
 721 0382 00E0     		b	.L27
 722              	.L85:
 723 0384 0421     		movs	r1, #4
 724              	.L27:
ARM GAS  /tmp/ccBdMCBM.s 			page 28


 266:./Drivers/STM32F1xx_HAL_Driver/Src/stm32f1xx_hal_dma.c ****   
 725              		.loc 1 266 0 discriminator 90
 726 0386 104A     		ldr	r2, .L104+4
 727 0388 5160     		str	r1, [r2, #4]
 728 038a ABE7     		b	.L26
 729              	.L86:
 266:./Drivers/STM32F1xx_HAL_Driver/Src/stm32f1xx_hal_dma.c ****   
 730              		.loc 1 266 0
 731 038c 4021     		movs	r1, #64
 732 038e FAE7     		b	.L27
 733              	.L87:
 734 0390 4FF48061 		mov	r1, #1024
 735 0394 F7E7     		b	.L27
 736              	.L88:
 737 0396 4FF48041 		mov	r1, #16384
 738 039a F4E7     		b	.L27
 739              	.L89:
 740 039c 4FF48021 		mov	r1, #262144
 741 03a0 F1E7     		b	.L27
 742              	.L90:
 743 03a2 4FF48001 		mov	r1, #4194304
 744 03a6 EEE7     		b	.L27
 745              	.L91:
 746 03a8 4FF08061 		mov	r1, #67108864
 747 03ac EBE7     		b	.L27
 748              	.L92:
 749 03ae 0421     		movs	r1, #4
 750 03b0 E9E7     		b	.L27
 751              	.L93:
 752 03b2 4021     		movs	r1, #64
 753 03b4 E7E7     		b	.L27
 754              	.L94:
 755 03b6 4FF48061 		mov	r1, #1024
 756 03ba E4E7     		b	.L27
 757              	.L28:
 236:./Drivers/STM32F1xx_HAL_Driver/Src/stm32f1xx_hal_dma.c ****   }
 758              		.loc 1 236 0 is_stmt 1
 759 03bc 0120     		movs	r0, #1
 760              	.LVL17:
 761 03be 7047     		bx	lr
 762              	.LVL18:
 763              	.L29:
 245:./Drivers/STM32F1xx_HAL_Driver/Src/stm32f1xx_hal_dma.c ****   }
 764              		.loc 1 245 0
 765 03c0 0120     		movs	r0, #1
 766              	.LVL19:
 278:./Drivers/STM32F1xx_HAL_Driver/Src/stm32f1xx_hal_dma.c **** 
 767              		.loc 1 278 0
 768 03c2 7047     		bx	lr
 769              	.L105:
 770              		.align	2
 771              	.L104:
 772 03c4 08000240 		.word	1073872904
 773 03c8 00000240 		.word	1073872896
 774              		.cfi_endproc
 775              	.LFE67:
 777              		.section	.text.HAL_DMA_Start,"ax",%progbits
ARM GAS  /tmp/ccBdMCBM.s 			page 29


 778              		.align	1
 779              		.global	HAL_DMA_Start
 780              		.syntax unified
 781              		.thumb
 782              		.thumb_func
 783              		.fpu softvfp
 785              	HAL_DMA_Start:
 786              	.LFB68:
 313:./Drivers/STM32F1xx_HAL_Driver/Src/stm32f1xx_hal_dma.c ****   /* Process locked */
 787              		.loc 1 313 0
 788              		.cfi_startproc
 789              		@ args = 0, pretend = 0, frame = 0
 790              		@ frame_needed = 0, uses_anonymous_args = 0
 791              	.LVL20:
 792 0000 38B5     		push	{r3, r4, r5, lr}
 793              	.LCFI5:
 794              		.cfi_def_cfa_offset 16
 795              		.cfi_offset 3, -16
 796              		.cfi_offset 4, -12
 797              		.cfi_offset 5, -8
 798              		.cfi_offset 14, -4
 315:./Drivers/STM32F1xx_HAL_Driver/Src/stm32f1xx_hal_dma.c **** 
 799              		.loc 1 315 0
 800 0002 90F82040 		ldrb	r4, [r0, #32]	@ zero_extendqisi2
 801 0006 012C     		cmp	r4, #1
 802 0008 15D0     		beq	.L108
 803 000a 0446     		mov	r4, r0
 315:./Drivers/STM32F1xx_HAL_Driver/Src/stm32f1xx_hal_dma.c **** 
 804              		.loc 1 315 0 is_stmt 0 discriminator 2
 805 000c 0120     		movs	r0, #1
 806              	.LVL21:
 807 000e 84F82000 		strb	r0, [r4, #32]
 318:./Drivers/STM32F1xx_HAL_Driver/Src/stm32f1xx_hal_dma.c **** 
 808              		.loc 1 318 0 is_stmt 1 discriminator 2
 809 0012 0220     		movs	r0, #2
 810 0014 84F82100 		strb	r0, [r4, #33]
 324:./Drivers/STM32F1xx_HAL_Driver/Src/stm32f1xx_hal_dma.c ****   
 811              		.loc 1 324 0 discriminator 2
 812 0018 2568     		ldr	r5, [r4]
 813 001a 2868     		ldr	r0, [r5]
 814 001c 20F00100 		bic	r0, r0, #1
 815 0020 2860     		str	r0, [r5]
 327:./Drivers/STM32F1xx_HAL_Driver/Src/stm32f1xx_hal_dma.c **** 
 816              		.loc 1 327 0 discriminator 2
 817 0022 2046     		mov	r0, r4
 818 0024 FFF7FEFF 		bl	DMA_SetConfig
 819              	.LVL22:
 330:./Drivers/STM32F1xx_HAL_Driver/Src/stm32f1xx_hal_dma.c **** 
 820              		.loc 1 330 0 discriminator 2
 821 0028 2268     		ldr	r2, [r4]
 822 002a 1368     		ldr	r3, [r2]
 823 002c 43F00103 		orr	r3, r3, #1
 824 0030 1360     		str	r3, [r2]
 332:./Drivers/STM32F1xx_HAL_Driver/Src/stm32f1xx_hal_dma.c **** }
 825              		.loc 1 332 0 discriminator 2
 826 0032 0020     		movs	r0, #0
 827              	.LVL23:
ARM GAS  /tmp/ccBdMCBM.s 			page 30


 828              	.L107:
 333:./Drivers/STM32F1xx_HAL_Driver/Src/stm32f1xx_hal_dma.c **** 
 829              		.loc 1 333 0
 830 0034 38BD     		pop	{r3, r4, r5, pc}
 831              	.LVL24:
 832              	.L108:
 315:./Drivers/STM32F1xx_HAL_Driver/Src/stm32f1xx_hal_dma.c **** 
 833              		.loc 1 315 0
 834 0036 0220     		movs	r0, #2
 835              	.LVL25:
 836 0038 FCE7     		b	.L107
 837              		.cfi_endproc
 838              	.LFE68:
 840              		.section	.text.HAL_DMA_Start_IT,"ax",%progbits
 841              		.align	1
 842              		.global	HAL_DMA_Start_IT
 843              		.syntax unified
 844              		.thumb
 845              		.thumb_func
 846              		.fpu softvfp
 848              	HAL_DMA_Start_IT:
 849              	.LFB69:
 345:./Drivers/STM32F1xx_HAL_Driver/Src/stm32f1xx_hal_dma.c ****   /* Process locked */
 850              		.loc 1 345 0
 851              		.cfi_startproc
 852              		@ args = 0, pretend = 0, frame = 0
 853              		@ frame_needed = 0, uses_anonymous_args = 0
 854              	.LVL26:
 855 0000 38B5     		push	{r3, r4, r5, lr}
 856              	.LCFI6:
 857              		.cfi_def_cfa_offset 16
 858              		.cfi_offset 3, -16
 859              		.cfi_offset 4, -12
 860              		.cfi_offset 5, -8
 861              		.cfi_offset 14, -4
 347:./Drivers/STM32F1xx_HAL_Driver/Src/stm32f1xx_hal_dma.c **** 
 862              		.loc 1 347 0
 863 0002 90F82040 		ldrb	r4, [r0, #32]	@ zero_extendqisi2
 864 0006 012C     		cmp	r4, #1
 865 0008 24D0     		beq	.L112
 866 000a 0446     		mov	r4, r0
 347:./Drivers/STM32F1xx_HAL_Driver/Src/stm32f1xx_hal_dma.c **** 
 867              		.loc 1 347 0 is_stmt 0 discriminator 2
 868 000c 0120     		movs	r0, #1
 869              	.LVL27:
 870 000e 84F82000 		strb	r0, [r4, #32]
 350:./Drivers/STM32F1xx_HAL_Driver/Src/stm32f1xx_hal_dma.c **** 
 871              		.loc 1 350 0 is_stmt 1 discriminator 2
 872 0012 0220     		movs	r0, #2
 873 0014 84F82100 		strb	r0, [r4, #33]
 356:./Drivers/STM32F1xx_HAL_Driver/Src/stm32f1xx_hal_dma.c ****   
 874              		.loc 1 356 0 discriminator 2
 875 0018 2568     		ldr	r5, [r4]
 876 001a 2868     		ldr	r0, [r5]
 877 001c 20F00100 		bic	r0, r0, #1
 878 0020 2860     		str	r0, [r5]
 359:./Drivers/STM32F1xx_HAL_Driver/Src/stm32f1xx_hal_dma.c ****   
ARM GAS  /tmp/ccBdMCBM.s 			page 31


 879              		.loc 1 359 0 discriminator 2
 880 0022 2046     		mov	r0, r4
 881 0024 FFF7FEFF 		bl	DMA_SetConfig
 882              	.LVL28:
 362:./Drivers/STM32F1xx_HAL_Driver/Src/stm32f1xx_hal_dma.c **** 
 883              		.loc 1 362 0 discriminator 2
 884 0028 2268     		ldr	r2, [r4]
 885 002a 1368     		ldr	r3, [r2]
 886 002c 43F00203 		orr	r3, r3, #2
 887 0030 1360     		str	r3, [r2]
 365:./Drivers/STM32F1xx_HAL_Driver/Src/stm32f1xx_hal_dma.c **** 
 888              		.loc 1 365 0 discriminator 2
 889 0032 2268     		ldr	r2, [r4]
 890 0034 1368     		ldr	r3, [r2]
 891 0036 43F00403 		orr	r3, r3, #4
 892 003a 1360     		str	r3, [r2]
 368:./Drivers/STM32F1xx_HAL_Driver/Src/stm32f1xx_hal_dma.c ****   
 893              		.loc 1 368 0 discriminator 2
 894 003c 2268     		ldr	r2, [r4]
 895 003e 1368     		ldr	r3, [r2]
 896 0040 43F00803 		orr	r3, r3, #8
 897 0044 1360     		str	r3, [r2]
 371:./Drivers/STM32F1xx_HAL_Driver/Src/stm32f1xx_hal_dma.c ****   
 898              		.loc 1 371 0 discriminator 2
 899 0046 2268     		ldr	r2, [r4]
 900 0048 1368     		ldr	r3, [r2]
 901 004a 43F00103 		orr	r3, r3, #1
 902 004e 1360     		str	r3, [r2]
 373:./Drivers/STM32F1xx_HAL_Driver/Src/stm32f1xx_hal_dma.c **** } 
 903              		.loc 1 373 0 discriminator 2
 904 0050 0020     		movs	r0, #0
 905              	.LVL29:
 906              	.L111:
 374:./Drivers/STM32F1xx_HAL_Driver/Src/stm32f1xx_hal_dma.c **** 
 907              		.loc 1 374 0
 908 0052 38BD     		pop	{r3, r4, r5, pc}
 909              	.LVL30:
 910              	.L112:
 347:./Drivers/STM32F1xx_HAL_Driver/Src/stm32f1xx_hal_dma.c **** 
 911              		.loc 1 347 0
 912 0054 0220     		movs	r0, #2
 913              	.LVL31:
 914 0056 FCE7     		b	.L111
 915              		.cfi_endproc
 916              	.LFE69:
 918              		.section	.text.HAL_DMA_Abort,"ax",%progbits
 919              		.align	1
 920              		.global	HAL_DMA_Abort
 921              		.syntax unified
 922              		.thumb
 923              		.thumb_func
 924              		.fpu softvfp
 926              	HAL_DMA_Abort:
 927              	.LFB70:
 389:./Drivers/STM32F1xx_HAL_Driver/Src/stm32f1xx_hal_dma.c ****   uint32_t tickstart = 0x00;
 928              		.loc 1 389 0
 929              		.cfi_startproc
ARM GAS  /tmp/ccBdMCBM.s 			page 32


 930              		@ args = 0, pretend = 0, frame = 0
 931              		@ frame_needed = 0, uses_anonymous_args = 0
 932              	.LVL32:
 933 0000 38B5     		push	{r3, r4, r5, lr}
 934              	.LCFI7:
 935              		.cfi_def_cfa_offset 16
 936              		.cfi_offset 3, -16
 937              		.cfi_offset 4, -12
 938              		.cfi_offset 5, -8
 939              		.cfi_offset 14, -4
 940 0002 0446     		mov	r4, r0
 941              	.LVL33:
 393:./Drivers/STM32F1xx_HAL_Driver/Src/stm32f1xx_hal_dma.c **** 
 942              		.loc 1 393 0
 943 0004 0268     		ldr	r2, [r0]
 944 0006 1368     		ldr	r3, [r2]
 945 0008 23F00103 		bic	r3, r3, #1
 946 000c 1360     		str	r3, [r2]
 396:./Drivers/STM32F1xx_HAL_Driver/Src/stm32f1xx_hal_dma.c ****   
 947              		.loc 1 396 0
 948 000e FFF7FEFF 		bl	HAL_GetTick
 949              	.LVL34:
 950 0012 0546     		mov	r5, r0
 951              	.LVL35:
 952              	.L115:
 399:./Drivers/STM32F1xx_HAL_Driver/Src/stm32f1xx_hal_dma.c ****   {
 953              		.loc 1 399 0
 954 0014 2368     		ldr	r3, [r4]
 955 0016 1B68     		ldr	r3, [r3]
 956 0018 13F0010F 		tst	r3, #1
 957 001c 10D0     		beq	.L119
 402:./Drivers/STM32F1xx_HAL_Driver/Src/stm32f1xx_hal_dma.c ****     {
 958              		.loc 1 402 0
 959 001e FFF7FEFF 		bl	HAL_GetTick
 960              	.LVL36:
 961 0022 401B     		subs	r0, r0, r5
 962 0024 B0F57A7F 		cmp	r0, #1000
 963 0028 F4D9     		bls	.L115
 405:./Drivers/STM32F1xx_HAL_Driver/Src/stm32f1xx_hal_dma.c **** 
 964              		.loc 1 405 0
 965 002a 636B     		ldr	r3, [r4, #52]
 966 002c 43F02003 		orr	r3, r3, #32
 967 0030 6363     		str	r3, [r4, #52]
 408:./Drivers/STM32F1xx_HAL_Driver/Src/stm32f1xx_hal_dma.c **** 
 968              		.loc 1 408 0
 969 0032 0320     		movs	r0, #3
 970 0034 84F82100 		strb	r0, [r4, #33]
 411:./Drivers/STM32F1xx_HAL_Driver/Src/stm32f1xx_hal_dma.c **** 
 971              		.loc 1 411 0
 972 0038 0023     		movs	r3, #0
 973 003a 84F82030 		strb	r3, [r4, #32]
 413:./Drivers/STM32F1xx_HAL_Driver/Src/stm32f1xx_hal_dma.c ****     }
 974              		.loc 1 413 0
 975 003e 05E0     		b	.L116
 976              	.L119:
 417:./Drivers/STM32F1xx_HAL_Driver/Src/stm32f1xx_hal_dma.c ****   
 977              		.loc 1 417 0
ARM GAS  /tmp/ccBdMCBM.s 			page 33


 978 0040 0123     		movs	r3, #1
 979 0042 84F82130 		strb	r3, [r4, #33]
 420:./Drivers/STM32F1xx_HAL_Driver/Src/stm32f1xx_hal_dma.c ****   
 980              		.loc 1 420 0
 981 0046 0020     		movs	r0, #0
 982 0048 84F82000 		strb	r0, [r4, #32]
 983              	.L116:
 423:./Drivers/STM32F1xx_HAL_Driver/Src/stm32f1xx_hal_dma.c **** 
 984              		.loc 1 423 0
 985 004c 38BD     		pop	{r3, r4, r5, pc}
 986              		.cfi_endproc
 987              	.LFE70:
 989              		.section	.text.HAL_DMA_PollForTransfer,"ax",%progbits
 990              		.align	1
 991              		.global	HAL_DMA_PollForTransfer
 992              		.syntax unified
 993              		.thumb
 994              		.thumb_func
 995              		.fpu softvfp
 997              	HAL_DMA_PollForTransfer:
 998              	.LFB71:
 434:./Drivers/STM32F1xx_HAL_Driver/Src/stm32f1xx_hal_dma.c ****   uint32_t temp;
 999              		.loc 1 434 0
 1000              		.cfi_startproc
 1001              		@ args = 0, pretend = 0, frame = 0
 1002              		@ frame_needed = 0, uses_anonymous_args = 0
 1003              	.LVL37:
 1004 0000 2DE9F041 		push	{r4, r5, r6, r7, r8, lr}
 1005              	.LCFI8:
 1006              		.cfi_def_cfa_offset 24
 1007              		.cfi_offset 4, -24
 1008              		.cfi_offset 5, -20
 1009              		.cfi_offset 6, -16
 1010              		.cfi_offset 7, -12
 1011              		.cfi_offset 8, -8
 1012              		.cfi_offset 14, -4
 1013 0004 0446     		mov	r4, r0
 1014 0006 1646     		mov	r6, r2
 1015              	.LVL38:
 439:./Drivers/STM32F1xx_HAL_Driver/Src/stm32f1xx_hal_dma.c ****   {
 1016              		.loc 1 439 0
 1017 0008 0F46     		mov	r7, r1
 1018 000a 41BB     		cbnz	r1, .L121
 442:./Drivers/STM32F1xx_HAL_Driver/Src/stm32f1xx_hal_dma.c ****   }
 1019              		.loc 1 442 0
 1020 000c 0368     		ldr	r3, [r0]
 1021 000e B74A     		ldr	r2, .L273
 1022              	.LVL39:
 1023 0010 9342     		cmp	r3, r2
 1024 0012 4DD0     		beq	.L149
 442:./Drivers/STM32F1xx_HAL_Driver/Src/stm32f1xx_hal_dma.c ****   }
 1025              		.loc 1 442 0 is_stmt 0 discriminator 1
 1026 0014 1432     		adds	r2, r2, #20
 1027 0016 9342     		cmp	r3, r2
 1028 0018 4FD0     		beq	.L150
 442:./Drivers/STM32F1xx_HAL_Driver/Src/stm32f1xx_hal_dma.c ****   }
 1029              		.loc 1 442 0 discriminator 3
ARM GAS  /tmp/ccBdMCBM.s 			page 34


 1030 001a 1432     		adds	r2, r2, #20
 1031 001c 9342     		cmp	r3, r2
 1032 001e 4ED0     		beq	.L151
 442:./Drivers/STM32F1xx_HAL_Driver/Src/stm32f1xx_hal_dma.c ****   }
 1033              		.loc 1 442 0 discriminator 5
 1034 0020 1432     		adds	r2, r2, #20
 1035 0022 9342     		cmp	r3, r2
 1036 0024 4ED0     		beq	.L152
 442:./Drivers/STM32F1xx_HAL_Driver/Src/stm32f1xx_hal_dma.c ****   }
 1037              		.loc 1 442 0 discriminator 7
 1038 0026 1432     		adds	r2, r2, #20
 1039 0028 9342     		cmp	r3, r2
 1040 002a 4ED0     		beq	.L153
 442:./Drivers/STM32F1xx_HAL_Driver/Src/stm32f1xx_hal_dma.c ****   }
 1041              		.loc 1 442 0 discriminator 9
 1042 002c 1432     		adds	r2, r2, #20
 1043 002e 9342     		cmp	r3, r2
 1044 0030 4ED0     		beq	.L154
 442:./Drivers/STM32F1xx_HAL_Driver/Src/stm32f1xx_hal_dma.c ****   }
 1045              		.loc 1 442 0 discriminator 11
 1046 0032 1432     		adds	r2, r2, #20
 1047 0034 9342     		cmp	r3, r2
 1048 0036 4ED0     		beq	.L155
 442:./Drivers/STM32F1xx_HAL_Driver/Src/stm32f1xx_hal_dma.c ****   }
 1049              		.loc 1 442 0 discriminator 13
 1050 0038 02F56272 		add	r2, r2, #904
 1051 003c 9342     		cmp	r3, r2
 1052 003e 4DD0     		beq	.L156
 442:./Drivers/STM32F1xx_HAL_Driver/Src/stm32f1xx_hal_dma.c ****   }
 1053              		.loc 1 442 0 discriminator 15
 1054 0040 1432     		adds	r2, r2, #20
 1055 0042 9342     		cmp	r3, r2
 1056 0044 4CD0     		beq	.L157
 442:./Drivers/STM32F1xx_HAL_Driver/Src/stm32f1xx_hal_dma.c ****   }
 1057              		.loc 1 442 0 discriminator 17
 1058 0046 1432     		adds	r2, r2, #20
 1059 0048 9342     		cmp	r3, r2
 1060 004a 4BD0     		beq	.L158
 442:./Drivers/STM32F1xx_HAL_Driver/Src/stm32f1xx_hal_dma.c ****   }
 1061              		.loc 1 442 0 discriminator 19
 1062 004c 1432     		adds	r2, r2, #20
 1063 004e 9342     		cmp	r3, r2
 1064 0050 02D0     		beq	.L260
 442:./Drivers/STM32F1xx_HAL_Driver/Src/stm32f1xx_hal_dma.c ****   }
 1065              		.loc 1 442 0
 1066 0052 4FF40035 		mov	r5, #131072
 1067 0056 2CE0     		b	.L122
 1068              	.L260:
 1069 0058 4FF40055 		mov	r5, #8192
 1070 005c 29E0     		b	.L122
 1071              	.LVL40:
 1072              	.L121:
 447:./Drivers/STM32F1xx_HAL_Driver/Src/stm32f1xx_hal_dma.c ****   }
 1073              		.loc 1 447 0 is_stmt 1
 1074 005e 0368     		ldr	r3, [r0]
 1075 0060 A24A     		ldr	r2, .L273
 1076              	.LVL41:
ARM GAS  /tmp/ccBdMCBM.s 			page 35


 1077 0062 9342     		cmp	r3, r2
 1078 0064 41D0     		beq	.L160
 447:./Drivers/STM32F1xx_HAL_Driver/Src/stm32f1xx_hal_dma.c ****   }
 1079              		.loc 1 447 0 is_stmt 0 discriminator 1
 1080 0066 1432     		adds	r2, r2, #20
 1081 0068 9342     		cmp	r3, r2
 1082 006a 40D0     		beq	.L161
 447:./Drivers/STM32F1xx_HAL_Driver/Src/stm32f1xx_hal_dma.c ****   }
 1083              		.loc 1 447 0 discriminator 3
 1084 006c 1432     		adds	r2, r2, #20
 1085 006e 9342     		cmp	r3, r2
 1086 0070 3FD0     		beq	.L162
 447:./Drivers/STM32F1xx_HAL_Driver/Src/stm32f1xx_hal_dma.c ****   }
 1087              		.loc 1 447 0 discriminator 5
 1088 0072 1432     		adds	r2, r2, #20
 1089 0074 9342     		cmp	r3, r2
 1090 0076 3FD0     		beq	.L163
 447:./Drivers/STM32F1xx_HAL_Driver/Src/stm32f1xx_hal_dma.c ****   }
 1091              		.loc 1 447 0 discriminator 7
 1092 0078 1432     		adds	r2, r2, #20
 1093 007a 9342     		cmp	r3, r2
 1094 007c 3FD0     		beq	.L164
 447:./Drivers/STM32F1xx_HAL_Driver/Src/stm32f1xx_hal_dma.c ****   }
 1095              		.loc 1 447 0 discriminator 9
 1096 007e 1432     		adds	r2, r2, #20
 1097 0080 9342     		cmp	r3, r2
 1098 0082 3FD0     		beq	.L165
 447:./Drivers/STM32F1xx_HAL_Driver/Src/stm32f1xx_hal_dma.c ****   }
 1099              		.loc 1 447 0 discriminator 11
 1100 0084 1432     		adds	r2, r2, #20
 1101 0086 9342     		cmp	r3, r2
 1102 0088 3FD0     		beq	.L166
 447:./Drivers/STM32F1xx_HAL_Driver/Src/stm32f1xx_hal_dma.c ****   }
 1103              		.loc 1 447 0 discriminator 13
 1104 008a 02F56272 		add	r2, r2, #904
 1105 008e 9342     		cmp	r3, r2
 1106 0090 3ED0     		beq	.L167
 447:./Drivers/STM32F1xx_HAL_Driver/Src/stm32f1xx_hal_dma.c ****   }
 1107              		.loc 1 447 0 discriminator 15
 1108 0092 1432     		adds	r2, r2, #20
 1109 0094 9342     		cmp	r3, r2
 1110 0096 3DD0     		beq	.L168
 447:./Drivers/STM32F1xx_HAL_Driver/Src/stm32f1xx_hal_dma.c ****   }
 1111              		.loc 1 447 0 discriminator 17
 1112 0098 1432     		adds	r2, r2, #20
 1113 009a 9342     		cmp	r3, r2
 1114 009c 3CD0     		beq	.L169
 447:./Drivers/STM32F1xx_HAL_Driver/Src/stm32f1xx_hal_dma.c ****   }
 1115              		.loc 1 447 0 discriminator 19
 1116 009e 1432     		adds	r2, r2, #20
 1117 00a0 9342     		cmp	r3, r2
 1118 00a2 02D0     		beq	.L261
 447:./Drivers/STM32F1xx_HAL_Driver/Src/stm32f1xx_hal_dma.c ****   }
 1119              		.loc 1 447 0
 1120 00a4 4FF48025 		mov	r5, #262144
 1121 00a8 03E0     		b	.L122
 1122              	.L261:
ARM GAS  /tmp/ccBdMCBM.s 			page 36


 1123 00aa 4FF48045 		mov	r5, #16384
 1124 00ae 00E0     		b	.L122
 1125              	.L149:
 442:./Drivers/STM32F1xx_HAL_Driver/Src/stm32f1xx_hal_dma.c ****   }
 1126              		.loc 1 442 0 is_stmt 1
 1127 00b0 0225     		movs	r5, #2
 1128              	.L122:
 1129              	.LVL42:
 451:./Drivers/STM32F1xx_HAL_Driver/Src/stm32f1xx_hal_dma.c **** 
 1130              		.loc 1 451 0
 1131 00b2 FFF7FEFF 		bl	HAL_GetTick
 1132              	.LVL43:
 1133 00b6 8046     		mov	r8, r0
 1134              	.LVL44:
 453:./Drivers/STM32F1xx_HAL_Driver/Src/stm32f1xx_hal_dma.c ****   {
 1135              		.loc 1 453 0
 1136 00b8 40E0     		b	.L134
 1137              	.LVL45:
 1138              	.L150:
 442:./Drivers/STM32F1xx_HAL_Driver/Src/stm32f1xx_hal_dma.c ****   }
 1139              		.loc 1 442 0
 1140 00ba 2025     		movs	r5, #32
 1141 00bc F9E7     		b	.L122
 1142              	.L151:
 1143 00be 4FF40075 		mov	r5, #512
 1144 00c2 F6E7     		b	.L122
 1145              	.L152:
 1146 00c4 4FF40055 		mov	r5, #8192
 1147 00c8 F3E7     		b	.L122
 1148              	.L153:
 1149 00ca 4FF40035 		mov	r5, #131072
 1150 00ce F0E7     		b	.L122
 1151              	.L154:
 1152 00d0 4FF40015 		mov	r5, #2097152
 1153 00d4 EDE7     		b	.L122
 1154              	.L155:
 1155 00d6 4FF00075 		mov	r5, #33554432
 1156 00da EAE7     		b	.L122
 1157              	.L156:
 1158 00dc 0225     		movs	r5, #2
 1159 00de E8E7     		b	.L122
 1160              	.L157:
 1161 00e0 2025     		movs	r5, #32
 1162 00e2 E6E7     		b	.L122
 1163              	.L158:
 1164 00e4 4FF40075 		mov	r5, #512
 1165 00e8 E3E7     		b	.L122
 1166              	.L160:
 447:./Drivers/STM32F1xx_HAL_Driver/Src/stm32f1xx_hal_dma.c ****   }
 1167              		.loc 1 447 0
 1168 00ea 0425     		movs	r5, #4
 1169 00ec E1E7     		b	.L122
 1170              	.L161:
 1171 00ee 4025     		movs	r5, #64
 1172 00f0 DFE7     		b	.L122
 1173              	.L162:
 1174 00f2 4FF48065 		mov	r5, #1024
ARM GAS  /tmp/ccBdMCBM.s 			page 37


 1175 00f6 DCE7     		b	.L122
 1176              	.L163:
 1177 00f8 4FF48045 		mov	r5, #16384
 1178 00fc D9E7     		b	.L122
 1179              	.L164:
 1180 00fe 4FF48025 		mov	r5, #262144
 1181 0102 D6E7     		b	.L122
 1182              	.L165:
 1183 0104 4FF48005 		mov	r5, #4194304
 1184 0108 D3E7     		b	.L122
 1185              	.L166:
 1186 010a 4FF08065 		mov	r5, #67108864
 1187 010e D0E7     		b	.L122
 1188              	.L167:
 1189 0110 0425     		movs	r5, #4
 1190 0112 CEE7     		b	.L122
 1191              	.L168:
 1192 0114 4025     		movs	r5, #64
 1193 0116 CCE7     		b	.L122
 1194              	.L169:
 1195 0118 4FF48065 		mov	r5, #1024
 1196 011c C9E7     		b	.L122
 1197              	.LVL46:
 1198              	.L265:
 455:./Drivers/STM32F1xx_HAL_Driver/Src/stm32f1xx_hal_dma.c ****     {      
 1199              		.loc 1 455 0
 1200 011e 4FF40040 		mov	r0, #32768
 1201 0122 00E0     		b	.L125
 1202              	.L171:
 1203 0124 0820     		movs	r0, #8
 1204              	.L125:
 455:./Drivers/STM32F1xx_HAL_Driver/Src/stm32f1xx_hal_dma.c ****     {      
 1205              		.loc 1 455 0 is_stmt 0 discriminator 46
 1206 0126 0242     		tst	r2, r0
 1207 0128 14BF     		ite	ne
 1208 012a 0122     		movne	r2, #1
 1209 012c 0022     		moveq	r2, #0
 1210              	.L126:
 455:./Drivers/STM32F1xx_HAL_Driver/Src/stm32f1xx_hal_dma.c ****     {      
 1211              		.loc 1 455 0 discriminator 92
 1212 012e 002A     		cmp	r2, #0
 1213 0130 40F09F80 		bne	.L262
 472:./Drivers/STM32F1xx_HAL_Driver/Src/stm32f1xx_hal_dma.c ****     {
 1214              		.loc 1 472 0 is_stmt 1
 1215 0134 B6F1FF3F 		cmp	r6, #-1
 1216 0138 40F03A81 		bne	.L263
 1217              	.L134:
 453:./Drivers/STM32F1xx_HAL_Driver/Src/stm32f1xx_hal_dma.c ****   {
 1218              		.loc 1 453 0
 1219 013c 2368     		ldr	r3, [r4]
 1220 013e 1946     		mov	r1, r3
 1221 0140 6B4A     		ldr	r2, .L273+4
 1222 0142 9342     		cmp	r3, r2
 1223 0144 40F24781 		bls	.L136
 453:./Drivers/STM32F1xx_HAL_Driver/Src/stm32f1xx_hal_dma.c ****   {
 1224              		.loc 1 453 0 is_stmt 0 discriminator 1
 1225 0148 02F56072 		add	r2, r2, #896
ARM GAS  /tmp/ccBdMCBM.s 			page 38


 1226 014c 1268     		ldr	r2, [r2]
 1227 014e 2A42     		tst	r2, r5
 1228 0150 0CBF     		ite	eq
 1229 0152 0122     		moveq	r2, #1
 1230 0154 0022     		movne	r2, #0
 1231              	.L137:
 453:./Drivers/STM32F1xx_HAL_Driver/Src/stm32f1xx_hal_dma.c ****   {
 1232              		.loc 1 453 0 discriminator 4
 1233 0156 002A     		cmp	r2, #0
 1234 0158 00F04481 		beq	.L264
 455:./Drivers/STM32F1xx_HAL_Driver/Src/stm32f1xx_hal_dma.c ****     {      
 1235              		.loc 1 455 0 is_stmt 1
 1236 015c 644A     		ldr	r2, .L273+4
 1237 015e 9342     		cmp	r3, r2
 1238 0160 3FD9     		bls	.L124
 455:./Drivers/STM32F1xx_HAL_Driver/Src/stm32f1xx_hal_dma.c ****     {      
 1239              		.loc 1 455 0 is_stmt 0 discriminator 1
 1240 0162 02F56072 		add	r2, r2, #896
 1241 0166 1268     		ldr	r2, [r2]
 1242 0168 6048     		ldr	r0, .L273
 1243 016a 8342     		cmp	r3, r0
 1244 016c DAD0     		beq	.L171
 455:./Drivers/STM32F1xx_HAL_Driver/Src/stm32f1xx_hal_dma.c ****     {      
 1245              		.loc 1 455 0 discriminator 3
 1246 016e 1430     		adds	r0, r0, #20
 1247 0170 8342     		cmp	r3, r0
 1248 0172 1ED0     		beq	.L172
 455:./Drivers/STM32F1xx_HAL_Driver/Src/stm32f1xx_hal_dma.c ****     {      
 1249              		.loc 1 455 0 discriminator 5
 1250 0174 1430     		adds	r0, r0, #20
 1251 0176 8342     		cmp	r3, r0
 1252 0178 1DD0     		beq	.L173
 455:./Drivers/STM32F1xx_HAL_Driver/Src/stm32f1xx_hal_dma.c ****     {      
 1253              		.loc 1 455 0 discriminator 7
 1254 017a 1430     		adds	r0, r0, #20
 1255 017c 8342     		cmp	r3, r0
 1256 017e 1DD0     		beq	.L174
 455:./Drivers/STM32F1xx_HAL_Driver/Src/stm32f1xx_hal_dma.c ****     {      
 1257              		.loc 1 455 0 discriminator 9
 1258 0180 1430     		adds	r0, r0, #20
 1259 0182 8342     		cmp	r3, r0
 1260 0184 1DD0     		beq	.L175
 455:./Drivers/STM32F1xx_HAL_Driver/Src/stm32f1xx_hal_dma.c ****     {      
 1261              		.loc 1 455 0 discriminator 11
 1262 0186 1430     		adds	r0, r0, #20
 1263 0188 8342     		cmp	r3, r0
 1264 018a 1DD0     		beq	.L176
 455:./Drivers/STM32F1xx_HAL_Driver/Src/stm32f1xx_hal_dma.c ****     {      
 1265              		.loc 1 455 0 discriminator 13
 1266 018c 1430     		adds	r0, r0, #20
 1267 018e 8342     		cmp	r3, r0
 1268 0190 1DD0     		beq	.L177
 455:./Drivers/STM32F1xx_HAL_Driver/Src/stm32f1xx_hal_dma.c ****     {      
 1269              		.loc 1 455 0 discriminator 15
 1270 0192 00F56270 		add	r0, r0, #904
 1271 0196 8342     		cmp	r3, r0
 1272 0198 1CD0     		beq	.L178
ARM GAS  /tmp/ccBdMCBM.s 			page 39


 455:./Drivers/STM32F1xx_HAL_Driver/Src/stm32f1xx_hal_dma.c ****     {      
 1273              		.loc 1 455 0 discriminator 17
 1274 019a 1430     		adds	r0, r0, #20
 1275 019c 8342     		cmp	r3, r0
 1276 019e 1BD0     		beq	.L179
 455:./Drivers/STM32F1xx_HAL_Driver/Src/stm32f1xx_hal_dma.c ****     {      
 1277              		.loc 1 455 0 discriminator 19
 1278 01a0 1430     		adds	r0, r0, #20
 1279 01a2 8342     		cmp	r3, r0
 1280 01a4 1AD0     		beq	.L180
 455:./Drivers/STM32F1xx_HAL_Driver/Src/stm32f1xx_hal_dma.c ****     {      
 1281              		.loc 1 455 0 discriminator 21
 1282 01a6 1430     		adds	r0, r0, #20
 1283 01a8 8342     		cmp	r3, r0
 1284 01aa B8D0     		beq	.L265
 455:./Drivers/STM32F1xx_HAL_Driver/Src/stm32f1xx_hal_dma.c ****     {      
 1285              		.loc 1 455 0
 1286 01ac 4FF40020 		mov	r0, #524288
 1287 01b0 B9E7     		b	.L125
 1288              	.L172:
 1289 01b2 8020     		movs	r0, #128
 1290 01b4 B7E7     		b	.L125
 1291              	.L173:
 1292 01b6 4FF40060 		mov	r0, #2048
 1293 01ba B4E7     		b	.L125
 1294              	.L174:
 1295 01bc 4FF40040 		mov	r0, #32768
 1296 01c0 B1E7     		b	.L125
 1297              	.L175:
 1298 01c2 4FF40020 		mov	r0, #524288
 1299 01c6 AEE7     		b	.L125
 1300              	.L176:
 1301 01c8 4FF40000 		mov	r0, #8388608
 1302 01cc ABE7     		b	.L125
 1303              	.L177:
 1304 01ce 4FF00060 		mov	r0, #134217728
 1305 01d2 A8E7     		b	.L125
 1306              	.L178:
 1307 01d4 0820     		movs	r0, #8
 1308 01d6 A6E7     		b	.L125
 1309              	.L179:
 1310 01d8 8020     		movs	r0, #128
 1311 01da A4E7     		b	.L125
 1312              	.L180:
 1313 01dc 4FF40060 		mov	r0, #2048
 1314 01e0 A1E7     		b	.L125
 1315              	.L124:
 455:./Drivers/STM32F1xx_HAL_Driver/Src/stm32f1xx_hal_dma.c ****     {      
 1316              		.loc 1 455 0 discriminator 2
 1317 01e2 444A     		ldr	r2, .L273+8
 1318 01e4 1268     		ldr	r2, [r2]
 1319 01e6 4148     		ldr	r0, .L273
 1320 01e8 8342     		cmp	r3, r0
 1321 01ea 24D0     		beq	.L182
 455:./Drivers/STM32F1xx_HAL_Driver/Src/stm32f1xx_hal_dma.c ****     {      
 1322              		.loc 1 455 0 discriminator 48
 1323 01ec 1430     		adds	r0, r0, #20
ARM GAS  /tmp/ccBdMCBM.s 			page 40


 1324 01ee 8342     		cmp	r3, r0
 1325 01f0 27D0     		beq	.L183
 455:./Drivers/STM32F1xx_HAL_Driver/Src/stm32f1xx_hal_dma.c ****     {      
 1326              		.loc 1 455 0 discriminator 50
 1327 01f2 1430     		adds	r0, r0, #20
 1328 01f4 8342     		cmp	r3, r0
 1329 01f6 26D0     		beq	.L184
 455:./Drivers/STM32F1xx_HAL_Driver/Src/stm32f1xx_hal_dma.c ****     {      
 1330              		.loc 1 455 0 discriminator 52
 1331 01f8 1430     		adds	r0, r0, #20
 1332 01fa 8342     		cmp	r3, r0
 1333 01fc 26D0     		beq	.L185
 455:./Drivers/STM32F1xx_HAL_Driver/Src/stm32f1xx_hal_dma.c ****     {      
 1334              		.loc 1 455 0 discriminator 54
 1335 01fe 1430     		adds	r0, r0, #20
 1336 0200 8342     		cmp	r3, r0
 1337 0202 26D0     		beq	.L186
 455:./Drivers/STM32F1xx_HAL_Driver/Src/stm32f1xx_hal_dma.c ****     {      
 1338              		.loc 1 455 0 discriminator 56
 1339 0204 1430     		adds	r0, r0, #20
 1340 0206 8342     		cmp	r3, r0
 1341 0208 26D0     		beq	.L187
 455:./Drivers/STM32F1xx_HAL_Driver/Src/stm32f1xx_hal_dma.c ****     {      
 1342              		.loc 1 455 0 discriminator 58
 1343 020a 1430     		adds	r0, r0, #20
 1344 020c 8342     		cmp	r3, r0
 1345 020e 26D0     		beq	.L188
 455:./Drivers/STM32F1xx_HAL_Driver/Src/stm32f1xx_hal_dma.c ****     {      
 1346              		.loc 1 455 0 discriminator 60
 1347 0210 00F56270 		add	r0, r0, #904
 1348 0214 8342     		cmp	r3, r0
 1349 0216 25D0     		beq	.L189
 455:./Drivers/STM32F1xx_HAL_Driver/Src/stm32f1xx_hal_dma.c ****     {      
 1350              		.loc 1 455 0 discriminator 62
 1351 0218 1430     		adds	r0, r0, #20
 1352 021a 8342     		cmp	r3, r0
 1353 021c 24D0     		beq	.L190
 455:./Drivers/STM32F1xx_HAL_Driver/Src/stm32f1xx_hal_dma.c ****     {      
 1354              		.loc 1 455 0 discriminator 64
 1355 021e 1430     		adds	r0, r0, #20
 1356 0220 8342     		cmp	r3, r0
 1357 0222 23D0     		beq	.L191
 455:./Drivers/STM32F1xx_HAL_Driver/Src/stm32f1xx_hal_dma.c ****     {      
 1358              		.loc 1 455 0 discriminator 66
 1359 0224 1430     		adds	r0, r0, #20
 1360 0226 8342     		cmp	r3, r0
 1361 0228 02D0     		beq	.L266
 455:./Drivers/STM32F1xx_HAL_Driver/Src/stm32f1xx_hal_dma.c ****     {      
 1362              		.loc 1 455 0
 1363 022a 4FF40020 		mov	r0, #524288
 1364 022e 03E0     		b	.L127
 1365              	.L266:
 1366 0230 4FF40040 		mov	r0, #32768
 1367 0234 00E0     		b	.L127
 1368              	.L182:
 1369 0236 0820     		movs	r0, #8
 1370              	.L127:
ARM GAS  /tmp/ccBdMCBM.s 			page 41


 455:./Drivers/STM32F1xx_HAL_Driver/Src/stm32f1xx_hal_dma.c ****     {      
 1371              		.loc 1 455 0 discriminator 91
 1372 0238 0242     		tst	r2, r0
 1373 023a 14BF     		ite	ne
 1374 023c 0122     		movne	r2, #1
 1375 023e 0022     		moveq	r2, #0
 1376 0240 75E7     		b	.L126
 1377              	.L183:
 455:./Drivers/STM32F1xx_HAL_Driver/Src/stm32f1xx_hal_dma.c ****     {      
 1378              		.loc 1 455 0
 1379 0242 8020     		movs	r0, #128
 1380 0244 F8E7     		b	.L127
 1381              	.L184:
 1382 0246 4FF40060 		mov	r0, #2048
 1383 024a F5E7     		b	.L127
 1384              	.L185:
 1385 024c 4FF40040 		mov	r0, #32768
 1386 0250 F2E7     		b	.L127
 1387              	.L186:
 1388 0252 4FF40020 		mov	r0, #524288
 1389 0256 EFE7     		b	.L127
 1390              	.L187:
 1391 0258 4FF40000 		mov	r0, #8388608
 1392 025c ECE7     		b	.L127
 1393              	.L188:
 1394 025e 4FF00060 		mov	r0, #134217728
 1395 0262 E9E7     		b	.L127
 1396              	.L189:
 1397 0264 0820     		movs	r0, #8
 1398 0266 E7E7     		b	.L127
 1399              	.L190:
 1400 0268 8020     		movs	r0, #128
 1401 026a E5E7     		b	.L127
 1402              	.L191:
 1403 026c 4FF40060 		mov	r0, #2048
 1404 0270 E2E7     		b	.L127
 1405              	.L262:
 458:./Drivers/STM32F1xx_HAL_Driver/Src/stm32f1xx_hal_dma.c ****       
 1406              		.loc 1 458 0 is_stmt 1
 1407 0272 1F4A     		ldr	r2, .L273+4
 1408 0274 9142     		cmp	r1, r2
 1409 0276 57D9     		bls	.L129
 458:./Drivers/STM32F1xx_HAL_Driver/Src/stm32f1xx_hal_dma.c ****       
 1410              		.loc 1 458 0 is_stmt 0 discriminator 1
 1411 0278 783A     		subs	r2, r2, #120
 1412 027a 9342     		cmp	r3, r2
 1413 027c 24D0     		beq	.L193
 458:./Drivers/STM32F1xx_HAL_Driver/Src/stm32f1xx_hal_dma.c ****       
 1414              		.loc 1 458 0 discriminator 3
 1415 027e 1432     		adds	r2, r2, #20
 1416 0280 9342     		cmp	r3, r2
 1417 0282 30D0     		beq	.L194
 458:./Drivers/STM32F1xx_HAL_Driver/Src/stm32f1xx_hal_dma.c ****       
 1418              		.loc 1 458 0 discriminator 5
 1419 0284 1432     		adds	r2, r2, #20
 1420 0286 9342     		cmp	r3, r2
 1421 0288 38D0     		beq	.L195
ARM GAS  /tmp/ccBdMCBM.s 			page 42


 458:./Drivers/STM32F1xx_HAL_Driver/Src/stm32f1xx_hal_dma.c ****       
 1422              		.loc 1 458 0 discriminator 7
 1423 028a 1432     		adds	r2, r2, #20
 1424 028c 9342     		cmp	r3, r2
 1425 028e 38D0     		beq	.L196
 458:./Drivers/STM32F1xx_HAL_Driver/Src/stm32f1xx_hal_dma.c ****       
 1426              		.loc 1 458 0 discriminator 9
 1427 0290 1432     		adds	r2, r2, #20
 1428 0292 9342     		cmp	r3, r2
 1429 0294 38D0     		beq	.L197
 458:./Drivers/STM32F1xx_HAL_Driver/Src/stm32f1xx_hal_dma.c ****       
 1430              		.loc 1 458 0 discriminator 11
 1431 0296 1432     		adds	r2, r2, #20
 1432 0298 9342     		cmp	r3, r2
 1433 029a 38D0     		beq	.L198
 458:./Drivers/STM32F1xx_HAL_Driver/Src/stm32f1xx_hal_dma.c ****       
 1434              		.loc 1 458 0 discriminator 13
 1435 029c 1432     		adds	r2, r2, #20
 1436 029e 9342     		cmp	r3, r2
 1437 02a0 38D0     		beq	.L199
 458:./Drivers/STM32F1xx_HAL_Driver/Src/stm32f1xx_hal_dma.c ****       
 1438              		.loc 1 458 0 discriminator 15
 1439 02a2 02F56272 		add	r2, r2, #904
 1440 02a6 9342     		cmp	r3, r2
 1441 02a8 37D0     		beq	.L200
 458:./Drivers/STM32F1xx_HAL_Driver/Src/stm32f1xx_hal_dma.c ****       
 1442              		.loc 1 458 0 discriminator 17
 1443 02aa 1432     		adds	r2, r2, #20
 1444 02ac 9342     		cmp	r3, r2
 1445 02ae 36D0     		beq	.L201
 458:./Drivers/STM32F1xx_HAL_Driver/Src/stm32f1xx_hal_dma.c ****       
 1446              		.loc 1 458 0 discriminator 19
 1447 02b0 1432     		adds	r2, r2, #20
 1448 02b2 9342     		cmp	r3, r2
 1449 02b4 35D0     		beq	.L202
 458:./Drivers/STM32F1xx_HAL_Driver/Src/stm32f1xx_hal_dma.c ****       
 1450              		.loc 1 458 0 discriminator 21
 1451 02b6 1432     		adds	r2, r2, #20
 1452 02b8 9342     		cmp	r3, r2
 1453 02ba 02D0     		beq	.L267
 458:./Drivers/STM32F1xx_HAL_Driver/Src/stm32f1xx_hal_dma.c ****       
 1454              		.loc 1 458 0
 1455 02bc 4FF40023 		mov	r3, #524288
 1456 02c0 03E0     		b	.L130
 1457              	.L267:
 1458 02c2 4FF40043 		mov	r3, #32768
 1459 02c6 00E0     		b	.L130
 1460              	.L193:
 1461 02c8 0823     		movs	r3, #8
 1462              	.L130:
 458:./Drivers/STM32F1xx_HAL_Driver/Src/stm32f1xx_hal_dma.c ****       
 1463              		.loc 1 458 0 discriminator 46
 1464 02ca 0B4A     		ldr	r2, .L273+12
 1465 02cc 5360     		str	r3, [r2, #4]
 1466              	.L131:
 461:./Drivers/STM32F1xx_HAL_Driver/Src/stm32f1xx_hal_dma.c **** 
 1467              		.loc 1 461 0 is_stmt 1
ARM GAS  /tmp/ccBdMCBM.s 			page 43


 1468 02ce 636B     		ldr	r3, [r4, #52]
 1469 02d0 43F00103 		orr	r3, r3, #1
 1470 02d4 6363     		str	r3, [r4, #52]
 464:./Drivers/STM32F1xx_HAL_Driver/Src/stm32f1xx_hal_dma.c ****       
 1471              		.loc 1 464 0
 1472 02d6 0423     		movs	r3, #4
 1473 02d8 84F82130 		strb	r3, [r4, #33]
 467:./Drivers/STM32F1xx_HAL_Driver/Src/stm32f1xx_hal_dma.c ****       
 1474              		.loc 1 467 0
 1475 02dc 0023     		movs	r3, #0
 1476 02de 84F82030 		strb	r3, [r4, #32]
 469:./Drivers/STM32F1xx_HAL_Driver/Src/stm32f1xx_hal_dma.c ****     }
 1477              		.loc 1 469 0
 1478 02e2 0120     		movs	r0, #1
 1479 02e4 B5E0     		b	.L133
 1480              	.L194:
 458:./Drivers/STM32F1xx_HAL_Driver/Src/stm32f1xx_hal_dma.c ****       
 1481              		.loc 1 458 0
 1482 02e6 8023     		movs	r3, #128
 1483 02e8 EFE7     		b	.L130
 1484              	.L274:
 1485 02ea 00BF     		.align	2
 1486              	.L273:
 1487 02ec 08000240 		.word	1073872904
 1488 02f0 80000240 		.word	1073873024
 1489 02f4 00000240 		.word	1073872896
 1490 02f8 00040240 		.word	1073873920
 1491              	.L195:
 1492 02fc 4FF40063 		mov	r3, #2048
 1493 0300 E3E7     		b	.L130
 1494              	.L196:
 1495 0302 4FF40043 		mov	r3, #32768
 1496 0306 E0E7     		b	.L130
 1497              	.L197:
 1498 0308 4FF40023 		mov	r3, #524288
 1499 030c DDE7     		b	.L130
 1500              	.L198:
 1501 030e 4FF40003 		mov	r3, #8388608
 1502 0312 DAE7     		b	.L130
 1503              	.L199:
 1504 0314 4FF00063 		mov	r3, #134217728
 1505 0318 D7E7     		b	.L130
 1506              	.L200:
 1507 031a 0823     		movs	r3, #8
 1508 031c D5E7     		b	.L130
 1509              	.L201:
 1510 031e 8023     		movs	r3, #128
 1511 0320 D3E7     		b	.L130
 1512              	.L202:
 1513 0322 4FF40063 		mov	r3, #2048
 1514 0326 D0E7     		b	.L130
 1515              	.L129:
 458:./Drivers/STM32F1xx_HAL_Driver/Src/stm32f1xx_hal_dma.c ****       
 1516              		.loc 1 458 0 is_stmt 0 discriminator 2
 1517 0328 B84A     		ldr	r2, .L275
 1518 032a 9342     		cmp	r3, r2
 1519 032c 24D0     		beq	.L204
ARM GAS  /tmp/ccBdMCBM.s 			page 44


 458:./Drivers/STM32F1xx_HAL_Driver/Src/stm32f1xx_hal_dma.c ****       
 1520              		.loc 1 458 0 discriminator 47
 1521 032e 1432     		adds	r2, r2, #20
 1522 0330 9342     		cmp	r3, r2
 1523 0332 25D0     		beq	.L205
 458:./Drivers/STM32F1xx_HAL_Driver/Src/stm32f1xx_hal_dma.c ****       
 1524              		.loc 1 458 0 discriminator 49
 1525 0334 1432     		adds	r2, r2, #20
 1526 0336 9342     		cmp	r3, r2
 1527 0338 24D0     		beq	.L206
 458:./Drivers/STM32F1xx_HAL_Driver/Src/stm32f1xx_hal_dma.c ****       
 1528              		.loc 1 458 0 discriminator 51
 1529 033a 1432     		adds	r2, r2, #20
 1530 033c 9342     		cmp	r3, r2
 1531 033e 24D0     		beq	.L207
 458:./Drivers/STM32F1xx_HAL_Driver/Src/stm32f1xx_hal_dma.c ****       
 1532              		.loc 1 458 0 discriminator 53
 1533 0340 1432     		adds	r2, r2, #20
 1534 0342 9342     		cmp	r3, r2
 1535 0344 24D0     		beq	.L208
 458:./Drivers/STM32F1xx_HAL_Driver/Src/stm32f1xx_hal_dma.c ****       
 1536              		.loc 1 458 0 discriminator 55
 1537 0346 1432     		adds	r2, r2, #20
 1538 0348 9342     		cmp	r3, r2
 1539 034a 24D0     		beq	.L209
 458:./Drivers/STM32F1xx_HAL_Driver/Src/stm32f1xx_hal_dma.c ****       
 1540              		.loc 1 458 0 discriminator 57
 1541 034c 1432     		adds	r2, r2, #20
 1542 034e 9342     		cmp	r3, r2
 1543 0350 24D0     		beq	.L210
 458:./Drivers/STM32F1xx_HAL_Driver/Src/stm32f1xx_hal_dma.c ****       
 1544              		.loc 1 458 0 discriminator 59
 1545 0352 02F56272 		add	r2, r2, #904
 1546 0356 9342     		cmp	r3, r2
 1547 0358 23D0     		beq	.L211
 458:./Drivers/STM32F1xx_HAL_Driver/Src/stm32f1xx_hal_dma.c ****       
 1548              		.loc 1 458 0 discriminator 61
 1549 035a 1432     		adds	r2, r2, #20
 1550 035c 9342     		cmp	r3, r2
 1551 035e 22D0     		beq	.L212
 458:./Drivers/STM32F1xx_HAL_Driver/Src/stm32f1xx_hal_dma.c ****       
 1552              		.loc 1 458 0 discriminator 63
 1553 0360 1432     		adds	r2, r2, #20
 1554 0362 9342     		cmp	r3, r2
 1555 0364 21D0     		beq	.L213
 458:./Drivers/STM32F1xx_HAL_Driver/Src/stm32f1xx_hal_dma.c ****       
 1556              		.loc 1 458 0 discriminator 65
 1557 0366 1432     		adds	r2, r2, #20
 1558 0368 9342     		cmp	r3, r2
 1559 036a 02D0     		beq	.L268
 458:./Drivers/STM32F1xx_HAL_Driver/Src/stm32f1xx_hal_dma.c ****       
 1560              		.loc 1 458 0
 1561 036c 4FF40023 		mov	r3, #524288
 1562 0370 03E0     		b	.L132
 1563              	.L268:
 1564 0372 4FF40043 		mov	r3, #32768
 1565 0376 00E0     		b	.L132
ARM GAS  /tmp/ccBdMCBM.s 			page 45


 1566              	.L204:
 1567 0378 0823     		movs	r3, #8
 1568              	.L132:
 458:./Drivers/STM32F1xx_HAL_Driver/Src/stm32f1xx_hal_dma.c ****       
 1569              		.loc 1 458 0 discriminator 90
 1570 037a A54A     		ldr	r2, .L275+4
 1571 037c 5360     		str	r3, [r2, #4]
 1572 037e A6E7     		b	.L131
 1573              	.L205:
 458:./Drivers/STM32F1xx_HAL_Driver/Src/stm32f1xx_hal_dma.c ****       
 1574              		.loc 1 458 0
 1575 0380 8023     		movs	r3, #128
 1576 0382 FAE7     		b	.L132
 1577              	.L206:
 1578 0384 4FF40063 		mov	r3, #2048
 1579 0388 F7E7     		b	.L132
 1580              	.L207:
 1581 038a 4FF40043 		mov	r3, #32768
 1582 038e F4E7     		b	.L132
 1583              	.L208:
 1584 0390 4FF40023 		mov	r3, #524288
 1585 0394 F1E7     		b	.L132
 1586              	.L209:
 1587 0396 4FF40003 		mov	r3, #8388608
 1588 039a EEE7     		b	.L132
 1589              	.L210:
 1590 039c 4FF00063 		mov	r3, #134217728
 1591 03a0 EBE7     		b	.L132
 1592              	.L211:
 1593 03a2 0823     		movs	r3, #8
 1594 03a4 E9E7     		b	.L132
 1595              	.L212:
 1596 03a6 8023     		movs	r3, #128
 1597 03a8 E7E7     		b	.L132
 1598              	.L213:
 1599 03aa 4FF40063 		mov	r3, #2048
 1600 03ae E4E7     		b	.L132
 1601              	.L263:
 474:./Drivers/STM32F1xx_HAL_Driver/Src/stm32f1xx_hal_dma.c ****       {
 1602              		.loc 1 474 0 is_stmt 1
 1603 03b0 36B1     		cbz	r6, .L135
 474:./Drivers/STM32F1xx_HAL_Driver/Src/stm32f1xx_hal_dma.c ****       {
 1604              		.loc 1 474 0 is_stmt 0 discriminator 1
 1605 03b2 FFF7FEFF 		bl	HAL_GetTick
 1606              	.LVL47:
 1607 03b6 A0EB0800 		sub	r0, r0, r8
 1608 03ba B042     		cmp	r0, r6
 1609 03bc 7FF6BEAE 		bls	.L134
 1610              	.L135:
 477:./Drivers/STM32F1xx_HAL_Driver/Src/stm32f1xx_hal_dma.c ****         
 1611              		.loc 1 477 0 is_stmt 1
 1612 03c0 636B     		ldr	r3, [r4, #52]
 1613 03c2 43F02003 		orr	r3, r3, #32
 1614 03c6 6363     		str	r3, [r4, #52]
 480:./Drivers/STM32F1xx_HAL_Driver/Src/stm32f1xx_hal_dma.c **** 
 1615              		.loc 1 480 0
 1616 03c8 0320     		movs	r0, #3
ARM GAS  /tmp/ccBdMCBM.s 			page 46


 1617 03ca 84F82100 		strb	r0, [r4, #33]
 483:./Drivers/STM32F1xx_HAL_Driver/Src/stm32f1xx_hal_dma.c ****         
 1618              		.loc 1 483 0
 1619 03ce 0023     		movs	r3, #0
 1620 03d0 84F82030 		strb	r3, [r4, #32]
 485:./Drivers/STM32F1xx_HAL_Driver/Src/stm32f1xx_hal_dma.c ****       }
 1621              		.loc 1 485 0
 1622 03d4 3DE0     		b	.L133
 1623              	.L136:
 453:./Drivers/STM32F1xx_HAL_Driver/Src/stm32f1xx_hal_dma.c ****   {
 1624              		.loc 1 453 0 discriminator 2
 1625 03d6 8E4A     		ldr	r2, .L275+4
 1626 03d8 1268     		ldr	r2, [r2]
 1627 03da 2A42     		tst	r2, r5
 1628 03dc 0CBF     		ite	eq
 1629 03de 0122     		moveq	r2, #1
 1630 03e0 0022     		movne	r2, #0
 1631 03e2 B8E6     		b	.L137
 1632              	.L264:
 490:./Drivers/STM32F1xx_HAL_Driver/Src/stm32f1xx_hal_dma.c ****   {
 1633              		.loc 1 490 0
 1634 03e4 002F     		cmp	r7, #0
 1635 03e6 40F09280 		bne	.L139
 493:./Drivers/STM32F1xx_HAL_Driver/Src/stm32f1xx_hal_dma.c **** 
 1636              		.loc 1 493 0
 1637 03ea 8A4A     		ldr	r2, .L275+8
 1638 03ec 9142     		cmp	r1, r2
 1639 03ee 4AD9     		bls	.L140
 493:./Drivers/STM32F1xx_HAL_Driver/Src/stm32f1xx_hal_dma.c **** 
 1640              		.loc 1 493 0 is_stmt 0 discriminator 1
 1641 03f0 783A     		subs	r2, r2, #120
 1642 03f2 9342     		cmp	r3, r2
 1643 03f4 24D0     		beq	.L215
 493:./Drivers/STM32F1xx_HAL_Driver/Src/stm32f1xx_hal_dma.c **** 
 1644              		.loc 1 493 0 discriminator 3
 1645 03f6 1432     		adds	r2, r2, #20
 1646 03f8 9342     		cmp	r3, r2
 1647 03fa 2CD0     		beq	.L216
 493:./Drivers/STM32F1xx_HAL_Driver/Src/stm32f1xx_hal_dma.c **** 
 1648              		.loc 1 493 0 discriminator 5
 1649 03fc 1432     		adds	r2, r2, #20
 1650 03fe 9342     		cmp	r3, r2
 1651 0400 2BD0     		beq	.L217
 493:./Drivers/STM32F1xx_HAL_Driver/Src/stm32f1xx_hal_dma.c **** 
 1652              		.loc 1 493 0 discriminator 7
 1653 0402 1432     		adds	r2, r2, #20
 1654 0404 9342     		cmp	r3, r2
 1655 0406 2BD0     		beq	.L218
 493:./Drivers/STM32F1xx_HAL_Driver/Src/stm32f1xx_hal_dma.c **** 
 1656              		.loc 1 493 0 discriminator 9
 1657 0408 1432     		adds	r2, r2, #20
 1658 040a 9342     		cmp	r3, r2
 1659 040c 2BD0     		beq	.L219
 493:./Drivers/STM32F1xx_HAL_Driver/Src/stm32f1xx_hal_dma.c **** 
 1660              		.loc 1 493 0 discriminator 11
 1661 040e 1432     		adds	r2, r2, #20
 1662 0410 9342     		cmp	r3, r2
ARM GAS  /tmp/ccBdMCBM.s 			page 47


 1663 0412 2BD0     		beq	.L220
 493:./Drivers/STM32F1xx_HAL_Driver/Src/stm32f1xx_hal_dma.c **** 
 1664              		.loc 1 493 0 discriminator 13
 1665 0414 1432     		adds	r2, r2, #20
 1666 0416 9342     		cmp	r3, r2
 1667 0418 2BD0     		beq	.L221
 493:./Drivers/STM32F1xx_HAL_Driver/Src/stm32f1xx_hal_dma.c **** 
 1668              		.loc 1 493 0 discriminator 15
 1669 041a 02F56272 		add	r2, r2, #904
 1670 041e 9342     		cmp	r3, r2
 1671 0420 2AD0     		beq	.L222
 493:./Drivers/STM32F1xx_HAL_Driver/Src/stm32f1xx_hal_dma.c **** 
 1672              		.loc 1 493 0 discriminator 17
 1673 0422 1432     		adds	r2, r2, #20
 1674 0424 9342     		cmp	r3, r2
 1675 0426 29D0     		beq	.L223
 493:./Drivers/STM32F1xx_HAL_Driver/Src/stm32f1xx_hal_dma.c **** 
 1676              		.loc 1 493 0 discriminator 19
 1677 0428 1432     		adds	r2, r2, #20
 1678 042a 9342     		cmp	r3, r2
 1679 042c 28D0     		beq	.L224
 493:./Drivers/STM32F1xx_HAL_Driver/Src/stm32f1xx_hal_dma.c **** 
 1680              		.loc 1 493 0 discriminator 21
 1681 042e 1432     		adds	r2, r2, #20
 1682 0430 9342     		cmp	r3, r2
 1683 0432 02D0     		beq	.L269
 493:./Drivers/STM32F1xx_HAL_Driver/Src/stm32f1xx_hal_dma.c **** 
 1684              		.loc 1 493 0
 1685 0434 4FF40033 		mov	r3, #131072
 1686 0438 03E0     		b	.L141
 1687              	.L269:
 1688 043a 4FF40053 		mov	r3, #8192
 1689 043e 00E0     		b	.L141
 1690              	.L215:
 1691 0440 0223     		movs	r3, #2
 1692              	.L141:
 493:./Drivers/STM32F1xx_HAL_Driver/Src/stm32f1xx_hal_dma.c **** 
 1693              		.loc 1 493 0 discriminator 46
 1694 0442 754A     		ldr	r2, .L275+12
 1695 0444 5360     		str	r3, [r2, #4]
 1696              	.L142:
 497:./Drivers/STM32F1xx_HAL_Driver/Src/stm32f1xx_hal_dma.c **** 
 1697              		.loc 1 497 0 is_stmt 1
 1698 0446 0123     		movs	r3, #1
 1699 0448 84F82130 		strb	r3, [r4, #33]
 1700              	.L144:
 511:./Drivers/STM32F1xx_HAL_Driver/Src/stm32f1xx_hal_dma.c **** 
 1701              		.loc 1 511 0
 1702 044c 0020     		movs	r0, #0
 1703 044e 84F82000 		strb	r0, [r4, #32]
 1704              	.L133:
 514:./Drivers/STM32F1xx_HAL_Driver/Src/stm32f1xx_hal_dma.c **** 
 1705              		.loc 1 514 0
 1706 0452 BDE8F081 		pop	{r4, r5, r6, r7, r8, pc}
 1707              	.LVL48:
 1708              	.L216:
 493:./Drivers/STM32F1xx_HAL_Driver/Src/stm32f1xx_hal_dma.c **** 
ARM GAS  /tmp/ccBdMCBM.s 			page 48


 1709              		.loc 1 493 0
 1710 0456 2023     		movs	r3, #32
 1711 0458 F3E7     		b	.L141
 1712              	.L217:
 1713 045a 4FF40073 		mov	r3, #512
 1714 045e F0E7     		b	.L141
 1715              	.L218:
 1716 0460 4FF40053 		mov	r3, #8192
 1717 0464 EDE7     		b	.L141
 1718              	.L219:
 1719 0466 4FF40033 		mov	r3, #131072
 1720 046a EAE7     		b	.L141
 1721              	.L220:
 1722 046c 4FF40013 		mov	r3, #2097152
 1723 0470 E7E7     		b	.L141
 1724              	.L221:
 1725 0472 4FF00073 		mov	r3, #33554432
 1726 0476 E4E7     		b	.L141
 1727              	.L222:
 1728 0478 0223     		movs	r3, #2
 1729 047a E2E7     		b	.L141
 1730              	.L223:
 1731 047c 2023     		movs	r3, #32
 1732 047e E0E7     		b	.L141
 1733              	.L224:
 1734 0480 4FF40073 		mov	r3, #512
 1735 0484 DDE7     		b	.L141
 1736              	.L140:
 493:./Drivers/STM32F1xx_HAL_Driver/Src/stm32f1xx_hal_dma.c **** 
 1737              		.loc 1 493 0 is_stmt 0 discriminator 2
 1738 0486 614A     		ldr	r2, .L275
 1739 0488 9342     		cmp	r3, r2
 1740 048a 24D0     		beq	.L226
 493:./Drivers/STM32F1xx_HAL_Driver/Src/stm32f1xx_hal_dma.c **** 
 1741              		.loc 1 493 0 discriminator 47
 1742 048c 1432     		adds	r2, r2, #20
 1743 048e 9342     		cmp	r3, r2
 1744 0490 25D0     		beq	.L227
 493:./Drivers/STM32F1xx_HAL_Driver/Src/stm32f1xx_hal_dma.c **** 
 1745              		.loc 1 493 0 discriminator 49
 1746 0492 1432     		adds	r2, r2, #20
 1747 0494 9342     		cmp	r3, r2
 1748 0496 24D0     		beq	.L228
 493:./Drivers/STM32F1xx_HAL_Driver/Src/stm32f1xx_hal_dma.c **** 
 1749              		.loc 1 493 0 discriminator 51
 1750 0498 1432     		adds	r2, r2, #20
 1751 049a 9342     		cmp	r3, r2
 1752 049c 24D0     		beq	.L229
 493:./Drivers/STM32F1xx_HAL_Driver/Src/stm32f1xx_hal_dma.c **** 
 1753              		.loc 1 493 0 discriminator 53
 1754 049e 1432     		adds	r2, r2, #20
 1755 04a0 9342     		cmp	r3, r2
 1756 04a2 24D0     		beq	.L230
 493:./Drivers/STM32F1xx_HAL_Driver/Src/stm32f1xx_hal_dma.c **** 
 1757              		.loc 1 493 0 discriminator 55
 1758 04a4 1432     		adds	r2, r2, #20
 1759 04a6 9342     		cmp	r3, r2
ARM GAS  /tmp/ccBdMCBM.s 			page 49


 1760 04a8 24D0     		beq	.L231
 493:./Drivers/STM32F1xx_HAL_Driver/Src/stm32f1xx_hal_dma.c **** 
 1761              		.loc 1 493 0 discriminator 57
 1762 04aa 1432     		adds	r2, r2, #20
 1763 04ac 9342     		cmp	r3, r2
 1764 04ae 24D0     		beq	.L232
 493:./Drivers/STM32F1xx_HAL_Driver/Src/stm32f1xx_hal_dma.c **** 
 1765              		.loc 1 493 0 discriminator 59
 1766 04b0 02F56272 		add	r2, r2, #904
 1767 04b4 9342     		cmp	r3, r2
 1768 04b6 23D0     		beq	.L233
 493:./Drivers/STM32F1xx_HAL_Driver/Src/stm32f1xx_hal_dma.c **** 
 1769              		.loc 1 493 0 discriminator 61
 1770 04b8 1432     		adds	r2, r2, #20
 1771 04ba 9342     		cmp	r3, r2
 1772 04bc 22D0     		beq	.L234
 493:./Drivers/STM32F1xx_HAL_Driver/Src/stm32f1xx_hal_dma.c **** 
 1773              		.loc 1 493 0 discriminator 63
 1774 04be 1432     		adds	r2, r2, #20
 1775 04c0 9342     		cmp	r3, r2
 1776 04c2 21D0     		beq	.L235
 493:./Drivers/STM32F1xx_HAL_Driver/Src/stm32f1xx_hal_dma.c **** 
 1777              		.loc 1 493 0 discriminator 65
 1778 04c4 1432     		adds	r2, r2, #20
 1779 04c6 9342     		cmp	r3, r2
 1780 04c8 02D0     		beq	.L270
 493:./Drivers/STM32F1xx_HAL_Driver/Src/stm32f1xx_hal_dma.c **** 
 1781              		.loc 1 493 0
 1782 04ca 4FF40033 		mov	r3, #131072
 1783 04ce 03E0     		b	.L143
 1784              	.L270:
 1785 04d0 4FF40053 		mov	r3, #8192
 1786 04d4 00E0     		b	.L143
 1787              	.L226:
 1788 04d6 0223     		movs	r3, #2
 1789              	.L143:
 493:./Drivers/STM32F1xx_HAL_Driver/Src/stm32f1xx_hal_dma.c **** 
 1790              		.loc 1 493 0 discriminator 90
 1791 04d8 4D4A     		ldr	r2, .L275+4
 1792 04da 5360     		str	r3, [r2, #4]
 1793 04dc B3E7     		b	.L142
 1794              	.L227:
 493:./Drivers/STM32F1xx_HAL_Driver/Src/stm32f1xx_hal_dma.c **** 
 1795              		.loc 1 493 0
 1796 04de 2023     		movs	r3, #32
 1797 04e0 FAE7     		b	.L143
 1798              	.L228:
 1799 04e2 4FF40073 		mov	r3, #512
 1800 04e6 F7E7     		b	.L143
 1801              	.L229:
 1802 04e8 4FF40053 		mov	r3, #8192
 1803 04ec F4E7     		b	.L143
 1804              	.L230:
 1805 04ee 4FF40033 		mov	r3, #131072
 1806 04f2 F1E7     		b	.L143
 1807              	.L231:
 1808 04f4 4FF40013 		mov	r3, #2097152
ARM GAS  /tmp/ccBdMCBM.s 			page 50


 1809 04f8 EEE7     		b	.L143
 1810              	.L232:
 1811 04fa 4FF00073 		mov	r3, #33554432
 1812 04fe EBE7     		b	.L143
 1813              	.L233:
 1814 0500 0223     		movs	r3, #2
 1815 0502 E9E7     		b	.L143
 1816              	.L234:
 1817 0504 2023     		movs	r3, #32
 1818 0506 E7E7     		b	.L143
 1819              	.L235:
 1820 0508 4FF40073 		mov	r3, #512
 1821 050c E4E7     		b	.L143
 1822              	.L139:
 503:./Drivers/STM32F1xx_HAL_Driver/Src/stm32f1xx_hal_dma.c ****   
 1823              		.loc 1 503 0 is_stmt 1
 1824 050e 414A     		ldr	r2, .L275+8
 1825 0510 9142     		cmp	r1, r2
 1826 0512 46D9     		bls	.L145
 503:./Drivers/STM32F1xx_HAL_Driver/Src/stm32f1xx_hal_dma.c ****   
 1827              		.loc 1 503 0 is_stmt 0 discriminator 1
 1828 0514 783A     		subs	r2, r2, #120
 1829 0516 9342     		cmp	r3, r2
 1830 0518 24D0     		beq	.L237
 503:./Drivers/STM32F1xx_HAL_Driver/Src/stm32f1xx_hal_dma.c ****   
 1831              		.loc 1 503 0 discriminator 3
 1832 051a 1432     		adds	r2, r2, #20
 1833 051c 9342     		cmp	r3, r2
 1834 051e 28D0     		beq	.L238
 503:./Drivers/STM32F1xx_HAL_Driver/Src/stm32f1xx_hal_dma.c ****   
 1835              		.loc 1 503 0 discriminator 5
 1836 0520 1432     		adds	r2, r2, #20
 1837 0522 9342     		cmp	r3, r2
 1838 0524 27D0     		beq	.L239
 503:./Drivers/STM32F1xx_HAL_Driver/Src/stm32f1xx_hal_dma.c ****   
 1839              		.loc 1 503 0 discriminator 7
 1840 0526 1432     		adds	r2, r2, #20
 1841 0528 9342     		cmp	r3, r2
 1842 052a 27D0     		beq	.L240
 503:./Drivers/STM32F1xx_HAL_Driver/Src/stm32f1xx_hal_dma.c ****   
 1843              		.loc 1 503 0 discriminator 9
 1844 052c 1432     		adds	r2, r2, #20
 1845 052e 9342     		cmp	r3, r2
 1846 0530 27D0     		beq	.L241
 503:./Drivers/STM32F1xx_HAL_Driver/Src/stm32f1xx_hal_dma.c ****   
 1847              		.loc 1 503 0 discriminator 11
 1848 0532 1432     		adds	r2, r2, #20
 1849 0534 9342     		cmp	r3, r2
 1850 0536 27D0     		beq	.L242
 503:./Drivers/STM32F1xx_HAL_Driver/Src/stm32f1xx_hal_dma.c ****   
 1851              		.loc 1 503 0 discriminator 13
 1852 0538 1432     		adds	r2, r2, #20
 1853 053a 9342     		cmp	r3, r2
 1854 053c 27D0     		beq	.L243
 503:./Drivers/STM32F1xx_HAL_Driver/Src/stm32f1xx_hal_dma.c ****   
 1855              		.loc 1 503 0 discriminator 15
 1856 053e 02F56272 		add	r2, r2, #904
ARM GAS  /tmp/ccBdMCBM.s 			page 51


 1857 0542 9342     		cmp	r3, r2
 1858 0544 26D0     		beq	.L244
 503:./Drivers/STM32F1xx_HAL_Driver/Src/stm32f1xx_hal_dma.c ****   
 1859              		.loc 1 503 0 discriminator 17
 1860 0546 1432     		adds	r2, r2, #20
 1861 0548 9342     		cmp	r3, r2
 1862 054a 25D0     		beq	.L245
 503:./Drivers/STM32F1xx_HAL_Driver/Src/stm32f1xx_hal_dma.c ****   
 1863              		.loc 1 503 0 discriminator 19
 1864 054c 1432     		adds	r2, r2, #20
 1865 054e 9342     		cmp	r3, r2
 1866 0550 24D0     		beq	.L246
 503:./Drivers/STM32F1xx_HAL_Driver/Src/stm32f1xx_hal_dma.c ****   
 1867              		.loc 1 503 0 discriminator 21
 1868 0552 1432     		adds	r2, r2, #20
 1869 0554 9342     		cmp	r3, r2
 1870 0556 02D0     		beq	.L271
 503:./Drivers/STM32F1xx_HAL_Driver/Src/stm32f1xx_hal_dma.c ****   
 1871              		.loc 1 503 0
 1872 0558 4FF48023 		mov	r3, #262144
 1873 055c 03E0     		b	.L146
 1874              	.L271:
 1875 055e 4FF48043 		mov	r3, #16384
 1876 0562 00E0     		b	.L146
 1877              	.L237:
 1878 0564 0423     		movs	r3, #4
 1879              	.L146:
 503:./Drivers/STM32F1xx_HAL_Driver/Src/stm32f1xx_hal_dma.c ****   
 1880              		.loc 1 503 0 discriminator 46
 1881 0566 2C4A     		ldr	r2, .L275+12
 1882 0568 5360     		str	r3, [r2, #4]
 1883              	.L147:
 507:./Drivers/STM32F1xx_HAL_Driver/Src/stm32f1xx_hal_dma.c ****   }
 1884              		.loc 1 507 0 is_stmt 1
 1885 056a 1123     		movs	r3, #17
 1886 056c 84F82130 		strb	r3, [r4, #33]
 1887 0570 6CE7     		b	.L144
 1888              	.L238:
 503:./Drivers/STM32F1xx_HAL_Driver/Src/stm32f1xx_hal_dma.c ****   
 1889              		.loc 1 503 0
 1890 0572 4023     		movs	r3, #64
 1891 0574 F7E7     		b	.L146
 1892              	.L239:
 1893 0576 4FF48063 		mov	r3, #1024
 1894 057a F4E7     		b	.L146
 1895              	.L240:
 1896 057c 4FF48043 		mov	r3, #16384
 1897 0580 F1E7     		b	.L146
 1898              	.L241:
 1899 0582 4FF48023 		mov	r3, #262144
 1900 0586 EEE7     		b	.L146
 1901              	.L242:
 1902 0588 4FF48003 		mov	r3, #4194304
 1903 058c EBE7     		b	.L146
 1904              	.L243:
 1905 058e 4FF08063 		mov	r3, #67108864
 1906 0592 E8E7     		b	.L146
ARM GAS  /tmp/ccBdMCBM.s 			page 52


 1907              	.L244:
 1908 0594 0423     		movs	r3, #4
 1909 0596 E6E7     		b	.L146
 1910              	.L245:
 1911 0598 4023     		movs	r3, #64
 1912 059a E4E7     		b	.L146
 1913              	.L246:
 1914 059c 4FF48063 		mov	r3, #1024
 1915 05a0 E1E7     		b	.L146
 1916              	.L145:
 503:./Drivers/STM32F1xx_HAL_Driver/Src/stm32f1xx_hal_dma.c ****   
 1917              		.loc 1 503 0 is_stmt 0 discriminator 2
 1918 05a2 1A4A     		ldr	r2, .L275
 1919 05a4 9342     		cmp	r3, r2
 1920 05a6 24D0     		beq	.L248
 503:./Drivers/STM32F1xx_HAL_Driver/Src/stm32f1xx_hal_dma.c ****   
 1921              		.loc 1 503 0 discriminator 47
 1922 05a8 1432     		adds	r2, r2, #20
 1923 05aa 9342     		cmp	r3, r2
 1924 05ac 25D0     		beq	.L249
 503:./Drivers/STM32F1xx_HAL_Driver/Src/stm32f1xx_hal_dma.c ****   
 1925              		.loc 1 503 0 discriminator 49
 1926 05ae 1432     		adds	r2, r2, #20
 1927 05b0 9342     		cmp	r3, r2
 1928 05b2 24D0     		beq	.L250
 503:./Drivers/STM32F1xx_HAL_Driver/Src/stm32f1xx_hal_dma.c ****   
 1929              		.loc 1 503 0 discriminator 51
 1930 05b4 1432     		adds	r2, r2, #20
 1931 05b6 9342     		cmp	r3, r2
 1932 05b8 24D0     		beq	.L251
 503:./Drivers/STM32F1xx_HAL_Driver/Src/stm32f1xx_hal_dma.c ****   
 1933              		.loc 1 503 0 discriminator 53
 1934 05ba 1432     		adds	r2, r2, #20
 1935 05bc 9342     		cmp	r3, r2
 1936 05be 2DD0     		beq	.L252
 503:./Drivers/STM32F1xx_HAL_Driver/Src/stm32f1xx_hal_dma.c ****   
 1937              		.loc 1 503 0 discriminator 55
 1938 05c0 1432     		adds	r2, r2, #20
 1939 05c2 9342     		cmp	r3, r2
 1940 05c4 2DD0     		beq	.L253
 503:./Drivers/STM32F1xx_HAL_Driver/Src/stm32f1xx_hal_dma.c ****   
 1941              		.loc 1 503 0 discriminator 57
 1942 05c6 1432     		adds	r2, r2, #20
 1943 05c8 9342     		cmp	r3, r2
 1944 05ca 2DD0     		beq	.L254
 503:./Drivers/STM32F1xx_HAL_Driver/Src/stm32f1xx_hal_dma.c ****   
 1945              		.loc 1 503 0 discriminator 59
 1946 05cc 02F56272 		add	r2, r2, #904
 1947 05d0 9342     		cmp	r3, r2
 1948 05d2 2CD0     		beq	.L255
 503:./Drivers/STM32F1xx_HAL_Driver/Src/stm32f1xx_hal_dma.c ****   
 1949              		.loc 1 503 0 discriminator 61
 1950 05d4 1432     		adds	r2, r2, #20
 1951 05d6 9342     		cmp	r3, r2
 1952 05d8 2BD0     		beq	.L256
 503:./Drivers/STM32F1xx_HAL_Driver/Src/stm32f1xx_hal_dma.c ****   
 1953              		.loc 1 503 0 discriminator 63
ARM GAS  /tmp/ccBdMCBM.s 			page 53


 1954 05da 1432     		adds	r2, r2, #20
 1955 05dc 9342     		cmp	r3, r2
 1956 05de 2AD0     		beq	.L257
 503:./Drivers/STM32F1xx_HAL_Driver/Src/stm32f1xx_hal_dma.c ****   
 1957              		.loc 1 503 0 discriminator 65
 1958 05e0 1432     		adds	r2, r2, #20
 1959 05e2 9342     		cmp	r3, r2
 1960 05e4 02D0     		beq	.L272
 503:./Drivers/STM32F1xx_HAL_Driver/Src/stm32f1xx_hal_dma.c ****   
 1961              		.loc 1 503 0
 1962 05e6 4FF48023 		mov	r3, #262144
 1963 05ea 03E0     		b	.L148
 1964              	.L272:
 1965 05ec 4FF48043 		mov	r3, #16384
 1966 05f0 00E0     		b	.L148
 1967              	.L248:
 1968 05f2 0423     		movs	r3, #4
 1969              	.L148:
 503:./Drivers/STM32F1xx_HAL_Driver/Src/stm32f1xx_hal_dma.c ****   
 1970              		.loc 1 503 0 discriminator 90
 1971 05f4 064A     		ldr	r2, .L275+4
 1972 05f6 5360     		str	r3, [r2, #4]
 1973 05f8 B7E7     		b	.L147
 1974              	.L249:
 503:./Drivers/STM32F1xx_HAL_Driver/Src/stm32f1xx_hal_dma.c ****   
 1975              		.loc 1 503 0
 1976 05fa 4023     		movs	r3, #64
 1977 05fc FAE7     		b	.L148
 1978              	.L250:
 1979 05fe 4FF48063 		mov	r3, #1024
 1980 0602 F7E7     		b	.L148
 1981              	.L251:
 1982 0604 4FF48043 		mov	r3, #16384
 1983 0608 F4E7     		b	.L148
 1984              	.L276:
 1985 060a 00BF     		.align	2
 1986              	.L275:
 1987 060c 08000240 		.word	1073872904
 1988 0610 00000240 		.word	1073872896
 1989 0614 80000240 		.word	1073873024
 1990 0618 00040240 		.word	1073873920
 1991              	.L252:
 1992 061c 4FF48023 		mov	r3, #262144
 1993 0620 E8E7     		b	.L148
 1994              	.L253:
 1995 0622 4FF48003 		mov	r3, #4194304
 1996 0626 E5E7     		b	.L148
 1997              	.L254:
 1998 0628 4FF08063 		mov	r3, #67108864
 1999 062c E2E7     		b	.L148
 2000              	.L255:
 2001 062e 0423     		movs	r3, #4
 2002 0630 E0E7     		b	.L148
 2003              	.L256:
 2004 0632 4023     		movs	r3, #64
 2005 0634 DEE7     		b	.L148
 2006              	.L257:
ARM GAS  /tmp/ccBdMCBM.s 			page 54


 2007 0636 4FF48063 		mov	r3, #1024
 2008 063a DBE7     		b	.L148
 2009              		.cfi_endproc
 2010              	.LFE71:
 2012              		.section	.text.HAL_DMA_IRQHandler,"ax",%progbits
 2013              		.align	1
 2014              		.global	HAL_DMA_IRQHandler
 2015              		.syntax unified
 2016              		.thumb
 2017              		.thumb_func
 2018              		.fpu softvfp
 2020              	HAL_DMA_IRQHandler:
 2021              	.LFB72:
 523:./Drivers/STM32F1xx_HAL_Driver/Src/stm32f1xx_hal_dma.c ****   /* Transfer Error Interrupt management ***************************************/
 2022              		.loc 1 523 0 is_stmt 1
 2023              		.cfi_startproc
 2024              		@ args = 0, pretend = 0, frame = 0
 2025              		@ frame_needed = 0, uses_anonymous_args = 0
 2026              	.LVL49:
 2027 0000 10B5     		push	{r4, lr}
 2028              	.LCFI9:
 2029              		.cfi_def_cfa_offset 8
 2030              		.cfi_offset 4, -8
 2031              		.cfi_offset 14, -4
 2032 0002 0446     		mov	r4, r0
 525:./Drivers/STM32F1xx_HAL_Driver/Src/stm32f1xx_hal_dma.c ****   {
 2033              		.loc 1 525 0
 2034 0004 0368     		ldr	r3, [r0]
 2035 0006 BF4A     		ldr	r2, .L452
 2036 0008 9342     		cmp	r3, r2
 2037 000a 40F28880 		bls	.L278
 525:./Drivers/STM32F1xx_HAL_Driver/Src/stm32f1xx_hal_dma.c ****   {
 2038              		.loc 1 525 0 is_stmt 0 discriminator 1
 2039 000e 02F56072 		add	r2, r2, #896
 2040 0012 1268     		ldr	r2, [r2]
 2041 0014 BC49     		ldr	r1, .L452+4
 2042 0016 8B42     		cmp	r3, r1
 2043 0018 24D0     		beq	.L307
 525:./Drivers/STM32F1xx_HAL_Driver/Src/stm32f1xx_hal_dma.c ****   {
 2044              		.loc 1 525 0 discriminator 3
 2045 001a 1431     		adds	r1, r1, #20
 2046 001c 8B42     		cmp	r3, r1
 2047 001e 66D0     		beq	.L308
 525:./Drivers/STM32F1xx_HAL_Driver/Src/stm32f1xx_hal_dma.c ****   {
 2048              		.loc 1 525 0 discriminator 5
 2049 0020 1431     		adds	r1, r1, #20
 2050 0022 8B42     		cmp	r3, r1
 2051 0024 65D0     		beq	.L309
 525:./Drivers/STM32F1xx_HAL_Driver/Src/stm32f1xx_hal_dma.c ****   {
 2052              		.loc 1 525 0 discriminator 7
 2053 0026 1431     		adds	r1, r1, #20
 2054 0028 8B42     		cmp	r3, r1
 2055 002a 65D0     		beq	.L310
 525:./Drivers/STM32F1xx_HAL_Driver/Src/stm32f1xx_hal_dma.c ****   {
 2056              		.loc 1 525 0 discriminator 9
 2057 002c 1431     		adds	r1, r1, #20
 2058 002e 8B42     		cmp	r3, r1
ARM GAS  /tmp/ccBdMCBM.s 			page 55


 2059 0030 65D0     		beq	.L311
 525:./Drivers/STM32F1xx_HAL_Driver/Src/stm32f1xx_hal_dma.c ****   {
 2060              		.loc 1 525 0 discriminator 11
 2061 0032 1431     		adds	r1, r1, #20
 2062 0034 8B42     		cmp	r3, r1
 2063 0036 65D0     		beq	.L312
 525:./Drivers/STM32F1xx_HAL_Driver/Src/stm32f1xx_hal_dma.c ****   {
 2064              		.loc 1 525 0 discriminator 13
 2065 0038 1431     		adds	r1, r1, #20
 2066 003a 8B42     		cmp	r3, r1
 2067 003c 65D0     		beq	.L313
 525:./Drivers/STM32F1xx_HAL_Driver/Src/stm32f1xx_hal_dma.c ****   {
 2068              		.loc 1 525 0 discriminator 15
 2069 003e 01F56271 		add	r1, r1, #904
 2070 0042 8B42     		cmp	r3, r1
 2071 0044 64D0     		beq	.L314
 525:./Drivers/STM32F1xx_HAL_Driver/Src/stm32f1xx_hal_dma.c ****   {
 2072              		.loc 1 525 0 discriminator 17
 2073 0046 1431     		adds	r1, r1, #20
 2074 0048 8B42     		cmp	r3, r1
 2075 004a 63D0     		beq	.L315
 525:./Drivers/STM32F1xx_HAL_Driver/Src/stm32f1xx_hal_dma.c ****   {
 2076              		.loc 1 525 0 discriminator 19
 2077 004c 1431     		adds	r1, r1, #20
 2078 004e 8B42     		cmp	r3, r1
 2079 0050 62D0     		beq	.L316
 525:./Drivers/STM32F1xx_HAL_Driver/Src/stm32f1xx_hal_dma.c ****   {
 2080              		.loc 1 525 0 discriminator 21
 2081 0052 1431     		adds	r1, r1, #20
 2082 0054 8B42     		cmp	r3, r1
 2083 0056 02D0     		beq	.L440
 525:./Drivers/STM32F1xx_HAL_Driver/Src/stm32f1xx_hal_dma.c ****   {
 2084              		.loc 1 525 0
 2085 0058 4FF40021 		mov	r1, #524288
 2086 005c 03E0     		b	.L279
 2087              	.L440:
 2088 005e 4FF40041 		mov	r1, #32768
 2089 0062 00E0     		b	.L279
 2090              	.L307:
 2091 0064 0821     		movs	r1, #8
 2092              	.L279:
 525:./Drivers/STM32F1xx_HAL_Driver/Src/stm32f1xx_hal_dma.c ****   {
 2093              		.loc 1 525 0 discriminator 46
 2094 0066 0A42     		tst	r2, r1
 2095 0068 14BF     		ite	ne
 2096 006a 0122     		movne	r2, #1
 2097 006c 0022     		moveq	r2, #0
 2098              	.L280:
 525:./Drivers/STM32F1xx_HAL_Driver/Src/stm32f1xx_hal_dma.c ****   {
 2099              		.loc 1 525 0 discriminator 92
 2100 006e 002A     		cmp	r2, #0
 2101 0070 00F0B180 		beq	.L282
 527:./Drivers/STM32F1xx_HAL_Driver/Src/stm32f1xx_hal_dma.c ****     {
 2102              		.loc 1 527 0 is_stmt 1
 2103 0074 1A68     		ldr	r2, [r3]
 2104 0076 12F0080F 		tst	r2, #8
 2105 007a 00F0AC80 		beq	.L282
ARM GAS  /tmp/ccBdMCBM.s 			page 56


 530:./Drivers/STM32F1xx_HAL_Driver/Src/stm32f1xx_hal_dma.c ****       
 2106              		.loc 1 530 0
 2107 007e 1A68     		ldr	r2, [r3]
 2108 0080 22F00802 		bic	r2, r2, #8
 2109 0084 1A60     		str	r2, [r3]
 533:./Drivers/STM32F1xx_HAL_Driver/Src/stm32f1xx_hal_dma.c ****       
 2110              		.loc 1 533 0
 2111 0086 2368     		ldr	r3, [r4]
 2112 0088 9E4A     		ldr	r2, .L452
 2113 008a 9342     		cmp	r3, r2
 2114 008c 40F2F280 		bls	.L283
 533:./Drivers/STM32F1xx_HAL_Driver/Src/stm32f1xx_hal_dma.c ****       
 2115              		.loc 1 533 0 is_stmt 0 discriminator 1
 2116 0090 783A     		subs	r2, r2, #120
 2117 0092 9342     		cmp	r3, r2
 2118 0094 00F08E80 		beq	.L329
 533:./Drivers/STM32F1xx_HAL_Driver/Src/stm32f1xx_hal_dma.c ****       
 2119              		.loc 1 533 0 discriminator 3
 2120 0098 1432     		adds	r2, r2, #20
 2121 009a 9342     		cmp	r3, r2
 2122 009c 00F0D280 		beq	.L330
 533:./Drivers/STM32F1xx_HAL_Driver/Src/stm32f1xx_hal_dma.c ****       
 2123              		.loc 1 533 0 discriminator 5
 2124 00a0 1432     		adds	r2, r2, #20
 2125 00a2 9342     		cmp	r3, r2
 2126 00a4 00F0D080 		beq	.L331
 533:./Drivers/STM32F1xx_HAL_Driver/Src/stm32f1xx_hal_dma.c ****       
 2127              		.loc 1 533 0 discriminator 7
 2128 00a8 1432     		adds	r2, r2, #20
 2129 00aa 9342     		cmp	r3, r2
 2130 00ac 00F0CF80 		beq	.L332
 533:./Drivers/STM32F1xx_HAL_Driver/Src/stm32f1xx_hal_dma.c ****       
 2131              		.loc 1 533 0 discriminator 9
 2132 00b0 1432     		adds	r2, r2, #20
 2133 00b2 9342     		cmp	r3, r2
 2134 00b4 00F0CE80 		beq	.L333
 533:./Drivers/STM32F1xx_HAL_Driver/Src/stm32f1xx_hal_dma.c ****       
 2135              		.loc 1 533 0 discriminator 11
 2136 00b8 1432     		adds	r2, r2, #20
 2137 00ba 9342     		cmp	r3, r2
 2138 00bc 00F0CD80 		beq	.L334
 533:./Drivers/STM32F1xx_HAL_Driver/Src/stm32f1xx_hal_dma.c ****       
 2139              		.loc 1 533 0 discriminator 13
 2140 00c0 1432     		adds	r2, r2, #20
 2141 00c2 9342     		cmp	r3, r2
 2142 00c4 00F0CC80 		beq	.L335
 533:./Drivers/STM32F1xx_HAL_Driver/Src/stm32f1xx_hal_dma.c ****       
 2143              		.loc 1 533 0 discriminator 15
 2144 00c8 02F56272 		add	r2, r2, #904
 2145 00cc 9342     		cmp	r3, r2
 2146 00ce 00F0CA80 		beq	.L336
 533:./Drivers/STM32F1xx_HAL_Driver/Src/stm32f1xx_hal_dma.c ****       
 2147              		.loc 1 533 0 discriminator 17
 2148 00d2 1432     		adds	r2, r2, #20
 2149 00d4 9342     		cmp	r3, r2
 2150 00d6 00F0C880 		beq	.L337
 533:./Drivers/STM32F1xx_HAL_Driver/Src/stm32f1xx_hal_dma.c ****       
ARM GAS  /tmp/ccBdMCBM.s 			page 57


 2151              		.loc 1 533 0 discriminator 19
 2152 00da 1432     		adds	r2, r2, #20
 2153 00dc 9342     		cmp	r3, r2
 2154 00de 00F0C680 		beq	.L338
 533:./Drivers/STM32F1xx_HAL_Driver/Src/stm32f1xx_hal_dma.c ****       
 2155              		.loc 1 533 0 discriminator 21
 2156 00e2 1432     		adds	r2, r2, #20
 2157 00e4 9342     		cmp	r3, r2
 2158 00e6 62D0     		beq	.L441
 533:./Drivers/STM32F1xx_HAL_Driver/Src/stm32f1xx_hal_dma.c ****       
 2159              		.loc 1 533 0
 2160 00e8 4FF40022 		mov	r2, #524288
 2161 00ec 63E0     		b	.L284
 2162              	.L308:
 525:./Drivers/STM32F1xx_HAL_Driver/Src/stm32f1xx_hal_dma.c ****   {
 2163              		.loc 1 525 0 is_stmt 1
 2164 00ee 8021     		movs	r1, #128
 2165 00f0 B9E7     		b	.L279
 2166              	.L309:
 2167 00f2 4FF40061 		mov	r1, #2048
 2168 00f6 B6E7     		b	.L279
 2169              	.L310:
 2170 00f8 4FF40041 		mov	r1, #32768
 2171 00fc B3E7     		b	.L279
 2172              	.L311:
 2173 00fe 4FF40021 		mov	r1, #524288
 2174 0102 B0E7     		b	.L279
 2175              	.L312:
 2176 0104 4FF40001 		mov	r1, #8388608
 2177 0108 ADE7     		b	.L279
 2178              	.L313:
 2179 010a 4FF00061 		mov	r1, #134217728
 2180 010e AAE7     		b	.L279
 2181              	.L314:
 2182 0110 0821     		movs	r1, #8
 2183 0112 A8E7     		b	.L279
 2184              	.L315:
 2185 0114 8021     		movs	r1, #128
 2186 0116 A6E7     		b	.L279
 2187              	.L316:
 2188 0118 4FF40061 		mov	r1, #2048
 2189 011c A3E7     		b	.L279
 2190              	.L278:
 525:./Drivers/STM32F1xx_HAL_Driver/Src/stm32f1xx_hal_dma.c ****   {
 2191              		.loc 1 525 0 is_stmt 0 discriminator 2
 2192 011e 7B4A     		ldr	r2, .L452+8
 2193 0120 1268     		ldr	r2, [r2]
 2194 0122 7949     		ldr	r1, .L452+4
 2195 0124 8B42     		cmp	r3, r1
 2196 0126 24D0     		beq	.L318
 525:./Drivers/STM32F1xx_HAL_Driver/Src/stm32f1xx_hal_dma.c ****   {
 2197              		.loc 1 525 0 discriminator 48
 2198 0128 1431     		adds	r1, r1, #20
 2199 012a 8B42     		cmp	r3, r1
 2200 012c 27D0     		beq	.L319
 525:./Drivers/STM32F1xx_HAL_Driver/Src/stm32f1xx_hal_dma.c ****   {
 2201              		.loc 1 525 0 discriminator 50
ARM GAS  /tmp/ccBdMCBM.s 			page 58


 2202 012e 1431     		adds	r1, r1, #20
 2203 0130 8B42     		cmp	r3, r1
 2204 0132 26D0     		beq	.L320
 525:./Drivers/STM32F1xx_HAL_Driver/Src/stm32f1xx_hal_dma.c ****   {
 2205              		.loc 1 525 0 discriminator 52
 2206 0134 1431     		adds	r1, r1, #20
 2207 0136 8B42     		cmp	r3, r1
 2208 0138 26D0     		beq	.L321
 525:./Drivers/STM32F1xx_HAL_Driver/Src/stm32f1xx_hal_dma.c ****   {
 2209              		.loc 1 525 0 discriminator 54
 2210 013a 1431     		adds	r1, r1, #20
 2211 013c 8B42     		cmp	r3, r1
 2212 013e 26D0     		beq	.L322
 525:./Drivers/STM32F1xx_HAL_Driver/Src/stm32f1xx_hal_dma.c ****   {
 2213              		.loc 1 525 0 discriminator 56
 2214 0140 1431     		adds	r1, r1, #20
 2215 0142 8B42     		cmp	r3, r1
 2216 0144 26D0     		beq	.L323
 525:./Drivers/STM32F1xx_HAL_Driver/Src/stm32f1xx_hal_dma.c ****   {
 2217              		.loc 1 525 0 discriminator 58
 2218 0146 1431     		adds	r1, r1, #20
 2219 0148 8B42     		cmp	r3, r1
 2220 014a 26D0     		beq	.L324
 525:./Drivers/STM32F1xx_HAL_Driver/Src/stm32f1xx_hal_dma.c ****   {
 2221              		.loc 1 525 0 discriminator 60
 2222 014c 01F56271 		add	r1, r1, #904
 2223 0150 8B42     		cmp	r3, r1
 2224 0152 25D0     		beq	.L325
 525:./Drivers/STM32F1xx_HAL_Driver/Src/stm32f1xx_hal_dma.c ****   {
 2225              		.loc 1 525 0 discriminator 62
 2226 0154 1431     		adds	r1, r1, #20
 2227 0156 8B42     		cmp	r3, r1
 2228 0158 24D0     		beq	.L326
 525:./Drivers/STM32F1xx_HAL_Driver/Src/stm32f1xx_hal_dma.c ****   {
 2229              		.loc 1 525 0 discriminator 64
 2230 015a 1431     		adds	r1, r1, #20
 2231 015c 8B42     		cmp	r3, r1
 2232 015e 23D0     		beq	.L327
 525:./Drivers/STM32F1xx_HAL_Driver/Src/stm32f1xx_hal_dma.c ****   {
 2233              		.loc 1 525 0 discriminator 66
 2234 0160 1431     		adds	r1, r1, #20
 2235 0162 8B42     		cmp	r3, r1
 2236 0164 02D0     		beq	.L442
 525:./Drivers/STM32F1xx_HAL_Driver/Src/stm32f1xx_hal_dma.c ****   {
 2237              		.loc 1 525 0
 2238 0166 4FF40021 		mov	r1, #524288
 2239 016a 03E0     		b	.L281
 2240              	.L442:
 2241 016c 4FF40041 		mov	r1, #32768
 2242 0170 00E0     		b	.L281
 2243              	.L318:
 2244 0172 0821     		movs	r1, #8
 2245              	.L281:
 525:./Drivers/STM32F1xx_HAL_Driver/Src/stm32f1xx_hal_dma.c ****   {
 2246              		.loc 1 525 0 discriminator 91
 2247 0174 0A42     		tst	r2, r1
 2248 0176 14BF     		ite	ne
ARM GAS  /tmp/ccBdMCBM.s 			page 59


 2249 0178 0122     		movne	r2, #1
 2250 017a 0022     		moveq	r2, #0
 2251 017c 77E7     		b	.L280
 2252              	.L319:
 525:./Drivers/STM32F1xx_HAL_Driver/Src/stm32f1xx_hal_dma.c ****   {
 2253              		.loc 1 525 0
 2254 017e 8021     		movs	r1, #128
 2255 0180 F8E7     		b	.L281
 2256              	.L320:
 2257 0182 4FF40061 		mov	r1, #2048
 2258 0186 F5E7     		b	.L281
 2259              	.L321:
 2260 0188 4FF40041 		mov	r1, #32768
 2261 018c F2E7     		b	.L281
 2262              	.L322:
 2263 018e 4FF40021 		mov	r1, #524288
 2264 0192 EFE7     		b	.L281
 2265              	.L323:
 2266 0194 4FF40001 		mov	r1, #8388608
 2267 0198 ECE7     		b	.L281
 2268              	.L324:
 2269 019a 4FF00061 		mov	r1, #134217728
 2270 019e E9E7     		b	.L281
 2271              	.L325:
 2272 01a0 0821     		movs	r1, #8
 2273 01a2 E7E7     		b	.L281
 2274              	.L326:
 2275 01a4 8021     		movs	r1, #128
 2276 01a6 E5E7     		b	.L281
 2277              	.L327:
 2278 01a8 4FF40061 		mov	r1, #2048
 2279 01ac E2E7     		b	.L281
 2280              	.L441:
 533:./Drivers/STM32F1xx_HAL_Driver/Src/stm32f1xx_hal_dma.c ****       
 2281              		.loc 1 533 0 is_stmt 1
 2282 01ae 4FF40042 		mov	r2, #32768
 2283 01b2 00E0     		b	.L284
 2284              	.L329:
 2285 01b4 0822     		movs	r2, #8
 2286              	.L284:
 533:./Drivers/STM32F1xx_HAL_Driver/Src/stm32f1xx_hal_dma.c ****       
 2287              		.loc 1 533 0 is_stmt 0 discriminator 46
 2288 01b6 564B     		ldr	r3, .L452+12
 2289 01b8 5A60     		str	r2, [r3, #4]
 2290              	.L285:
 536:./Drivers/STM32F1xx_HAL_Driver/Src/stm32f1xx_hal_dma.c ****       
 2291              		.loc 1 536 0 is_stmt 1
 2292 01ba 636B     		ldr	r3, [r4, #52]
 2293 01bc 43F00103 		orr	r3, r3, #1
 2294 01c0 6363     		str	r3, [r4, #52]
 539:./Drivers/STM32F1xx_HAL_Driver/Src/stm32f1xx_hal_dma.c ****       
 2295              		.loc 1 539 0
 2296 01c2 0423     		movs	r3, #4
 2297 01c4 84F82130 		strb	r3, [r4, #33]
 542:./Drivers/STM32F1xx_HAL_Driver/Src/stm32f1xx_hal_dma.c ****       
 2298              		.loc 1 542 0
 2299 01c8 0023     		movs	r3, #0
ARM GAS  /tmp/ccBdMCBM.s 			page 60


 2300 01ca 84F82030 		strb	r3, [r4, #32]
 544:./Drivers/STM32F1xx_HAL_Driver/Src/stm32f1xx_hal_dma.c ****       {
 2301              		.loc 1 544 0
 2302 01ce 236B     		ldr	r3, [r4, #48]
 2303 01d0 0BB1     		cbz	r3, .L282
 547:./Drivers/STM32F1xx_HAL_Driver/Src/stm32f1xx_hal_dma.c ****       }
 2304              		.loc 1 547 0
 2305 01d2 2046     		mov	r0, r4
 2306              	.LVL50:
 2307 01d4 9847     		blx	r3
 2308              	.LVL51:
 2309              	.L282:
 553:./Drivers/STM32F1xx_HAL_Driver/Src/stm32f1xx_hal_dma.c ****   {
 2310              		.loc 1 553 0
 2311 01d6 2368     		ldr	r3, [r4]
 2312 01d8 4A4A     		ldr	r2, .L452
 2313 01da 9342     		cmp	r3, r2
 2314 01dc 40F2FB80 		bls	.L287
 553:./Drivers/STM32F1xx_HAL_Driver/Src/stm32f1xx_hal_dma.c ****   {
 2315              		.loc 1 553 0 is_stmt 0 discriminator 1
 2316 01e0 02F56072 		add	r2, r2, #896
 2317 01e4 1268     		ldr	r2, [r2]
 2318 01e6 4849     		ldr	r1, .L452+4
 2319 01e8 8B42     		cmp	r3, r1
 2320 01ea 00F09380 		beq	.L351
 553:./Drivers/STM32F1xx_HAL_Driver/Src/stm32f1xx_hal_dma.c ****   {
 2321              		.loc 1 553 0 discriminator 3
 2322 01ee 1431     		adds	r1, r1, #20
 2323 01f0 8B42     		cmp	r3, r1
 2324 01f2 00F0D880 		beq	.L352
 553:./Drivers/STM32F1xx_HAL_Driver/Src/stm32f1xx_hal_dma.c ****   {
 2325              		.loc 1 553 0 discriminator 5
 2326 01f6 1431     		adds	r1, r1, #20
 2327 01f8 8B42     		cmp	r3, r1
 2328 01fa 00F0D680 		beq	.L353
 553:./Drivers/STM32F1xx_HAL_Driver/Src/stm32f1xx_hal_dma.c ****   {
 2329              		.loc 1 553 0 discriminator 7
 2330 01fe 1431     		adds	r1, r1, #20
 2331 0200 8B42     		cmp	r3, r1
 2332 0202 00F0D580 		beq	.L354
 553:./Drivers/STM32F1xx_HAL_Driver/Src/stm32f1xx_hal_dma.c ****   {
 2333              		.loc 1 553 0 discriminator 9
 2334 0206 1431     		adds	r1, r1, #20
 2335 0208 8B42     		cmp	r3, r1
 2336 020a 00F0D480 		beq	.L355
 553:./Drivers/STM32F1xx_HAL_Driver/Src/stm32f1xx_hal_dma.c ****   {
 2337              		.loc 1 553 0 discriminator 11
 2338 020e 1431     		adds	r1, r1, #20
 2339 0210 8B42     		cmp	r3, r1
 2340 0212 00F0D380 		beq	.L356
 553:./Drivers/STM32F1xx_HAL_Driver/Src/stm32f1xx_hal_dma.c ****   {
 2341              		.loc 1 553 0 discriminator 13
 2342 0216 1431     		adds	r1, r1, #20
 2343 0218 8B42     		cmp	r3, r1
 2344 021a 00F0D280 		beq	.L357
 553:./Drivers/STM32F1xx_HAL_Driver/Src/stm32f1xx_hal_dma.c ****   {
 2345              		.loc 1 553 0 discriminator 15
ARM GAS  /tmp/ccBdMCBM.s 			page 61


 2346 021e 01F56271 		add	r1, r1, #904
 2347 0222 8B42     		cmp	r3, r1
 2348 0224 00F0D080 		beq	.L358
 553:./Drivers/STM32F1xx_HAL_Driver/Src/stm32f1xx_hal_dma.c ****   {
 2349              		.loc 1 553 0 discriminator 17
 2350 0228 1431     		adds	r1, r1, #20
 2351 022a 8B42     		cmp	r3, r1
 2352 022c 00F0CE80 		beq	.L359
 553:./Drivers/STM32F1xx_HAL_Driver/Src/stm32f1xx_hal_dma.c ****   {
 2353              		.loc 1 553 0 discriminator 19
 2354 0230 1431     		adds	r1, r1, #20
 2355 0232 8B42     		cmp	r3, r1
 2356 0234 00F0CC80 		beq	.L360
 553:./Drivers/STM32F1xx_HAL_Driver/Src/stm32f1xx_hal_dma.c ****   {
 2357              		.loc 1 553 0 discriminator 21
 2358 0238 1431     		adds	r1, r1, #20
 2359 023a 8B42     		cmp	r3, r1
 2360 023c 5ED0     		beq	.L443
 553:./Drivers/STM32F1xx_HAL_Driver/Src/stm32f1xx_hal_dma.c ****   {
 2361              		.loc 1 553 0
 2362 023e 4FF48021 		mov	r1, #262144
 2363 0242 68E0     		b	.L288
 2364              	.LVL52:
 2365              	.L330:
 533:./Drivers/STM32F1xx_HAL_Driver/Src/stm32f1xx_hal_dma.c ****       
 2366              		.loc 1 533 0 is_stmt 1
 2367 0244 8022     		movs	r2, #128
 2368 0246 B6E7     		b	.L284
 2369              	.L331:
 2370 0248 4FF40062 		mov	r2, #2048
 2371 024c B3E7     		b	.L284
 2372              	.L332:
 2373 024e 4FF40042 		mov	r2, #32768
 2374 0252 B0E7     		b	.L284
 2375              	.L333:
 2376 0254 4FF40022 		mov	r2, #524288
 2377 0258 ADE7     		b	.L284
 2378              	.L334:
 2379 025a 4FF40002 		mov	r2, #8388608
 2380 025e AAE7     		b	.L284
 2381              	.L335:
 2382 0260 4FF00062 		mov	r2, #134217728
 2383 0264 A7E7     		b	.L284
 2384              	.L336:
 2385 0266 0822     		movs	r2, #8
 2386 0268 A5E7     		b	.L284
 2387              	.L337:
 2388 026a 8022     		movs	r2, #128
 2389 026c A3E7     		b	.L284
 2390              	.L338:
 2391 026e 4FF40062 		mov	r2, #2048
 2392 0272 A0E7     		b	.L284
 2393              	.L283:
 533:./Drivers/STM32F1xx_HAL_Driver/Src/stm32f1xx_hal_dma.c ****       
 2394              		.loc 1 533 0 is_stmt 0 discriminator 2
 2395 0274 244A     		ldr	r2, .L452+4
 2396 0276 9342     		cmp	r3, r2
ARM GAS  /tmp/ccBdMCBM.s 			page 62


 2397 0278 24D0     		beq	.L340
 533:./Drivers/STM32F1xx_HAL_Driver/Src/stm32f1xx_hal_dma.c ****       
 2398              		.loc 1 533 0 discriminator 47
 2399 027a 1432     		adds	r2, r2, #20
 2400 027c 9342     		cmp	r3, r2
 2401 027e 25D0     		beq	.L341
 533:./Drivers/STM32F1xx_HAL_Driver/Src/stm32f1xx_hal_dma.c ****       
 2402              		.loc 1 533 0 discriminator 49
 2403 0280 1432     		adds	r2, r2, #20
 2404 0282 9342     		cmp	r3, r2
 2405 0284 24D0     		beq	.L342
 533:./Drivers/STM32F1xx_HAL_Driver/Src/stm32f1xx_hal_dma.c ****       
 2406              		.loc 1 533 0 discriminator 51
 2407 0286 1432     		adds	r2, r2, #20
 2408 0288 9342     		cmp	r3, r2
 2409 028a 24D0     		beq	.L343
 533:./Drivers/STM32F1xx_HAL_Driver/Src/stm32f1xx_hal_dma.c ****       
 2410              		.loc 1 533 0 discriminator 53
 2411 028c 1432     		adds	r2, r2, #20
 2412 028e 9342     		cmp	r3, r2
 2413 0290 24D0     		beq	.L344
 533:./Drivers/STM32F1xx_HAL_Driver/Src/stm32f1xx_hal_dma.c ****       
 2414              		.loc 1 533 0 discriminator 55
 2415 0292 1432     		adds	r2, r2, #20
 2416 0294 9342     		cmp	r3, r2
 2417 0296 24D0     		beq	.L345
 533:./Drivers/STM32F1xx_HAL_Driver/Src/stm32f1xx_hal_dma.c ****       
 2418              		.loc 1 533 0 discriminator 57
 2419 0298 1432     		adds	r2, r2, #20
 2420 029a 9342     		cmp	r3, r2
 2421 029c 24D0     		beq	.L346
 533:./Drivers/STM32F1xx_HAL_Driver/Src/stm32f1xx_hal_dma.c ****       
 2422              		.loc 1 533 0 discriminator 59
 2423 029e 02F56272 		add	r2, r2, #904
 2424 02a2 9342     		cmp	r3, r2
 2425 02a4 23D0     		beq	.L347
 533:./Drivers/STM32F1xx_HAL_Driver/Src/stm32f1xx_hal_dma.c ****       
 2426              		.loc 1 533 0 discriminator 61
 2427 02a6 1432     		adds	r2, r2, #20
 2428 02a8 9342     		cmp	r3, r2
 2429 02aa 22D0     		beq	.L348
 533:./Drivers/STM32F1xx_HAL_Driver/Src/stm32f1xx_hal_dma.c ****       
 2430              		.loc 1 533 0 discriminator 63
 2431 02ac 1432     		adds	r2, r2, #20
 2432 02ae 9342     		cmp	r3, r2
 2433 02b0 21D0     		beq	.L349
 533:./Drivers/STM32F1xx_HAL_Driver/Src/stm32f1xx_hal_dma.c ****       
 2434              		.loc 1 533 0 discriminator 65
 2435 02b2 1432     		adds	r2, r2, #20
 2436 02b4 9342     		cmp	r3, r2
 2437 02b6 02D0     		beq	.L444
 533:./Drivers/STM32F1xx_HAL_Driver/Src/stm32f1xx_hal_dma.c ****       
 2438              		.loc 1 533 0
 2439 02b8 4FF40022 		mov	r2, #524288
 2440 02bc 03E0     		b	.L286
 2441              	.L444:
 2442 02be 4FF40042 		mov	r2, #32768
ARM GAS  /tmp/ccBdMCBM.s 			page 63


 2443 02c2 00E0     		b	.L286
 2444              	.L340:
 2445 02c4 0822     		movs	r2, #8
 2446              	.L286:
 533:./Drivers/STM32F1xx_HAL_Driver/Src/stm32f1xx_hal_dma.c ****       
 2447              		.loc 1 533 0 discriminator 90
 2448 02c6 114B     		ldr	r3, .L452+8
 2449 02c8 5A60     		str	r2, [r3, #4]
 2450 02ca 76E7     		b	.L285
 2451              	.L341:
 533:./Drivers/STM32F1xx_HAL_Driver/Src/stm32f1xx_hal_dma.c ****       
 2452              		.loc 1 533 0
 2453 02cc 8022     		movs	r2, #128
 2454 02ce FAE7     		b	.L286
 2455              	.L342:
 2456 02d0 4FF40062 		mov	r2, #2048
 2457 02d4 F7E7     		b	.L286
 2458              	.L343:
 2459 02d6 4FF40042 		mov	r2, #32768
 2460 02da F4E7     		b	.L286
 2461              	.L344:
 2462 02dc 4FF40022 		mov	r2, #524288
 2463 02e0 F1E7     		b	.L286
 2464              	.L345:
 2465 02e2 4FF40002 		mov	r2, #8388608
 2466 02e6 EEE7     		b	.L286
 2467              	.L346:
 2468 02e8 4FF00062 		mov	r2, #134217728
 2469 02ec EBE7     		b	.L286
 2470              	.L347:
 2471 02ee 0822     		movs	r2, #8
 2472 02f0 E9E7     		b	.L286
 2473              	.L348:
 2474 02f2 8022     		movs	r2, #128
 2475 02f4 E7E7     		b	.L286
 2476              	.L349:
 2477 02f6 4FF40062 		mov	r2, #2048
 2478 02fa E4E7     		b	.L286
 2479              	.LVL53:
 2480              	.L443:
 553:./Drivers/STM32F1xx_HAL_Driver/Src/stm32f1xx_hal_dma.c ****   {
 2481              		.loc 1 553 0 is_stmt 1
 2482 02fc 4FF48041 		mov	r1, #16384
 2483 0300 09E0     		b	.L288
 2484              	.L453:
 2485 0302 00BF     		.align	2
 2486              	.L452:
 2487 0304 80000240 		.word	1073873024
 2488 0308 08000240 		.word	1073872904
 2489 030c 00000240 		.word	1073872896
 2490 0310 00040240 		.word	1073873920
 2491              	.L351:
 2492 0314 0421     		movs	r1, #4
 2493              	.L288:
 553:./Drivers/STM32F1xx_HAL_Driver/Src/stm32f1xx_hal_dma.c ****   {
 2494              		.loc 1 553 0 is_stmt 0 discriminator 46
 2495 0316 0A42     		tst	r2, r1
ARM GAS  /tmp/ccBdMCBM.s 			page 64


 2496 0318 14BF     		ite	ne
 2497 031a 0122     		movne	r2, #1
 2498 031c 0022     		moveq	r2, #0
 2499              	.L289:
 553:./Drivers/STM32F1xx_HAL_Driver/Src/stm32f1xx_hal_dma.c ****   {
 2500              		.loc 1 553 0 discriminator 92
 2501 031e 002A     		cmp	r2, #0
 2502 0320 00F0AE80 		beq	.L291
 555:./Drivers/STM32F1xx_HAL_Driver/Src/stm32f1xx_hal_dma.c ****     { 
 2503              		.loc 1 555 0 is_stmt 1
 2504 0324 1A68     		ldr	r2, [r3]
 2505 0326 12F0040F 		tst	r2, #4
 2506 032a 00F0A980 		beq	.L291
 558:./Drivers/STM32F1xx_HAL_Driver/Src/stm32f1xx_hal_dma.c ****       {
 2507              		.loc 1 558 0
 2508 032e 1A68     		ldr	r2, [r3]
 2509 0330 12F0200F 		tst	r2, #32
 2510 0334 03D1     		bne	.L292
 561:./Drivers/STM32F1xx_HAL_Driver/Src/stm32f1xx_hal_dma.c ****       }
 2511              		.loc 1 561 0
 2512 0336 1A68     		ldr	r2, [r3]
 2513 0338 22F00402 		bic	r2, r2, #4
 2514 033c 1A60     		str	r2, [r3]
 2515              	.L292:
 564:./Drivers/STM32F1xx_HAL_Driver/Src/stm32f1xx_hal_dma.c **** 
 2516              		.loc 1 564 0
 2517 033e 2368     		ldr	r3, [r4]
 2518 0340 C64A     		ldr	r2, .L454
 2519 0342 9342     		cmp	r3, r2
 2520 0344 40F2EB80 		bls	.L293
 564:./Drivers/STM32F1xx_HAL_Driver/Src/stm32f1xx_hal_dma.c **** 
 2521              		.loc 1 564 0 is_stmt 0 discriminator 1
 2522 0348 783A     		subs	r2, r2, #120
 2523 034a 9342     		cmp	r3, r2
 2524 034c 00F08E80 		beq	.L373
 564:./Drivers/STM32F1xx_HAL_Driver/Src/stm32f1xx_hal_dma.c **** 
 2525              		.loc 1 564 0 discriminator 3
 2526 0350 1432     		adds	r2, r2, #20
 2527 0352 9342     		cmp	r3, r2
 2528 0354 00F0CB80 		beq	.L374
 564:./Drivers/STM32F1xx_HAL_Driver/Src/stm32f1xx_hal_dma.c **** 
 2529              		.loc 1 564 0 discriminator 5
 2530 0358 1432     		adds	r2, r2, #20
 2531 035a 9342     		cmp	r3, r2
 2532 035c 00F0C980 		beq	.L375
 564:./Drivers/STM32F1xx_HAL_Driver/Src/stm32f1xx_hal_dma.c **** 
 2533              		.loc 1 564 0 discriminator 7
 2534 0360 1432     		adds	r2, r2, #20
 2535 0362 9342     		cmp	r3, r2
 2536 0364 00F0C880 		beq	.L376
 564:./Drivers/STM32F1xx_HAL_Driver/Src/stm32f1xx_hal_dma.c **** 
 2537              		.loc 1 564 0 discriminator 9
 2538 0368 1432     		adds	r2, r2, #20
 2539 036a 9342     		cmp	r3, r2
 2540 036c 00F0C780 		beq	.L377
 564:./Drivers/STM32F1xx_HAL_Driver/Src/stm32f1xx_hal_dma.c **** 
 2541              		.loc 1 564 0 discriminator 11
ARM GAS  /tmp/ccBdMCBM.s 			page 65


 2542 0370 1432     		adds	r2, r2, #20
 2543 0372 9342     		cmp	r3, r2
 2544 0374 00F0C680 		beq	.L378
 564:./Drivers/STM32F1xx_HAL_Driver/Src/stm32f1xx_hal_dma.c **** 
 2545              		.loc 1 564 0 discriminator 13
 2546 0378 1432     		adds	r2, r2, #20
 2547 037a 9342     		cmp	r3, r2
 2548 037c 00F0C580 		beq	.L379
 564:./Drivers/STM32F1xx_HAL_Driver/Src/stm32f1xx_hal_dma.c **** 
 2549              		.loc 1 564 0 discriminator 15
 2550 0380 02F56272 		add	r2, r2, #904
 2551 0384 9342     		cmp	r3, r2
 2552 0386 00F0C380 		beq	.L380
 564:./Drivers/STM32F1xx_HAL_Driver/Src/stm32f1xx_hal_dma.c **** 
 2553              		.loc 1 564 0 discriminator 17
 2554 038a 1432     		adds	r2, r2, #20
 2555 038c 9342     		cmp	r3, r2
 2556 038e 00F0C180 		beq	.L381
 564:./Drivers/STM32F1xx_HAL_Driver/Src/stm32f1xx_hal_dma.c **** 
 2557              		.loc 1 564 0 discriminator 19
 2558 0392 1432     		adds	r2, r2, #20
 2559 0394 9342     		cmp	r3, r2
 2560 0396 00F0BF80 		beq	.L382
 564:./Drivers/STM32F1xx_HAL_Driver/Src/stm32f1xx_hal_dma.c **** 
 2561              		.loc 1 564 0 discriminator 21
 2562 039a 1432     		adds	r2, r2, #20
 2563 039c 9342     		cmp	r3, r2
 2564 039e 62D0     		beq	.L445
 564:./Drivers/STM32F1xx_HAL_Driver/Src/stm32f1xx_hal_dma.c **** 
 2565              		.loc 1 564 0
 2566 03a0 4FF48022 		mov	r2, #262144
 2567 03a4 63E0     		b	.L294
 2568              	.L352:
 553:./Drivers/STM32F1xx_HAL_Driver/Src/stm32f1xx_hal_dma.c ****   {
 2569              		.loc 1 553 0 is_stmt 1
 2570 03a6 4021     		movs	r1, #64
 2571 03a8 B5E7     		b	.L288
 2572              	.L353:
 2573 03aa 4FF48061 		mov	r1, #1024
 2574 03ae B2E7     		b	.L288
 2575              	.L354:
 2576 03b0 4FF48041 		mov	r1, #16384
 2577 03b4 AFE7     		b	.L288
 2578              	.L355:
 2579 03b6 4FF48021 		mov	r1, #262144
 2580 03ba ACE7     		b	.L288
 2581              	.L356:
 2582 03bc 4FF48001 		mov	r1, #4194304
 2583 03c0 A9E7     		b	.L288
 2584              	.L357:
 2585 03c2 4FF08061 		mov	r1, #67108864
 2586 03c6 A6E7     		b	.L288
 2587              	.L358:
 2588 03c8 0421     		movs	r1, #4
 2589 03ca A4E7     		b	.L288
 2590              	.L359:
 2591 03cc 4021     		movs	r1, #64
ARM GAS  /tmp/ccBdMCBM.s 			page 66


 2592 03ce A2E7     		b	.L288
 2593              	.L360:
 2594 03d0 4FF48061 		mov	r1, #1024
 2595 03d4 9FE7     		b	.L288
 2596              	.L287:
 553:./Drivers/STM32F1xx_HAL_Driver/Src/stm32f1xx_hal_dma.c ****   {
 2597              		.loc 1 553 0 is_stmt 0 discriminator 2
 2598 03d6 A24A     		ldr	r2, .L454+4
 2599 03d8 1268     		ldr	r2, [r2]
 2600 03da A249     		ldr	r1, .L454+8
 2601 03dc 8B42     		cmp	r3, r1
 2602 03de 24D0     		beq	.L362
 553:./Drivers/STM32F1xx_HAL_Driver/Src/stm32f1xx_hal_dma.c ****   {
 2603              		.loc 1 553 0 discriminator 48
 2604 03e0 1431     		adds	r1, r1, #20
 2605 03e2 8B42     		cmp	r3, r1
 2606 03e4 27D0     		beq	.L363
 553:./Drivers/STM32F1xx_HAL_Driver/Src/stm32f1xx_hal_dma.c ****   {
 2607              		.loc 1 553 0 discriminator 50
 2608 03e6 1431     		adds	r1, r1, #20
 2609 03e8 8B42     		cmp	r3, r1
 2610 03ea 26D0     		beq	.L364
 553:./Drivers/STM32F1xx_HAL_Driver/Src/stm32f1xx_hal_dma.c ****   {
 2611              		.loc 1 553 0 discriminator 52
 2612 03ec 1431     		adds	r1, r1, #20
 2613 03ee 8B42     		cmp	r3, r1
 2614 03f0 26D0     		beq	.L365
 553:./Drivers/STM32F1xx_HAL_Driver/Src/stm32f1xx_hal_dma.c ****   {
 2615              		.loc 1 553 0 discriminator 54
 2616 03f2 1431     		adds	r1, r1, #20
 2617 03f4 8B42     		cmp	r3, r1
 2618 03f6 26D0     		beq	.L366
 553:./Drivers/STM32F1xx_HAL_Driver/Src/stm32f1xx_hal_dma.c ****   {
 2619              		.loc 1 553 0 discriminator 56
 2620 03f8 1431     		adds	r1, r1, #20
 2621 03fa 8B42     		cmp	r3, r1
 2622 03fc 26D0     		beq	.L367
 553:./Drivers/STM32F1xx_HAL_Driver/Src/stm32f1xx_hal_dma.c ****   {
 2623              		.loc 1 553 0 discriminator 58
 2624 03fe 1431     		adds	r1, r1, #20
 2625 0400 8B42     		cmp	r3, r1
 2626 0402 26D0     		beq	.L368
 553:./Drivers/STM32F1xx_HAL_Driver/Src/stm32f1xx_hal_dma.c ****   {
 2627              		.loc 1 553 0 discriminator 60
 2628 0404 01F56271 		add	r1, r1, #904
 2629 0408 8B42     		cmp	r3, r1
 2630 040a 25D0     		beq	.L369
 553:./Drivers/STM32F1xx_HAL_Driver/Src/stm32f1xx_hal_dma.c ****   {
 2631              		.loc 1 553 0 discriminator 62
 2632 040c 1431     		adds	r1, r1, #20
 2633 040e 8B42     		cmp	r3, r1
 2634 0410 24D0     		beq	.L370
 553:./Drivers/STM32F1xx_HAL_Driver/Src/stm32f1xx_hal_dma.c ****   {
 2635              		.loc 1 553 0 discriminator 64
 2636 0412 1431     		adds	r1, r1, #20
 2637 0414 8B42     		cmp	r3, r1
 2638 0416 23D0     		beq	.L371
ARM GAS  /tmp/ccBdMCBM.s 			page 67


 553:./Drivers/STM32F1xx_HAL_Driver/Src/stm32f1xx_hal_dma.c ****   {
 2639              		.loc 1 553 0 discriminator 66
 2640 0418 1431     		adds	r1, r1, #20
 2641 041a 8B42     		cmp	r3, r1
 2642 041c 02D0     		beq	.L446
 553:./Drivers/STM32F1xx_HAL_Driver/Src/stm32f1xx_hal_dma.c ****   {
 2643              		.loc 1 553 0
 2644 041e 4FF48021 		mov	r1, #262144
 2645 0422 03E0     		b	.L290
 2646              	.L446:
 2647 0424 4FF48041 		mov	r1, #16384
 2648 0428 00E0     		b	.L290
 2649              	.L362:
 2650 042a 0421     		movs	r1, #4
 2651              	.L290:
 553:./Drivers/STM32F1xx_HAL_Driver/Src/stm32f1xx_hal_dma.c ****   {
 2652              		.loc 1 553 0 discriminator 91
 2653 042c 0A42     		tst	r2, r1
 2654 042e 14BF     		ite	ne
 2655 0430 0122     		movne	r2, #1
 2656 0432 0022     		moveq	r2, #0
 2657 0434 73E7     		b	.L289
 2658              	.L363:
 553:./Drivers/STM32F1xx_HAL_Driver/Src/stm32f1xx_hal_dma.c ****   {
 2659              		.loc 1 553 0
 2660 0436 4021     		movs	r1, #64
 2661 0438 F8E7     		b	.L290
 2662              	.L364:
 2663 043a 4FF48061 		mov	r1, #1024
 2664 043e F5E7     		b	.L290
 2665              	.L365:
 2666 0440 4FF48041 		mov	r1, #16384
 2667 0444 F2E7     		b	.L290
 2668              	.L366:
 2669 0446 4FF48021 		mov	r1, #262144
 2670 044a EFE7     		b	.L290
 2671              	.L367:
 2672 044c 4FF48001 		mov	r1, #4194304
 2673 0450 ECE7     		b	.L290
 2674              	.L368:
 2675 0452 4FF08061 		mov	r1, #67108864
 2676 0456 E9E7     		b	.L290
 2677              	.L369:
 2678 0458 0421     		movs	r1, #4
 2679 045a E7E7     		b	.L290
 2680              	.L370:
 2681 045c 4021     		movs	r1, #64
 2682 045e E5E7     		b	.L290
 2683              	.L371:
 2684 0460 4FF48061 		mov	r1, #1024
 2685 0464 E2E7     		b	.L290
 2686              	.L445:
 564:./Drivers/STM32F1xx_HAL_Driver/Src/stm32f1xx_hal_dma.c **** 
 2687              		.loc 1 564 0 is_stmt 1
 2688 0466 4FF48042 		mov	r2, #16384
 2689 046a 00E0     		b	.L294
 2690              	.L373:
ARM GAS  /tmp/ccBdMCBM.s 			page 68


 2691 046c 0422     		movs	r2, #4
 2692              	.L294:
 564:./Drivers/STM32F1xx_HAL_Driver/Src/stm32f1xx_hal_dma.c **** 
 2693              		.loc 1 564 0 is_stmt 0 discriminator 46
 2694 046e 7E4B     		ldr	r3, .L454+12
 2695 0470 5A60     		str	r2, [r3, #4]
 2696              	.L295:
 567:./Drivers/STM32F1xx_HAL_Driver/Src/stm32f1xx_hal_dma.c **** 
 2697              		.loc 1 567 0 is_stmt 1
 2698 0472 1123     		movs	r3, #17
 2699 0474 84F82130 		strb	r3, [r4, #33]
 569:./Drivers/STM32F1xx_HAL_Driver/Src/stm32f1xx_hal_dma.c ****       {
 2700              		.loc 1 569 0
 2701 0478 E36A     		ldr	r3, [r4, #44]
 2702 047a 0BB1     		cbz	r3, .L291
 572:./Drivers/STM32F1xx_HAL_Driver/Src/stm32f1xx_hal_dma.c ****       }
 2703              		.loc 1 572 0
 2704 047c 2046     		mov	r0, r4
 2705 047e 9847     		blx	r3
 2706              	.LVL54:
 2707              	.L291:
 578:./Drivers/STM32F1xx_HAL_Driver/Src/stm32f1xx_hal_dma.c ****   {
 2708              		.loc 1 578 0
 2709 0480 2368     		ldr	r3, [r4]
 2710 0482 764A     		ldr	r2, .L454
 2711 0484 9342     		cmp	r3, r2
 2712 0486 40F2FB80 		bls	.L297
 578:./Drivers/STM32F1xx_HAL_Driver/Src/stm32f1xx_hal_dma.c ****   {
 2713              		.loc 1 578 0 is_stmt 0 discriminator 1
 2714 048a 02F56072 		add	r2, r2, #896
 2715 048e 1268     		ldr	r2, [r2]
 2716 0490 7449     		ldr	r1, .L454+8
 2717 0492 8B42     		cmp	r3, r1
 2718 0494 00F08A80 		beq	.L395
 578:./Drivers/STM32F1xx_HAL_Driver/Src/stm32f1xx_hal_dma.c ****   {
 2719              		.loc 1 578 0 discriminator 3
 2720 0498 1431     		adds	r1, r1, #20
 2721 049a 8B42     		cmp	r3, r1
 2722 049c 00F0CF80 		beq	.L396
 578:./Drivers/STM32F1xx_HAL_Driver/Src/stm32f1xx_hal_dma.c ****   {
 2723              		.loc 1 578 0 discriminator 5
 2724 04a0 1431     		adds	r1, r1, #20
 2725 04a2 8B42     		cmp	r3, r1
 2726 04a4 00F0CD80 		beq	.L397
 578:./Drivers/STM32F1xx_HAL_Driver/Src/stm32f1xx_hal_dma.c ****   {
 2727              		.loc 1 578 0 discriminator 7
 2728 04a8 1431     		adds	r1, r1, #20
 2729 04aa 8B42     		cmp	r3, r1
 2730 04ac 00F0CC80 		beq	.L398
 578:./Drivers/STM32F1xx_HAL_Driver/Src/stm32f1xx_hal_dma.c ****   {
 2731              		.loc 1 578 0 discriminator 9
 2732 04b0 1431     		adds	r1, r1, #20
 2733 04b2 8B42     		cmp	r3, r1
 2734 04b4 00F0CB80 		beq	.L399
 578:./Drivers/STM32F1xx_HAL_Driver/Src/stm32f1xx_hal_dma.c ****   {
 2735              		.loc 1 578 0 discriminator 11
 2736 04b8 1431     		adds	r1, r1, #20
ARM GAS  /tmp/ccBdMCBM.s 			page 69


 2737 04ba 8B42     		cmp	r3, r1
 2738 04bc 00F0CA80 		beq	.L400
 578:./Drivers/STM32F1xx_HAL_Driver/Src/stm32f1xx_hal_dma.c ****   {
 2739              		.loc 1 578 0 discriminator 13
 2740 04c0 1431     		adds	r1, r1, #20
 2741 04c2 8B42     		cmp	r3, r1
 2742 04c4 00F0D280 		beq	.L401
 578:./Drivers/STM32F1xx_HAL_Driver/Src/stm32f1xx_hal_dma.c ****   {
 2743              		.loc 1 578 0 discriminator 15
 2744 04c8 01F56271 		add	r1, r1, #904
 2745 04cc 8B42     		cmp	r3, r1
 2746 04ce 00F0D080 		beq	.L402
 578:./Drivers/STM32F1xx_HAL_Driver/Src/stm32f1xx_hal_dma.c ****   {
 2747              		.loc 1 578 0 discriminator 17
 2748 04d2 1431     		adds	r1, r1, #20
 2749 04d4 8B42     		cmp	r3, r1
 2750 04d6 00F0CE80 		beq	.L403
 578:./Drivers/STM32F1xx_HAL_Driver/Src/stm32f1xx_hal_dma.c ****   {
 2751              		.loc 1 578 0 discriminator 19
 2752 04da 1431     		adds	r1, r1, #20
 2753 04dc 8B42     		cmp	r3, r1
 2754 04de 00F0CC80 		beq	.L404
 578:./Drivers/STM32F1xx_HAL_Driver/Src/stm32f1xx_hal_dma.c ****   {
 2755              		.loc 1 578 0 discriminator 21
 2756 04e2 1431     		adds	r1, r1, #20
 2757 04e4 8B42     		cmp	r3, r1
 2758 04e6 5ED0     		beq	.L447
 578:./Drivers/STM32F1xx_HAL_Driver/Src/stm32f1xx_hal_dma.c ****   {
 2759              		.loc 1 578 0
 2760 04e8 4FF40031 		mov	r1, #131072
 2761 04ec 5FE0     		b	.L298
 2762              	.L374:
 564:./Drivers/STM32F1xx_HAL_Driver/Src/stm32f1xx_hal_dma.c **** 
 2763              		.loc 1 564 0 is_stmt 1
 2764 04ee 4022     		movs	r2, #64
 2765 04f0 BDE7     		b	.L294
 2766              	.L375:
 2767 04f2 4FF48062 		mov	r2, #1024
 2768 04f6 BAE7     		b	.L294
 2769              	.L376:
 2770 04f8 4FF48042 		mov	r2, #16384
 2771 04fc B7E7     		b	.L294
 2772              	.L377:
 2773 04fe 4FF48022 		mov	r2, #262144
 2774 0502 B4E7     		b	.L294
 2775              	.L378:
 2776 0504 4FF48002 		mov	r2, #4194304
 2777 0508 B1E7     		b	.L294
 2778              	.L379:
 2779 050a 4FF08062 		mov	r2, #67108864
 2780 050e AEE7     		b	.L294
 2781              	.L380:
 2782 0510 0422     		movs	r2, #4
 2783 0512 ACE7     		b	.L294
 2784              	.L381:
 2785 0514 4022     		movs	r2, #64
 2786 0516 AAE7     		b	.L294
ARM GAS  /tmp/ccBdMCBM.s 			page 70


 2787              	.L382:
 2788 0518 4FF48062 		mov	r2, #1024
 2789 051c A7E7     		b	.L294
 2790              	.L293:
 564:./Drivers/STM32F1xx_HAL_Driver/Src/stm32f1xx_hal_dma.c **** 
 2791              		.loc 1 564 0 is_stmt 0 discriminator 2
 2792 051e 514A     		ldr	r2, .L454+8
 2793 0520 9342     		cmp	r3, r2
 2794 0522 24D0     		beq	.L384
 564:./Drivers/STM32F1xx_HAL_Driver/Src/stm32f1xx_hal_dma.c **** 
 2795              		.loc 1 564 0 discriminator 47
 2796 0524 1432     		adds	r2, r2, #20
 2797 0526 9342     		cmp	r3, r2
 2798 0528 25D0     		beq	.L385
 564:./Drivers/STM32F1xx_HAL_Driver/Src/stm32f1xx_hal_dma.c **** 
 2799              		.loc 1 564 0 discriminator 49
 2800 052a 1432     		adds	r2, r2, #20
 2801 052c 9342     		cmp	r3, r2
 2802 052e 24D0     		beq	.L386
 564:./Drivers/STM32F1xx_HAL_Driver/Src/stm32f1xx_hal_dma.c **** 
 2803              		.loc 1 564 0 discriminator 51
 2804 0530 1432     		adds	r2, r2, #20
 2805 0532 9342     		cmp	r3, r2
 2806 0534 24D0     		beq	.L387
 564:./Drivers/STM32F1xx_HAL_Driver/Src/stm32f1xx_hal_dma.c **** 
 2807              		.loc 1 564 0 discriminator 53
 2808 0536 1432     		adds	r2, r2, #20
 2809 0538 9342     		cmp	r3, r2
 2810 053a 24D0     		beq	.L388
 564:./Drivers/STM32F1xx_HAL_Driver/Src/stm32f1xx_hal_dma.c **** 
 2811              		.loc 1 564 0 discriminator 55
 2812 053c 1432     		adds	r2, r2, #20
 2813 053e 9342     		cmp	r3, r2
 2814 0540 24D0     		beq	.L389
 564:./Drivers/STM32F1xx_HAL_Driver/Src/stm32f1xx_hal_dma.c **** 
 2815              		.loc 1 564 0 discriminator 57
 2816 0542 1432     		adds	r2, r2, #20
 2817 0544 9342     		cmp	r3, r2
 2818 0546 24D0     		beq	.L390
 564:./Drivers/STM32F1xx_HAL_Driver/Src/stm32f1xx_hal_dma.c **** 
 2819              		.loc 1 564 0 discriminator 59
 2820 0548 02F56272 		add	r2, r2, #904
 2821 054c 9342     		cmp	r3, r2
 2822 054e 23D0     		beq	.L391
 564:./Drivers/STM32F1xx_HAL_Driver/Src/stm32f1xx_hal_dma.c **** 
 2823              		.loc 1 564 0 discriminator 61
 2824 0550 1432     		adds	r2, r2, #20
 2825 0552 9342     		cmp	r3, r2
 2826 0554 22D0     		beq	.L392
 564:./Drivers/STM32F1xx_HAL_Driver/Src/stm32f1xx_hal_dma.c **** 
 2827              		.loc 1 564 0 discriminator 63
 2828 0556 1432     		adds	r2, r2, #20
 2829 0558 9342     		cmp	r3, r2
 2830 055a 21D0     		beq	.L393
 564:./Drivers/STM32F1xx_HAL_Driver/Src/stm32f1xx_hal_dma.c **** 
 2831              		.loc 1 564 0 discriminator 65
 2832 055c 1432     		adds	r2, r2, #20
ARM GAS  /tmp/ccBdMCBM.s 			page 71


 2833 055e 9342     		cmp	r3, r2
 2834 0560 02D0     		beq	.L448
 564:./Drivers/STM32F1xx_HAL_Driver/Src/stm32f1xx_hal_dma.c **** 
 2835              		.loc 1 564 0
 2836 0562 4FF48022 		mov	r2, #262144
 2837 0566 03E0     		b	.L296
 2838              	.L448:
 2839 0568 4FF48042 		mov	r2, #16384
 2840 056c 00E0     		b	.L296
 2841              	.L384:
 2842 056e 0422     		movs	r2, #4
 2843              	.L296:
 564:./Drivers/STM32F1xx_HAL_Driver/Src/stm32f1xx_hal_dma.c **** 
 2844              		.loc 1 564 0 discriminator 90
 2845 0570 3B4B     		ldr	r3, .L454+4
 2846 0572 5A60     		str	r2, [r3, #4]
 2847 0574 7DE7     		b	.L295
 2848              	.L385:
 564:./Drivers/STM32F1xx_HAL_Driver/Src/stm32f1xx_hal_dma.c **** 
 2849              		.loc 1 564 0
 2850 0576 4022     		movs	r2, #64
 2851 0578 FAE7     		b	.L296
 2852              	.L386:
 2853 057a 4FF48062 		mov	r2, #1024
 2854 057e F7E7     		b	.L296
 2855              	.L387:
 2856 0580 4FF48042 		mov	r2, #16384
 2857 0584 F4E7     		b	.L296
 2858              	.L388:
 2859 0586 4FF48022 		mov	r2, #262144
 2860 058a F1E7     		b	.L296
 2861              	.L389:
 2862 058c 4FF48002 		mov	r2, #4194304
 2863 0590 EEE7     		b	.L296
 2864              	.L390:
 2865 0592 4FF08062 		mov	r2, #67108864
 2866 0596 EBE7     		b	.L296
 2867              	.L391:
 2868 0598 0422     		movs	r2, #4
 2869 059a E9E7     		b	.L296
 2870              	.L392:
 2871 059c 4022     		movs	r2, #64
 2872 059e E7E7     		b	.L296
 2873              	.L393:
 2874 05a0 4FF48062 		mov	r2, #1024
 2875 05a4 E4E7     		b	.L296
 2876              	.L447:
 578:./Drivers/STM32F1xx_HAL_Driver/Src/stm32f1xx_hal_dma.c ****   {
 2877              		.loc 1 578 0 is_stmt 1
 2878 05a6 4FF40051 		mov	r1, #8192
 2879 05aa 00E0     		b	.L298
 2880              	.L395:
 2881 05ac 0221     		movs	r1, #2
 2882              	.L298:
 578:./Drivers/STM32F1xx_HAL_Driver/Src/stm32f1xx_hal_dma.c ****   {
 2883              		.loc 1 578 0 is_stmt 0 discriminator 46
 2884 05ae 0A42     		tst	r2, r1
ARM GAS  /tmp/ccBdMCBM.s 			page 72


 2885 05b0 14BF     		ite	ne
 2886 05b2 0122     		movne	r2, #1
 2887 05b4 0022     		moveq	r2, #0
 2888              	.L299:
 578:./Drivers/STM32F1xx_HAL_Driver/Src/stm32f1xx_hal_dma.c ****   {
 2889              		.loc 1 578 0 discriminator 92
 2890 05b6 002A     		cmp	r2, #0
 2891 05b8 00F0BC80 		beq	.L277
 580:./Drivers/STM32F1xx_HAL_Driver/Src/stm32f1xx_hal_dma.c ****     {
 2892              		.loc 1 580 0 is_stmt 1
 2893 05bc 1A68     		ldr	r2, [r3]
 2894 05be 12F0020F 		tst	r2, #2
 2895 05c2 00F0B780 		beq	.L277
 582:./Drivers/STM32F1xx_HAL_Driver/Src/stm32f1xx_hal_dma.c ****       {
 2896              		.loc 1 582 0
 2897 05c6 1A68     		ldr	r2, [r3]
 2898 05c8 12F0200F 		tst	r2, #32
 2899 05cc 03D1     		bne	.L302
 585:./Drivers/STM32F1xx_HAL_Driver/Src/stm32f1xx_hal_dma.c ****       }
 2900              		.loc 1 585 0
 2901 05ce 1A68     		ldr	r2, [r3]
 2902 05d0 22F00202 		bic	r2, r2, #2
 2903 05d4 1A60     		str	r2, [r3]
 2904              	.L302:
 588:./Drivers/STM32F1xx_HAL_Driver/Src/stm32f1xx_hal_dma.c ****     
 2905              		.loc 1 588 0
 2906 05d6 2368     		ldr	r3, [r4]
 2907 05d8 204A     		ldr	r2, .L454
 2908 05da 9342     		cmp	r3, r2
 2909 05dc 40F2C380 		bls	.L303
 588:./Drivers/STM32F1xx_HAL_Driver/Src/stm32f1xx_hal_dma.c ****     
 2910              		.loc 1 588 0 is_stmt 0 discriminator 1
 2911 05e0 783A     		subs	r2, r2, #120
 2912 05e2 9342     		cmp	r3, r2
 2913 05e4 00F09780 		beq	.L417
 588:./Drivers/STM32F1xx_HAL_Driver/Src/stm32f1xx_hal_dma.c ****     
 2914              		.loc 1 588 0 discriminator 3
 2915 05e8 1432     		adds	r2, r2, #20
 2916 05ea 9342     		cmp	r3, r2
 2917 05ec 00F0A380 		beq	.L418
 588:./Drivers/STM32F1xx_HAL_Driver/Src/stm32f1xx_hal_dma.c ****     
 2918              		.loc 1 588 0 discriminator 5
 2919 05f0 1432     		adds	r2, r2, #20
 2920 05f2 9342     		cmp	r3, r2
 2921 05f4 00F0A180 		beq	.L419
 588:./Drivers/STM32F1xx_HAL_Driver/Src/stm32f1xx_hal_dma.c ****     
 2922              		.loc 1 588 0 discriminator 7
 2923 05f8 1432     		adds	r2, r2, #20
 2924 05fa 9342     		cmp	r3, r2
 2925 05fc 00F0A080 		beq	.L420
 588:./Drivers/STM32F1xx_HAL_Driver/Src/stm32f1xx_hal_dma.c ****     
 2926              		.loc 1 588 0 discriminator 9
 2927 0600 1432     		adds	r2, r2, #20
 2928 0602 9342     		cmp	r3, r2
 2929 0604 00F09F80 		beq	.L421
 588:./Drivers/STM32F1xx_HAL_Driver/Src/stm32f1xx_hal_dma.c ****     
 2930              		.loc 1 588 0 discriminator 11
ARM GAS  /tmp/ccBdMCBM.s 			page 73


 2931 0608 1432     		adds	r2, r2, #20
 2932 060a 9342     		cmp	r3, r2
 2933 060c 00F09E80 		beq	.L422
 588:./Drivers/STM32F1xx_HAL_Driver/Src/stm32f1xx_hal_dma.c ****     
 2934              		.loc 1 588 0 discriminator 13
 2935 0610 1432     		adds	r2, r2, #20
 2936 0612 9342     		cmp	r3, r2
 2937 0614 00F09D80 		beq	.L423
 588:./Drivers/STM32F1xx_HAL_Driver/Src/stm32f1xx_hal_dma.c ****     
 2938              		.loc 1 588 0 discriminator 15
 2939 0618 02F56272 		add	r2, r2, #904
 2940 061c 9342     		cmp	r3, r2
 2941 061e 00F09B80 		beq	.L424
 588:./Drivers/STM32F1xx_HAL_Driver/Src/stm32f1xx_hal_dma.c ****     
 2942              		.loc 1 588 0 discriminator 17
 2943 0622 1432     		adds	r2, r2, #20
 2944 0624 9342     		cmp	r3, r2
 2945 0626 00F09980 		beq	.L425
 588:./Drivers/STM32F1xx_HAL_Driver/Src/stm32f1xx_hal_dma.c ****     
 2946              		.loc 1 588 0 discriminator 19
 2947 062a 1432     		adds	r2, r2, #20
 2948 062c 9342     		cmp	r3, r2
 2949 062e 00F09780 		beq	.L426
 588:./Drivers/STM32F1xx_HAL_Driver/Src/stm32f1xx_hal_dma.c ****     
 2950              		.loc 1 588 0 discriminator 21
 2951 0632 1432     		adds	r2, r2, #20
 2952 0634 9342     		cmp	r3, r2
 2953 0636 6BD0     		beq	.L449
 588:./Drivers/STM32F1xx_HAL_Driver/Src/stm32f1xx_hal_dma.c ****     
 2954              		.loc 1 588 0
 2955 0638 4FF40032 		mov	r2, #131072
 2956 063c 6CE0     		b	.L304
 2957              	.L396:
 578:./Drivers/STM32F1xx_HAL_Driver/Src/stm32f1xx_hal_dma.c ****   {
 2958              		.loc 1 578 0 is_stmt 1
 2959 063e 2021     		movs	r1, #32
 2960 0640 B5E7     		b	.L298
 2961              	.L397:
 2962 0642 4FF40071 		mov	r1, #512
 2963 0646 B2E7     		b	.L298
 2964              	.L398:
 2965 0648 4FF40051 		mov	r1, #8192
 2966 064c AFE7     		b	.L298
 2967              	.L399:
 2968 064e 4FF40031 		mov	r1, #131072
 2969 0652 ACE7     		b	.L298
 2970              	.L400:
 2971 0654 4FF40011 		mov	r1, #2097152
 2972 0658 A9E7     		b	.L298
 2973              	.L455:
 2974 065a 00BF     		.align	2
 2975              	.L454:
 2976 065c 80000240 		.word	1073873024
 2977 0660 00000240 		.word	1073872896
 2978 0664 08000240 		.word	1073872904
 2979 0668 00040240 		.word	1073873920
 2980              	.L401:
ARM GAS  /tmp/ccBdMCBM.s 			page 74


 2981 066c 4FF00071 		mov	r1, #33554432
 2982 0670 9DE7     		b	.L298
 2983              	.L402:
 2984 0672 0221     		movs	r1, #2
 2985 0674 9BE7     		b	.L298
 2986              	.L403:
 2987 0676 2021     		movs	r1, #32
 2988 0678 99E7     		b	.L298
 2989              	.L404:
 2990 067a 4FF40071 		mov	r1, #512
 2991 067e 96E7     		b	.L298
 2992              	.L297:
 578:./Drivers/STM32F1xx_HAL_Driver/Src/stm32f1xx_hal_dma.c ****   {
 2993              		.loc 1 578 0 is_stmt 0 discriminator 2
 2994 0680 5B4A     		ldr	r2, .L456
 2995 0682 1268     		ldr	r2, [r2]
 2996 0684 5B49     		ldr	r1, .L456+4
 2997 0686 8B42     		cmp	r3, r1
 2998 0688 24D0     		beq	.L406
 578:./Drivers/STM32F1xx_HAL_Driver/Src/stm32f1xx_hal_dma.c ****   {
 2999              		.loc 1 578 0 discriminator 48
 3000 068a 1431     		adds	r1, r1, #20
 3001 068c 8B42     		cmp	r3, r1
 3002 068e 27D0     		beq	.L407
 578:./Drivers/STM32F1xx_HAL_Driver/Src/stm32f1xx_hal_dma.c ****   {
 3003              		.loc 1 578 0 discriminator 50
 3004 0690 1431     		adds	r1, r1, #20
 3005 0692 8B42     		cmp	r3, r1
 3006 0694 26D0     		beq	.L408
 578:./Drivers/STM32F1xx_HAL_Driver/Src/stm32f1xx_hal_dma.c ****   {
 3007              		.loc 1 578 0 discriminator 52
 3008 0696 1431     		adds	r1, r1, #20
 3009 0698 8B42     		cmp	r3, r1
 3010 069a 26D0     		beq	.L409
 578:./Drivers/STM32F1xx_HAL_Driver/Src/stm32f1xx_hal_dma.c ****   {
 3011              		.loc 1 578 0 discriminator 54
 3012 069c 1431     		adds	r1, r1, #20
 3013 069e 8B42     		cmp	r3, r1
 3014 06a0 26D0     		beq	.L410
 578:./Drivers/STM32F1xx_HAL_Driver/Src/stm32f1xx_hal_dma.c ****   {
 3015              		.loc 1 578 0 discriminator 56
 3016 06a2 1431     		adds	r1, r1, #20
 3017 06a4 8B42     		cmp	r3, r1
 3018 06a6 26D0     		beq	.L411
 578:./Drivers/STM32F1xx_HAL_Driver/Src/stm32f1xx_hal_dma.c ****   {
 3019              		.loc 1 578 0 discriminator 58
 3020 06a8 1431     		adds	r1, r1, #20
 3021 06aa 8B42     		cmp	r3, r1
 3022 06ac 26D0     		beq	.L412
 578:./Drivers/STM32F1xx_HAL_Driver/Src/stm32f1xx_hal_dma.c ****   {
 3023              		.loc 1 578 0 discriminator 60
 3024 06ae 01F56271 		add	r1, r1, #904
 3025 06b2 8B42     		cmp	r3, r1
 3026 06b4 25D0     		beq	.L413
 578:./Drivers/STM32F1xx_HAL_Driver/Src/stm32f1xx_hal_dma.c ****   {
 3027              		.loc 1 578 0 discriminator 62
 3028 06b6 1431     		adds	r1, r1, #20
ARM GAS  /tmp/ccBdMCBM.s 			page 75


 3029 06b8 8B42     		cmp	r3, r1
 3030 06ba 24D0     		beq	.L414
 578:./Drivers/STM32F1xx_HAL_Driver/Src/stm32f1xx_hal_dma.c ****   {
 3031              		.loc 1 578 0 discriminator 64
 3032 06bc 1431     		adds	r1, r1, #20
 3033 06be 8B42     		cmp	r3, r1
 3034 06c0 23D0     		beq	.L415
 578:./Drivers/STM32F1xx_HAL_Driver/Src/stm32f1xx_hal_dma.c ****   {
 3035              		.loc 1 578 0 discriminator 66
 3036 06c2 1431     		adds	r1, r1, #20
 3037 06c4 8B42     		cmp	r3, r1
 3038 06c6 02D0     		beq	.L450
 578:./Drivers/STM32F1xx_HAL_Driver/Src/stm32f1xx_hal_dma.c ****   {
 3039              		.loc 1 578 0
 3040 06c8 4FF40031 		mov	r1, #131072
 3041 06cc 03E0     		b	.L300
 3042              	.L450:
 3043 06ce 4FF40051 		mov	r1, #8192
 3044 06d2 00E0     		b	.L300
 3045              	.L406:
 3046 06d4 0221     		movs	r1, #2
 3047              	.L300:
 578:./Drivers/STM32F1xx_HAL_Driver/Src/stm32f1xx_hal_dma.c ****   {
 3048              		.loc 1 578 0 discriminator 91
 3049 06d6 0A42     		tst	r2, r1
 3050 06d8 14BF     		ite	ne
 3051 06da 0122     		movne	r2, #1
 3052 06dc 0022     		moveq	r2, #0
 3053 06de 6AE7     		b	.L299
 3054              	.L407:
 578:./Drivers/STM32F1xx_HAL_Driver/Src/stm32f1xx_hal_dma.c ****   {
 3055              		.loc 1 578 0
 3056 06e0 2021     		movs	r1, #32
 3057 06e2 F8E7     		b	.L300
 3058              	.L408:
 3059 06e4 4FF40071 		mov	r1, #512
 3060 06e8 F5E7     		b	.L300
 3061              	.L409:
 3062 06ea 4FF40051 		mov	r1, #8192
 3063 06ee F2E7     		b	.L300
 3064              	.L410:
 3065 06f0 4FF40031 		mov	r1, #131072
 3066 06f4 EFE7     		b	.L300
 3067              	.L411:
 3068 06f6 4FF40011 		mov	r1, #2097152
 3069 06fa ECE7     		b	.L300
 3070              	.L412:
 3071 06fc 4FF00071 		mov	r1, #33554432
 3072 0700 E9E7     		b	.L300
 3073              	.L413:
 3074 0702 0221     		movs	r1, #2
 3075 0704 E7E7     		b	.L300
 3076              	.L414:
 3077 0706 2021     		movs	r1, #32
 3078 0708 E5E7     		b	.L300
 3079              	.L415:
 3080 070a 4FF40071 		mov	r1, #512
ARM GAS  /tmp/ccBdMCBM.s 			page 76


 3081 070e E2E7     		b	.L300
 3082              	.L449:
 588:./Drivers/STM32F1xx_HAL_Driver/Src/stm32f1xx_hal_dma.c ****     
 3083              		.loc 1 588 0 is_stmt 1
 3084 0710 4FF40052 		mov	r2, #8192
 3085 0714 00E0     		b	.L304
 3086              	.L417:
 3087 0716 0222     		movs	r2, #2
 3088              	.L304:
 588:./Drivers/STM32F1xx_HAL_Driver/Src/stm32f1xx_hal_dma.c ****     
 3089              		.loc 1 588 0 is_stmt 0 discriminator 46
 3090 0718 374B     		ldr	r3, .L456+8
 3091 071a 5A60     		str	r2, [r3, #4]
 3092              	.L305:
 591:./Drivers/STM32F1xx_HAL_Driver/Src/stm32f1xx_hal_dma.c **** 
 3093              		.loc 1 591 0 is_stmt 1
 3094 071c 636B     		ldr	r3, [r4, #52]
 3095 071e 6363     		str	r3, [r4, #52]
 594:./Drivers/STM32F1xx_HAL_Driver/Src/stm32f1xx_hal_dma.c ****     
 3096              		.loc 1 594 0
 3097 0720 0123     		movs	r3, #1
 3098 0722 84F82130 		strb	r3, [r4, #33]
 597:./Drivers/STM32F1xx_HAL_Driver/Src/stm32f1xx_hal_dma.c ****     
 3099              		.loc 1 597 0
 3100 0726 0023     		movs	r3, #0
 3101 0728 84F82030 		strb	r3, [r4, #32]
 599:./Drivers/STM32F1xx_HAL_Driver/Src/stm32f1xx_hal_dma.c ****       {       
 3102              		.loc 1 599 0
 3103 072c A36A     		ldr	r3, [r4, #40]
 3104 072e 0BB1     		cbz	r3, .L277
 602:./Drivers/STM32F1xx_HAL_Driver/Src/stm32f1xx_hal_dma.c ****       }
 3105              		.loc 1 602 0
 3106 0730 2046     		mov	r0, r4
 3107 0732 9847     		blx	r3
 3108              	.LVL55:
 3109              	.L277:
 606:./Drivers/STM32F1xx_HAL_Driver/Src/stm32f1xx_hal_dma.c **** 
 3110              		.loc 1 606 0
 3111 0734 10BD     		pop	{r4, pc}
 3112              	.LVL56:
 3113              	.L418:
 588:./Drivers/STM32F1xx_HAL_Driver/Src/stm32f1xx_hal_dma.c ****     
 3114              		.loc 1 588 0
 3115 0736 2022     		movs	r2, #32
 3116 0738 EEE7     		b	.L304
 3117              	.L419:
 3118 073a 4FF40072 		mov	r2, #512
 3119 073e EBE7     		b	.L304
 3120              	.L420:
 3121 0740 4FF40052 		mov	r2, #8192
 3122 0744 E8E7     		b	.L304
 3123              	.L421:
 3124 0746 4FF40032 		mov	r2, #131072
 3125 074a E5E7     		b	.L304
 3126              	.L422:
 3127 074c 4FF40012 		mov	r2, #2097152
 3128 0750 E2E7     		b	.L304
ARM GAS  /tmp/ccBdMCBM.s 			page 77


 3129              	.L423:
 3130 0752 4FF00072 		mov	r2, #33554432
 3131 0756 DFE7     		b	.L304
 3132              	.L424:
 3133 0758 0222     		movs	r2, #2
 3134 075a DDE7     		b	.L304
 3135              	.L425:
 3136 075c 2022     		movs	r2, #32
 3137 075e DBE7     		b	.L304
 3138              	.L426:
 3139 0760 4FF40072 		mov	r2, #512
 3140 0764 D8E7     		b	.L304
 3141              	.L303:
 588:./Drivers/STM32F1xx_HAL_Driver/Src/stm32f1xx_hal_dma.c ****     
 3142              		.loc 1 588 0 is_stmt 0 discriminator 2
 3143 0766 234A     		ldr	r2, .L456+4
 3144 0768 9342     		cmp	r3, r2
 3145 076a 24D0     		beq	.L428
 588:./Drivers/STM32F1xx_HAL_Driver/Src/stm32f1xx_hal_dma.c ****     
 3146              		.loc 1 588 0 discriminator 47
 3147 076c 1432     		adds	r2, r2, #20
 3148 076e 9342     		cmp	r3, r2
 3149 0770 25D0     		beq	.L429
 588:./Drivers/STM32F1xx_HAL_Driver/Src/stm32f1xx_hal_dma.c ****     
 3150              		.loc 1 588 0 discriminator 49
 3151 0772 1432     		adds	r2, r2, #20
 3152 0774 9342     		cmp	r3, r2
 3153 0776 24D0     		beq	.L430
 588:./Drivers/STM32F1xx_HAL_Driver/Src/stm32f1xx_hal_dma.c ****     
 3154              		.loc 1 588 0 discriminator 51
 3155 0778 1432     		adds	r2, r2, #20
 3156 077a 9342     		cmp	r3, r2
 3157 077c 24D0     		beq	.L431
 588:./Drivers/STM32F1xx_HAL_Driver/Src/stm32f1xx_hal_dma.c ****     
 3158              		.loc 1 588 0 discriminator 53
 3159 077e 1432     		adds	r2, r2, #20
 3160 0780 9342     		cmp	r3, r2
 3161 0782 24D0     		beq	.L432
 588:./Drivers/STM32F1xx_HAL_Driver/Src/stm32f1xx_hal_dma.c ****     
 3162              		.loc 1 588 0 discriminator 55
 3163 0784 1432     		adds	r2, r2, #20
 3164 0786 9342     		cmp	r3, r2
 3165 0788 24D0     		beq	.L433
 588:./Drivers/STM32F1xx_HAL_Driver/Src/stm32f1xx_hal_dma.c ****     
 3166              		.loc 1 588 0 discriminator 57
 3167 078a 1432     		adds	r2, r2, #20
 3168 078c 9342     		cmp	r3, r2
 3169 078e 24D0     		beq	.L434
 588:./Drivers/STM32F1xx_HAL_Driver/Src/stm32f1xx_hal_dma.c ****     
 3170              		.loc 1 588 0 discriminator 59
 3171 0790 02F56272 		add	r2, r2, #904
 3172 0794 9342     		cmp	r3, r2
 3173 0796 23D0     		beq	.L435
 588:./Drivers/STM32F1xx_HAL_Driver/Src/stm32f1xx_hal_dma.c ****     
 3174              		.loc 1 588 0 discriminator 61
 3175 0798 1432     		adds	r2, r2, #20
 3176 079a 9342     		cmp	r3, r2
ARM GAS  /tmp/ccBdMCBM.s 			page 78


 3177 079c 22D0     		beq	.L436
 588:./Drivers/STM32F1xx_HAL_Driver/Src/stm32f1xx_hal_dma.c ****     
 3178              		.loc 1 588 0 discriminator 63
 3179 079e 1432     		adds	r2, r2, #20
 3180 07a0 9342     		cmp	r3, r2
 3181 07a2 21D0     		beq	.L437
 588:./Drivers/STM32F1xx_HAL_Driver/Src/stm32f1xx_hal_dma.c ****     
 3182              		.loc 1 588 0 discriminator 65
 3183 07a4 1432     		adds	r2, r2, #20
 3184 07a6 9342     		cmp	r3, r2
 3185 07a8 02D0     		beq	.L451
 588:./Drivers/STM32F1xx_HAL_Driver/Src/stm32f1xx_hal_dma.c ****     
 3186              		.loc 1 588 0
 3187 07aa 4FF40032 		mov	r2, #131072
 3188 07ae 03E0     		b	.L306
 3189              	.L451:
 3190 07b0 4FF40052 		mov	r2, #8192
 3191 07b4 00E0     		b	.L306
 3192              	.L428:
 3193 07b6 0222     		movs	r2, #2
 3194              	.L306:
 588:./Drivers/STM32F1xx_HAL_Driver/Src/stm32f1xx_hal_dma.c ****     
 3195              		.loc 1 588 0 discriminator 90
 3196 07b8 0D4B     		ldr	r3, .L456
 3197 07ba 5A60     		str	r2, [r3, #4]
 3198 07bc AEE7     		b	.L305
 3199              	.L429:
 588:./Drivers/STM32F1xx_HAL_Driver/Src/stm32f1xx_hal_dma.c ****     
 3200              		.loc 1 588 0
 3201 07be 2022     		movs	r2, #32
 3202 07c0 FAE7     		b	.L306
 3203              	.L430:
 3204 07c2 4FF40072 		mov	r2, #512
 3205 07c6 F7E7     		b	.L306
 3206              	.L431:
 3207 07c8 4FF40052 		mov	r2, #8192
 3208 07cc F4E7     		b	.L306
 3209              	.L432:
 3210 07ce 4FF40032 		mov	r2, #131072
 3211 07d2 F1E7     		b	.L306
 3212              	.L433:
 3213 07d4 4FF40012 		mov	r2, #2097152
 3214 07d8 EEE7     		b	.L306
 3215              	.L434:
 3216 07da 4FF00072 		mov	r2, #33554432
 3217 07de EBE7     		b	.L306
 3218              	.L435:
 3219 07e0 0222     		movs	r2, #2
 3220 07e2 E9E7     		b	.L306
 3221              	.L436:
 3222 07e4 2022     		movs	r2, #32
 3223 07e6 E7E7     		b	.L306
 3224              	.L437:
 3225 07e8 4FF40072 		mov	r2, #512
 3226 07ec E4E7     		b	.L306
 3227              	.L457:
 3228 07ee 00BF     		.align	2
ARM GAS  /tmp/ccBdMCBM.s 			page 79


 3229              	.L456:
 3230 07f0 00000240 		.word	1073872896
 3231 07f4 08000240 		.word	1073872904
 3232 07f8 00040240 		.word	1073873920
 3233              		.cfi_endproc
 3234              	.LFE72:
 3236              		.section	.text.HAL_DMA_GetState,"ax",%progbits
 3237              		.align	1
 3238              		.global	HAL_DMA_GetState
 3239              		.syntax unified
 3240              		.thumb
 3241              		.thumb_func
 3242              		.fpu softvfp
 3244              	HAL_DMA_GetState:
 3245              	.LFB73:
 635:./Drivers/STM32F1xx_HAL_Driver/Src/stm32f1xx_hal_dma.c ****   return hdma->State;
 3246              		.loc 1 635 0 is_stmt 1
 3247              		.cfi_startproc
 3248              		@ args = 0, pretend = 0, frame = 0
 3249              		@ frame_needed = 0, uses_anonymous_args = 0
 3250              		@ link register save eliminated.
 3251              	.LVL57:
 637:./Drivers/STM32F1xx_HAL_Driver/Src/stm32f1xx_hal_dma.c **** 
 3252              		.loc 1 637 0
 3253 0000 90F82100 		ldrb	r0, [r0, #33]	@ zero_extendqisi2
 3254              	.LVL58:
 3255 0004 7047     		bx	lr
 3256              		.cfi_endproc
 3257              	.LFE73:
 3259              		.section	.text.HAL_DMA_GetError,"ax",%progbits
 3260              		.align	1
 3261              		.global	HAL_DMA_GetError
 3262              		.syntax unified
 3263              		.thumb
 3264              		.thumb_func
 3265              		.fpu softvfp
 3267              	HAL_DMA_GetError:
 3268              	.LFB74:
 646:./Drivers/STM32F1xx_HAL_Driver/Src/stm32f1xx_hal_dma.c ****   return hdma->ErrorCode;
 3269              		.loc 1 646 0
 3270              		.cfi_startproc
 3271              		@ args = 0, pretend = 0, frame = 0
 3272              		@ frame_needed = 0, uses_anonymous_args = 0
 3273              		@ link register save eliminated.
 3274              	.LVL59:
 647:./Drivers/STM32F1xx_HAL_Driver/Src/stm32f1xx_hal_dma.c **** }
 3275              		.loc 1 647 0
 3276 0000 406B     		ldr	r0, [r0, #52]
 3277              	.LVL60:
 648:./Drivers/STM32F1xx_HAL_Driver/Src/stm32f1xx_hal_dma.c **** 
 3278              		.loc 1 648 0
 3279 0002 7047     		bx	lr
 3280              		.cfi_endproc
 3281              	.LFE74:
 3283              		.text
 3284              	.Letext0:
 3285              		.file 2 "/usr/arm-none-eabi/include/machine/_default_types.h"
ARM GAS  /tmp/ccBdMCBM.s 			page 80


 3286              		.file 3 "/usr/arm-none-eabi/include/sys/_stdint.h"
 3287              		.file 4 "./Drivers/CMSIS/Include/core_cm3.h"
 3288              		.file 5 "./Drivers/CMSIS/Device/ST/STM32F1xx/Include/system_stm32f1xx.h"
 3289              		.file 6 "./Drivers/CMSIS/Device/ST/STM32F1xx/Include/stm32f103xe.h"
 3290              		.file 7 "/usr/arm-none-eabi/include/sys/lock.h"
 3291              		.file 8 "/usr/arm-none-eabi/include/sys/_types.h"
 3292              		.file 9 "/usr/lib/gcc/arm-none-eabi/7.2.0/include/stddef.h"
 3293              		.file 10 "/usr/arm-none-eabi/include/sys/reent.h"
 3294              		.file 11 "./Drivers/CMSIS/Device/ST/STM32F1xx/Include/stm32f1xx.h"
 3295              		.file 12 "./Drivers/STM32F1xx_HAL_Driver/Inc/stm32f1xx_hal_def.h"
 3296              		.file 13 "./Drivers/STM32F1xx_HAL_Driver/Inc/stm32f1xx_hal_dma.h"
 3297              		.file 14 "./Drivers/STM32F1xx_HAL_Driver/Inc/stm32f1xx_hal.h"
ARM GAS  /tmp/ccBdMCBM.s 			page 81

