ARM GAS  /tmp/ccH8hZ7j.s 			page 1


   1              		.cpu cortex-m3
   2              		.eabi_attribute 20, 1
   3              		.eabi_attribute 21, 1
   4              		.eabi_attribute 23, 3
   5              		.eabi_attribute 24, 1
   6              		.eabi_attribute 25, 1
   7              		.eabi_attribute 26, 1
   8              		.eabi_attribute 30, 1
   9              		.eabi_attribute 34, 1
  10              		.eabi_attribute 18, 4
  11              		.file	"stm32f1xx_hal_iwdg.c"
  12              		.text
  13              	.Ltext0:
  14              		.cfi_sections	.debug_frame
  15              		.section	.text.HAL_IWDG_MspInit,"ax",%progbits
  16              		.align	1
  17              		.weak	HAL_IWDG_MspInit
  18              		.syntax unified
  19              		.thumb
  20              		.thumb_func
  21              		.fpu softvfp
  23              	HAL_IWDG_MspInit:
  24              	.LFB67:
  25              		.file 1 "./Drivers/STM32F1xx_HAL_Driver/Src/stm32f1xx_hal_iwdg.c"
   1:./Drivers/STM32F1xx_HAL_Driver/Src/stm32f1xx_hal_iwdg.c **** /**
   2:./Drivers/STM32F1xx_HAL_Driver/Src/stm32f1xx_hal_iwdg.c ****   ******************************************************************************
   3:./Drivers/STM32F1xx_HAL_Driver/Src/stm32f1xx_hal_iwdg.c ****   * @file    stm32f1xx_hal_iwdg.c
   4:./Drivers/STM32F1xx_HAL_Driver/Src/stm32f1xx_hal_iwdg.c ****   * @author  MCD Application Team
   5:./Drivers/STM32F1xx_HAL_Driver/Src/stm32f1xx_hal_iwdg.c ****   * @version V1.0.4
   6:./Drivers/STM32F1xx_HAL_Driver/Src/stm32f1xx_hal_iwdg.c ****   * @date    29-April-2016
   7:./Drivers/STM32F1xx_HAL_Driver/Src/stm32f1xx_hal_iwdg.c ****   * @brief   IWDG HAL module driver.
   8:./Drivers/STM32F1xx_HAL_Driver/Src/stm32f1xx_hal_iwdg.c ****   *          This file provides firmware functions to manage the following 
   9:./Drivers/STM32F1xx_HAL_Driver/Src/stm32f1xx_hal_iwdg.c ****   *          functionalities of the Independent Watchdog (IWDG) peripheral:
  10:./Drivers/STM32F1xx_HAL_Driver/Src/stm32f1xx_hal_iwdg.c ****   *           + Initialization and Configuration functions
  11:./Drivers/STM32F1xx_HAL_Driver/Src/stm32f1xx_hal_iwdg.c ****   *           + IO operation functions
  12:./Drivers/STM32F1xx_HAL_Driver/Src/stm32f1xx_hal_iwdg.c ****   *           + Peripheral State functions
  13:./Drivers/STM32F1xx_HAL_Driver/Src/stm32f1xx_hal_iwdg.c ****   @verbatim 
  14:./Drivers/STM32F1xx_HAL_Driver/Src/stm32f1xx_hal_iwdg.c **** ================================================================================
  15:./Drivers/STM32F1xx_HAL_Driver/Src/stm32f1xx_hal_iwdg.c ****                     ##### IWDG specific features #####
  16:./Drivers/STM32F1xx_HAL_Driver/Src/stm32f1xx_hal_iwdg.c **** ================================================================================
  17:./Drivers/STM32F1xx_HAL_Driver/Src/stm32f1xx_hal_iwdg.c ****     [..] 
  18:./Drivers/STM32F1xx_HAL_Driver/Src/stm32f1xx_hal_iwdg.c ****     (+) The IWDG can be started by either software or hardware (configurable
  19:./Drivers/STM32F1xx_HAL_Driver/Src/stm32f1xx_hal_iwdg.c ****         through option byte).
  20:./Drivers/STM32F1xx_HAL_Driver/Src/stm32f1xx_hal_iwdg.c ****     (+) The IWDG is clocked by its own dedicated Low-Speed clock (LSI) and
  21:./Drivers/STM32F1xx_HAL_Driver/Src/stm32f1xx_hal_iwdg.c ****         thus stays active even if the main clock fails.
  22:./Drivers/STM32F1xx_HAL_Driver/Src/stm32f1xx_hal_iwdg.c ****     (+) Once the IWDG is started, the LSI is forced ON and cannot be disabled
  23:./Drivers/STM32F1xx_HAL_Driver/Src/stm32f1xx_hal_iwdg.c ****         (LSI cannot be disabled too), and the counter starts counting down from 
  24:./Drivers/STM32F1xx_HAL_Driver/Src/stm32f1xx_hal_iwdg.c ****         the reset value of 0xFFF. When it reaches the end of count value (0x000)
  25:./Drivers/STM32F1xx_HAL_Driver/Src/stm32f1xx_hal_iwdg.c ****         a system reset is generated.
  26:./Drivers/STM32F1xx_HAL_Driver/Src/stm32f1xx_hal_iwdg.c ****     (+) The IWDG counter should be refreshed at regular intervals, otherwise the
  27:./Drivers/STM32F1xx_HAL_Driver/Src/stm32f1xx_hal_iwdg.c ****         watchdog generates an MCU reset when the counter reaches 0.          
  28:./Drivers/STM32F1xx_HAL_Driver/Src/stm32f1xx_hal_iwdg.c ****     (+) The IWDG is implemented in the VDD voltage domain that is still functional
  29:./Drivers/STM32F1xx_HAL_Driver/Src/stm32f1xx_hal_iwdg.c ****         in STOP and STANDBY mode (IWDG reset can wake-up from STANDBY).
  30:./Drivers/STM32F1xx_HAL_Driver/Src/stm32f1xx_hal_iwdg.c ****     (+) IWDGRST flag in RCC_CSR register can be used to inform when an IWDG
  31:./Drivers/STM32F1xx_HAL_Driver/Src/stm32f1xx_hal_iwdg.c ****         reset occurs.
  32:./Drivers/STM32F1xx_HAL_Driver/Src/stm32f1xx_hal_iwdg.c **** 
  33:./Drivers/STM32F1xx_HAL_Driver/Src/stm32f1xx_hal_iwdg.c ****     (+) Min-max timeout value at 40KHz (LSI): 0.1us / 26.2s .
ARM GAS  /tmp/ccH8hZ7j.s 			page 2


  34:./Drivers/STM32F1xx_HAL_Driver/Src/stm32f1xx_hal_iwdg.c ****         The IWDG timeout may vary due to LSI frequency dispersion. STM32F1xx
  35:./Drivers/STM32F1xx_HAL_Driver/Src/stm32f1xx_hal_iwdg.c ****         devices provide the capability to measure the LSI frequency (LSI clock
  36:./Drivers/STM32F1xx_HAL_Driver/Src/stm32f1xx_hal_iwdg.c ****         connected internally to TIM5 CH4 input capture). The measured value
  37:./Drivers/STM32F1xx_HAL_Driver/Src/stm32f1xx_hal_iwdg.c ****         can be used to have an IWDG timeout with an acceptable accuracy.
  38:./Drivers/STM32F1xx_HAL_Driver/Src/stm32f1xx_hal_iwdg.c ****         For more information, please refer to the STM32F1xx Reference manual.
  39:./Drivers/STM32F1xx_HAL_Driver/Src/stm32f1xx_hal_iwdg.c ****         Note: LSI Calibration is only available on: High density, XL-density and Connectivity line 
  40:./Drivers/STM32F1xx_HAL_Driver/Src/stm32f1xx_hal_iwdg.c **** 
  41:./Drivers/STM32F1xx_HAL_Driver/Src/stm32f1xx_hal_iwdg.c ****                      ##### How to use this driver #####
  42:./Drivers/STM32F1xx_HAL_Driver/Src/stm32f1xx_hal_iwdg.c ****   ==============================================================================
  43:./Drivers/STM32F1xx_HAL_Driver/Src/stm32f1xx_hal_iwdg.c ****     [..]
  44:./Drivers/STM32F1xx_HAL_Driver/Src/stm32f1xx_hal_iwdg.c ****     (+) Use IWDG using HAL_IWDG_Init() function to :
  45:./Drivers/STM32F1xx_HAL_Driver/Src/stm32f1xx_hal_iwdg.c ****         (++) Enable write access to IWDG_PR, IWDG_RLR.   
  46:./Drivers/STM32F1xx_HAL_Driver/Src/stm32f1xx_hal_iwdg.c ****         (++) Configure the IWDG prescaler, counter reload value.
  47:./Drivers/STM32F1xx_HAL_Driver/Src/stm32f1xx_hal_iwdg.c ****              This reload value will be loaded in the IWDG counter each time the counter
  48:./Drivers/STM32F1xx_HAL_Driver/Src/stm32f1xx_hal_iwdg.c ****              is reloaded, then the IWDG will start counting down from this value.
  49:./Drivers/STM32F1xx_HAL_Driver/Src/stm32f1xx_hal_iwdg.c ****     (+) Use IWDG using HAL_IWDG_Start() function to :
  50:./Drivers/STM32F1xx_HAL_Driver/Src/stm32f1xx_hal_iwdg.c ****         (++) Reload IWDG counter with value defined in the IWDG_RLR register.
  51:./Drivers/STM32F1xx_HAL_Driver/Src/stm32f1xx_hal_iwdg.c ****         (++) Start the IWDG, when the IWDG is used in software mode (no need 
  52:./Drivers/STM32F1xx_HAL_Driver/Src/stm32f1xx_hal_iwdg.c ****              to enable the LSI, it will be enabled by hardware).
  53:./Drivers/STM32F1xx_HAL_Driver/Src/stm32f1xx_hal_iwdg.c ****     (+) Then the application program must refresh the IWDG counter at regular
  54:./Drivers/STM32F1xx_HAL_Driver/Src/stm32f1xx_hal_iwdg.c ****         intervals during normal operation to prevent an MCU reset, using
  55:./Drivers/STM32F1xx_HAL_Driver/Src/stm32f1xx_hal_iwdg.c ****         HAL_IWDG_Refresh() function.    
  56:./Drivers/STM32F1xx_HAL_Driver/Src/stm32f1xx_hal_iwdg.c ****     
  57:./Drivers/STM32F1xx_HAL_Driver/Src/stm32f1xx_hal_iwdg.c ****      *** IWDG HAL driver macros list ***
  58:./Drivers/STM32F1xx_HAL_Driver/Src/stm32f1xx_hal_iwdg.c ****      ====================================
  59:./Drivers/STM32F1xx_HAL_Driver/Src/stm32f1xx_hal_iwdg.c ****      [..]
  60:./Drivers/STM32F1xx_HAL_Driver/Src/stm32f1xx_hal_iwdg.c ****        Below the list of most used macros in IWDG HAL driver.
  61:./Drivers/STM32F1xx_HAL_Driver/Src/stm32f1xx_hal_iwdg.c ****        
  62:./Drivers/STM32F1xx_HAL_Driver/Src/stm32f1xx_hal_iwdg.c ****       (+) __HAL_IWDG_START: Enable the IWDG peripheral
  63:./Drivers/STM32F1xx_HAL_Driver/Src/stm32f1xx_hal_iwdg.c ****       (+) __HAL_IWDG_RELOAD_COUNTER: Reloads IWDG counter with value defined in the reload register
  64:./Drivers/STM32F1xx_HAL_Driver/Src/stm32f1xx_hal_iwdg.c ****       (+) __HAL_IWDG_GET_FLAG: Get the selected IWDG's flag status
  65:./Drivers/STM32F1xx_HAL_Driver/Src/stm32f1xx_hal_iwdg.c **** 
  66:./Drivers/STM32F1xx_HAL_Driver/Src/stm32f1xx_hal_iwdg.c ****   @endverbatim
  67:./Drivers/STM32F1xx_HAL_Driver/Src/stm32f1xx_hal_iwdg.c ****   ******************************************************************************
  68:./Drivers/STM32F1xx_HAL_Driver/Src/stm32f1xx_hal_iwdg.c ****   * @attention
  69:./Drivers/STM32F1xx_HAL_Driver/Src/stm32f1xx_hal_iwdg.c ****   *
  70:./Drivers/STM32F1xx_HAL_Driver/Src/stm32f1xx_hal_iwdg.c ****   * <h2><center>&copy; COPYRIGHT(c) 2016 STMicroelectronics</center></h2>
  71:./Drivers/STM32F1xx_HAL_Driver/Src/stm32f1xx_hal_iwdg.c ****   *
  72:./Drivers/STM32F1xx_HAL_Driver/Src/stm32f1xx_hal_iwdg.c ****   * Redistribution and use in source and binary forms, with or without modification,
  73:./Drivers/STM32F1xx_HAL_Driver/Src/stm32f1xx_hal_iwdg.c ****   * are permitted provided that the following conditions are met:
  74:./Drivers/STM32F1xx_HAL_Driver/Src/stm32f1xx_hal_iwdg.c ****   *   1. Redistributions of source code must retain the above copyright notice,
  75:./Drivers/STM32F1xx_HAL_Driver/Src/stm32f1xx_hal_iwdg.c ****   *      this list of conditions and the following disclaimer.
  76:./Drivers/STM32F1xx_HAL_Driver/Src/stm32f1xx_hal_iwdg.c ****   *   2. Redistributions in binary form must reproduce the above copyright notice,
  77:./Drivers/STM32F1xx_HAL_Driver/Src/stm32f1xx_hal_iwdg.c ****   *      this list of conditions and the following disclaimer in the documentation
  78:./Drivers/STM32F1xx_HAL_Driver/Src/stm32f1xx_hal_iwdg.c ****   *      and/or other materials provided with the distribution.
  79:./Drivers/STM32F1xx_HAL_Driver/Src/stm32f1xx_hal_iwdg.c ****   *   3. Neither the name of STMicroelectronics nor the names of its contributors
  80:./Drivers/STM32F1xx_HAL_Driver/Src/stm32f1xx_hal_iwdg.c ****   *      may be used to endorse or promote products derived from this software
  81:./Drivers/STM32F1xx_HAL_Driver/Src/stm32f1xx_hal_iwdg.c ****   *      without specific prior written permission.
  82:./Drivers/STM32F1xx_HAL_Driver/Src/stm32f1xx_hal_iwdg.c ****   *
  83:./Drivers/STM32F1xx_HAL_Driver/Src/stm32f1xx_hal_iwdg.c ****   * THIS SOFTWARE IS PROVIDED BY THE COPYRIGHT HOLDERS AND CONTRIBUTORS "AS IS"
  84:./Drivers/STM32F1xx_HAL_Driver/Src/stm32f1xx_hal_iwdg.c ****   * AND ANY EXPRESS OR IMPLIED WARRANTIES, INCLUDING, BUT NOT LIMITED TO, THE
  85:./Drivers/STM32F1xx_HAL_Driver/Src/stm32f1xx_hal_iwdg.c ****   * IMPLIED WARRANTIES OF MERCHANTABILITY AND FITNESS FOR A PARTICULAR PURPOSE ARE
  86:./Drivers/STM32F1xx_HAL_Driver/Src/stm32f1xx_hal_iwdg.c ****   * DISCLAIMED. IN NO EVENT SHALL THE COPYRIGHT HOLDER OR CONTRIBUTORS BE LIABLE
  87:./Drivers/STM32F1xx_HAL_Driver/Src/stm32f1xx_hal_iwdg.c ****   * FOR ANY DIRECT, INDIRECT, INCIDENTAL, SPECIAL, EXEMPLARY, OR CONSEQUENTIAL
  88:./Drivers/STM32F1xx_HAL_Driver/Src/stm32f1xx_hal_iwdg.c ****   * DAMAGES (INCLUDING, BUT NOT LIMITED TO, PROCUREMENT OF SUBSTITUTE GOODS OR
  89:./Drivers/STM32F1xx_HAL_Driver/Src/stm32f1xx_hal_iwdg.c ****   * SERVICES; LOSS OF USE, DATA, OR PROFITS; OR BUSINESS INTERRUPTION) HOWEVER
  90:./Drivers/STM32F1xx_HAL_Driver/Src/stm32f1xx_hal_iwdg.c ****   * CAUSED AND ON ANY THEORY OF LIABILITY, WHETHER IN CONTRACT, STRICT LIABILITY,
ARM GAS  /tmp/ccH8hZ7j.s 			page 3


  91:./Drivers/STM32F1xx_HAL_Driver/Src/stm32f1xx_hal_iwdg.c ****   * OR TORT (INCLUDING NEGLIGENCE OR OTHERWISE) ARISING IN ANY WAY OUT OF THE USE
  92:./Drivers/STM32F1xx_HAL_Driver/Src/stm32f1xx_hal_iwdg.c ****   * OF THIS SOFTWARE, EVEN IF ADVISED OF THE POSSIBILITY OF SUCH DAMAGE.
  93:./Drivers/STM32F1xx_HAL_Driver/Src/stm32f1xx_hal_iwdg.c ****   *
  94:./Drivers/STM32F1xx_HAL_Driver/Src/stm32f1xx_hal_iwdg.c ****   ******************************************************************************
  95:./Drivers/STM32F1xx_HAL_Driver/Src/stm32f1xx_hal_iwdg.c ****   */ 
  96:./Drivers/STM32F1xx_HAL_Driver/Src/stm32f1xx_hal_iwdg.c **** 
  97:./Drivers/STM32F1xx_HAL_Driver/Src/stm32f1xx_hal_iwdg.c **** /* Includes ------------------------------------------------------------------*/
  98:./Drivers/STM32F1xx_HAL_Driver/Src/stm32f1xx_hal_iwdg.c **** #include "stm32f1xx_hal.h"
  99:./Drivers/STM32F1xx_HAL_Driver/Src/stm32f1xx_hal_iwdg.c **** 
 100:./Drivers/STM32F1xx_HAL_Driver/Src/stm32f1xx_hal_iwdg.c **** /** @addtogroup STM32F1xx_HAL_Driver
 101:./Drivers/STM32F1xx_HAL_Driver/Src/stm32f1xx_hal_iwdg.c ****   * @{
 102:./Drivers/STM32F1xx_HAL_Driver/Src/stm32f1xx_hal_iwdg.c ****   */
 103:./Drivers/STM32F1xx_HAL_Driver/Src/stm32f1xx_hal_iwdg.c **** 
 104:./Drivers/STM32F1xx_HAL_Driver/Src/stm32f1xx_hal_iwdg.c **** /** @defgroup IWDG IWDG
 105:./Drivers/STM32F1xx_HAL_Driver/Src/stm32f1xx_hal_iwdg.c ****   * @brief IWDG HAL module driver.
 106:./Drivers/STM32F1xx_HAL_Driver/Src/stm32f1xx_hal_iwdg.c ****   * @{
 107:./Drivers/STM32F1xx_HAL_Driver/Src/stm32f1xx_hal_iwdg.c ****   */
 108:./Drivers/STM32F1xx_HAL_Driver/Src/stm32f1xx_hal_iwdg.c **** 
 109:./Drivers/STM32F1xx_HAL_Driver/Src/stm32f1xx_hal_iwdg.c **** #ifdef HAL_IWDG_MODULE_ENABLED
 110:./Drivers/STM32F1xx_HAL_Driver/Src/stm32f1xx_hal_iwdg.c **** 
 111:./Drivers/STM32F1xx_HAL_Driver/Src/stm32f1xx_hal_iwdg.c **** /* Private typedef -----------------------------------------------------------*/
 112:./Drivers/STM32F1xx_HAL_Driver/Src/stm32f1xx_hal_iwdg.c **** /* Private define ------------------------------------------------------------*/
 113:./Drivers/STM32F1xx_HAL_Driver/Src/stm32f1xx_hal_iwdg.c **** 
 114:./Drivers/STM32F1xx_HAL_Driver/Src/stm32f1xx_hal_iwdg.c **** /** @defgroup IWDG_Private_Constants IWDG Private Constants
 115:./Drivers/STM32F1xx_HAL_Driver/Src/stm32f1xx_hal_iwdg.c ****   * @{
 116:./Drivers/STM32F1xx_HAL_Driver/Src/stm32f1xx_hal_iwdg.c ****   */
 117:./Drivers/STM32F1xx_HAL_Driver/Src/stm32f1xx_hal_iwdg.c **** 
 118:./Drivers/STM32F1xx_HAL_Driver/Src/stm32f1xx_hal_iwdg.c **** #define IWDG_DEFAULT_TIMEOUT (uint32_t)1000
 119:./Drivers/STM32F1xx_HAL_Driver/Src/stm32f1xx_hal_iwdg.c **** 
 120:./Drivers/STM32F1xx_HAL_Driver/Src/stm32f1xx_hal_iwdg.c **** /**
 121:./Drivers/STM32F1xx_HAL_Driver/Src/stm32f1xx_hal_iwdg.c ****   * @}
 122:./Drivers/STM32F1xx_HAL_Driver/Src/stm32f1xx_hal_iwdg.c ****   */
 123:./Drivers/STM32F1xx_HAL_Driver/Src/stm32f1xx_hal_iwdg.c **** 
 124:./Drivers/STM32F1xx_HAL_Driver/Src/stm32f1xx_hal_iwdg.c **** /* Private macro -------------------------------------------------------------*/
 125:./Drivers/STM32F1xx_HAL_Driver/Src/stm32f1xx_hal_iwdg.c **** /* Private variables ---------------------------------------------------------*/
 126:./Drivers/STM32F1xx_HAL_Driver/Src/stm32f1xx_hal_iwdg.c **** /* Private function prototypes -----------------------------------------------*/
 127:./Drivers/STM32F1xx_HAL_Driver/Src/stm32f1xx_hal_iwdg.c **** /* Private functions ---------------------------------------------------------*/
 128:./Drivers/STM32F1xx_HAL_Driver/Src/stm32f1xx_hal_iwdg.c **** 
 129:./Drivers/STM32F1xx_HAL_Driver/Src/stm32f1xx_hal_iwdg.c **** /** @defgroup IWDG_Exported_Functions IWDG Exported Functions
 130:./Drivers/STM32F1xx_HAL_Driver/Src/stm32f1xx_hal_iwdg.c ****   * @{
 131:./Drivers/STM32F1xx_HAL_Driver/Src/stm32f1xx_hal_iwdg.c ****   */
 132:./Drivers/STM32F1xx_HAL_Driver/Src/stm32f1xx_hal_iwdg.c **** 
 133:./Drivers/STM32F1xx_HAL_Driver/Src/stm32f1xx_hal_iwdg.c **** /** @defgroup IWDG_Exported_Functions_Group1 Initialization and de-initialization functions 
 134:./Drivers/STM32F1xx_HAL_Driver/Src/stm32f1xx_hal_iwdg.c ****  *  @brief    Initialization and Configuration functions. 
 135:./Drivers/STM32F1xx_HAL_Driver/Src/stm32f1xx_hal_iwdg.c ****  *
 136:./Drivers/STM32F1xx_HAL_Driver/Src/stm32f1xx_hal_iwdg.c **** @verbatim    
 137:./Drivers/STM32F1xx_HAL_Driver/Src/stm32f1xx_hal_iwdg.c ****  ===============================================================================
 138:./Drivers/STM32F1xx_HAL_Driver/Src/stm32f1xx_hal_iwdg.c ****           ##### Initialization and de-initialization functions #####
 139:./Drivers/STM32F1xx_HAL_Driver/Src/stm32f1xx_hal_iwdg.c ****  ===============================================================================
 140:./Drivers/STM32F1xx_HAL_Driver/Src/stm32f1xx_hal_iwdg.c ****     [..]  This section provides functions allowing to:
 141:./Drivers/STM32F1xx_HAL_Driver/Src/stm32f1xx_hal_iwdg.c ****       (+) Initialize the IWDG according to the specified parameters 
 142:./Drivers/STM32F1xx_HAL_Driver/Src/stm32f1xx_hal_iwdg.c ****           in the IWDG_InitTypeDef and create the associated handle
 143:./Drivers/STM32F1xx_HAL_Driver/Src/stm32f1xx_hal_iwdg.c ****       (+) Initialize the IWDG MSP
 144:./Drivers/STM32F1xx_HAL_Driver/Src/stm32f1xx_hal_iwdg.c ****       (+) DeInitialize IWDG MSP 
 145:./Drivers/STM32F1xx_HAL_Driver/Src/stm32f1xx_hal_iwdg.c ****  
 146:./Drivers/STM32F1xx_HAL_Driver/Src/stm32f1xx_hal_iwdg.c **** @endverbatim
 147:./Drivers/STM32F1xx_HAL_Driver/Src/stm32f1xx_hal_iwdg.c ****   * @{
ARM GAS  /tmp/ccH8hZ7j.s 			page 4


 148:./Drivers/STM32F1xx_HAL_Driver/Src/stm32f1xx_hal_iwdg.c ****   */
 149:./Drivers/STM32F1xx_HAL_Driver/Src/stm32f1xx_hal_iwdg.c **** 
 150:./Drivers/STM32F1xx_HAL_Driver/Src/stm32f1xx_hal_iwdg.c **** /**
 151:./Drivers/STM32F1xx_HAL_Driver/Src/stm32f1xx_hal_iwdg.c ****   * @brief  Initializes the IWDG according to the specified
 152:./Drivers/STM32F1xx_HAL_Driver/Src/stm32f1xx_hal_iwdg.c ****   *         parameters in the IWDG_InitTypeDef and creates the associated handle.
 153:./Drivers/STM32F1xx_HAL_Driver/Src/stm32f1xx_hal_iwdg.c ****   * @param  hiwdg: pointer to a IWDG_HandleTypeDef structure that contains
 154:./Drivers/STM32F1xx_HAL_Driver/Src/stm32f1xx_hal_iwdg.c ****   *                the configuration information for the specified IWDG module.
 155:./Drivers/STM32F1xx_HAL_Driver/Src/stm32f1xx_hal_iwdg.c ****   * @retval HAL status
 156:./Drivers/STM32F1xx_HAL_Driver/Src/stm32f1xx_hal_iwdg.c ****   */
 157:./Drivers/STM32F1xx_HAL_Driver/Src/stm32f1xx_hal_iwdg.c **** HAL_StatusTypeDef HAL_IWDG_Init(IWDG_HandleTypeDef *hiwdg)
 158:./Drivers/STM32F1xx_HAL_Driver/Src/stm32f1xx_hal_iwdg.c **** {
 159:./Drivers/STM32F1xx_HAL_Driver/Src/stm32f1xx_hal_iwdg.c ****   /* Check the IWDG handle allocation */
 160:./Drivers/STM32F1xx_HAL_Driver/Src/stm32f1xx_hal_iwdg.c ****   if(hiwdg == NULL)
 161:./Drivers/STM32F1xx_HAL_Driver/Src/stm32f1xx_hal_iwdg.c ****   {
 162:./Drivers/STM32F1xx_HAL_Driver/Src/stm32f1xx_hal_iwdg.c ****     return HAL_ERROR;
 163:./Drivers/STM32F1xx_HAL_Driver/Src/stm32f1xx_hal_iwdg.c ****   }
 164:./Drivers/STM32F1xx_HAL_Driver/Src/stm32f1xx_hal_iwdg.c **** 
 165:./Drivers/STM32F1xx_HAL_Driver/Src/stm32f1xx_hal_iwdg.c ****   /* Check the parameters */
 166:./Drivers/STM32F1xx_HAL_Driver/Src/stm32f1xx_hal_iwdg.c ****   assert_param(IS_IWDG_ALL_INSTANCE(hiwdg->Instance));
 167:./Drivers/STM32F1xx_HAL_Driver/Src/stm32f1xx_hal_iwdg.c ****   assert_param(IS_IWDG_PRESCALER(hiwdg->Init.Prescaler));
 168:./Drivers/STM32F1xx_HAL_Driver/Src/stm32f1xx_hal_iwdg.c ****   assert_param(IS_IWDG_RELOAD(hiwdg->Init.Reload)); 
 169:./Drivers/STM32F1xx_HAL_Driver/Src/stm32f1xx_hal_iwdg.c ****   
 170:./Drivers/STM32F1xx_HAL_Driver/Src/stm32f1xx_hal_iwdg.c ****   /* Check pending flag, if previous update not done, return error */
 171:./Drivers/STM32F1xx_HAL_Driver/Src/stm32f1xx_hal_iwdg.c ****   if((__HAL_IWDG_GET_FLAG(hiwdg, IWDG_FLAG_PVU) != RESET)
 172:./Drivers/STM32F1xx_HAL_Driver/Src/stm32f1xx_hal_iwdg.c ****      &&(__HAL_IWDG_GET_FLAG(hiwdg, IWDG_FLAG_RVU) != RESET))
 173:./Drivers/STM32F1xx_HAL_Driver/Src/stm32f1xx_hal_iwdg.c ****   {
 174:./Drivers/STM32F1xx_HAL_Driver/Src/stm32f1xx_hal_iwdg.c ****     return HAL_ERROR;
 175:./Drivers/STM32F1xx_HAL_Driver/Src/stm32f1xx_hal_iwdg.c ****   }
 176:./Drivers/STM32F1xx_HAL_Driver/Src/stm32f1xx_hal_iwdg.c ****     
 177:./Drivers/STM32F1xx_HAL_Driver/Src/stm32f1xx_hal_iwdg.c ****   if(hiwdg->State == HAL_IWDG_STATE_RESET)
 178:./Drivers/STM32F1xx_HAL_Driver/Src/stm32f1xx_hal_iwdg.c ****   {  
 179:./Drivers/STM32F1xx_HAL_Driver/Src/stm32f1xx_hal_iwdg.c ****     /* Allocate lock resource and initialize it */
 180:./Drivers/STM32F1xx_HAL_Driver/Src/stm32f1xx_hal_iwdg.c ****     hiwdg->Lock = HAL_UNLOCKED;
 181:./Drivers/STM32F1xx_HAL_Driver/Src/stm32f1xx_hal_iwdg.c ****     
 182:./Drivers/STM32F1xx_HAL_Driver/Src/stm32f1xx_hal_iwdg.c ****     /* Init the low level hardware */
 183:./Drivers/STM32F1xx_HAL_Driver/Src/stm32f1xx_hal_iwdg.c ****     HAL_IWDG_MspInit(hiwdg);
 184:./Drivers/STM32F1xx_HAL_Driver/Src/stm32f1xx_hal_iwdg.c ****   }
 185:./Drivers/STM32F1xx_HAL_Driver/Src/stm32f1xx_hal_iwdg.c ****   
 186:./Drivers/STM32F1xx_HAL_Driver/Src/stm32f1xx_hal_iwdg.c ****   /* Change IWDG peripheral state */
 187:./Drivers/STM32F1xx_HAL_Driver/Src/stm32f1xx_hal_iwdg.c ****   hiwdg->State = HAL_IWDG_STATE_BUSY;  
 188:./Drivers/STM32F1xx_HAL_Driver/Src/stm32f1xx_hal_iwdg.c ****   
 189:./Drivers/STM32F1xx_HAL_Driver/Src/stm32f1xx_hal_iwdg.c ****   /* Enable write access to IWDG_PR and IWDG_RLR registers */  
 190:./Drivers/STM32F1xx_HAL_Driver/Src/stm32f1xx_hal_iwdg.c ****   IWDG_ENABLE_WRITE_ACCESS(hiwdg);
 191:./Drivers/STM32F1xx_HAL_Driver/Src/stm32f1xx_hal_iwdg.c ****   
 192:./Drivers/STM32F1xx_HAL_Driver/Src/stm32f1xx_hal_iwdg.c ****   /* Write to IWDG registers the IWDG_Prescaler & IWDG_Reload values to work with */
 193:./Drivers/STM32F1xx_HAL_Driver/Src/stm32f1xx_hal_iwdg.c ****   MODIFY_REG(hiwdg->Instance->PR, IWDG_PR_PR, hiwdg->Init.Prescaler);
 194:./Drivers/STM32F1xx_HAL_Driver/Src/stm32f1xx_hal_iwdg.c ****   MODIFY_REG(hiwdg->Instance->RLR, IWDG_RLR_RL, hiwdg->Init.Reload);
 195:./Drivers/STM32F1xx_HAL_Driver/Src/stm32f1xx_hal_iwdg.c ****  
 196:./Drivers/STM32F1xx_HAL_Driver/Src/stm32f1xx_hal_iwdg.c ****   /* Change IWDG peripheral state */
 197:./Drivers/STM32F1xx_HAL_Driver/Src/stm32f1xx_hal_iwdg.c ****   hiwdg->State = HAL_IWDG_STATE_READY;
 198:./Drivers/STM32F1xx_HAL_Driver/Src/stm32f1xx_hal_iwdg.c ****   
 199:./Drivers/STM32F1xx_HAL_Driver/Src/stm32f1xx_hal_iwdg.c ****   /* Return function status */
 200:./Drivers/STM32F1xx_HAL_Driver/Src/stm32f1xx_hal_iwdg.c ****   return HAL_OK;
 201:./Drivers/STM32F1xx_HAL_Driver/Src/stm32f1xx_hal_iwdg.c **** }
 202:./Drivers/STM32F1xx_HAL_Driver/Src/stm32f1xx_hal_iwdg.c **** 
 203:./Drivers/STM32F1xx_HAL_Driver/Src/stm32f1xx_hal_iwdg.c **** /**
 204:./Drivers/STM32F1xx_HAL_Driver/Src/stm32f1xx_hal_iwdg.c ****   * @brief  Initializes the IWDG MSP.
ARM GAS  /tmp/ccH8hZ7j.s 			page 5


 205:./Drivers/STM32F1xx_HAL_Driver/Src/stm32f1xx_hal_iwdg.c ****   * @param  hiwdg: pointer to a IWDG_HandleTypeDef structure that contains
 206:./Drivers/STM32F1xx_HAL_Driver/Src/stm32f1xx_hal_iwdg.c ****   *                the configuration information for the specified IWDG module.
 207:./Drivers/STM32F1xx_HAL_Driver/Src/stm32f1xx_hal_iwdg.c ****   * @retval None
 208:./Drivers/STM32F1xx_HAL_Driver/Src/stm32f1xx_hal_iwdg.c ****   */
 209:./Drivers/STM32F1xx_HAL_Driver/Src/stm32f1xx_hal_iwdg.c **** __weak void HAL_IWDG_MspInit(IWDG_HandleTypeDef *hiwdg)
 210:./Drivers/STM32F1xx_HAL_Driver/Src/stm32f1xx_hal_iwdg.c **** {
  26              		.loc 1 210 0
  27              		.cfi_startproc
  28              		@ args = 0, pretend = 0, frame = 0
  29              		@ frame_needed = 0, uses_anonymous_args = 0
  30              		@ link register save eliminated.
  31              	.LVL0:
 211:./Drivers/STM32F1xx_HAL_Driver/Src/stm32f1xx_hal_iwdg.c ****   /* Prevent unused argument(s) compilation warning */
 212:./Drivers/STM32F1xx_HAL_Driver/Src/stm32f1xx_hal_iwdg.c ****   UNUSED(hiwdg);
 213:./Drivers/STM32F1xx_HAL_Driver/Src/stm32f1xx_hal_iwdg.c ****   /* NOTE : This function Should not be modified, when the callback is needed,
 214:./Drivers/STM32F1xx_HAL_Driver/Src/stm32f1xx_hal_iwdg.c ****             the HAL_IWDG_MspInit could be implemented in the user file
 215:./Drivers/STM32F1xx_HAL_Driver/Src/stm32f1xx_hal_iwdg.c ****    */
 216:./Drivers/STM32F1xx_HAL_Driver/Src/stm32f1xx_hal_iwdg.c **** }
  32              		.loc 1 216 0
  33 0000 7047     		bx	lr
  34              		.cfi_endproc
  35              	.LFE67:
  37              		.section	.text.HAL_IWDG_Init,"ax",%progbits
  38              		.align	1
  39              		.global	HAL_IWDG_Init
  40              		.syntax unified
  41              		.thumb
  42              		.thumb_func
  43              		.fpu softvfp
  45              	HAL_IWDG_Init:
  46              	.LFB66:
 158:./Drivers/STM32F1xx_HAL_Driver/Src/stm32f1xx_hal_iwdg.c ****   /* Check the IWDG handle allocation */
  47              		.loc 1 158 0
  48              		.cfi_startproc
  49              		@ args = 0, pretend = 0, frame = 0
  50              		@ frame_needed = 0, uses_anonymous_args = 0
  51              	.LVL1:
 160:./Drivers/STM32F1xx_HAL_Driver/Src/stm32f1xx_hal_iwdg.c ****   {
  52              		.loc 1 160 0
  53 0000 58B3     		cbz	r0, .L6
 158:./Drivers/STM32F1xx_HAL_Driver/Src/stm32f1xx_hal_iwdg.c ****   /* Check the IWDG handle allocation */
  54              		.loc 1 158 0
  55 0002 10B5     		push	{r4, lr}
  56              	.LCFI0:
  57              		.cfi_def_cfa_offset 8
  58              		.cfi_offset 4, -8
  59              		.cfi_offset 14, -4
  60 0004 0446     		mov	r4, r0
 171:./Drivers/STM32F1xx_HAL_Driver/Src/stm32f1xx_hal_iwdg.c ****      &&(__HAL_IWDG_GET_FLAG(hiwdg, IWDG_FLAG_RVU) != RESET))
  61              		.loc 1 171 0
  62 0006 0368     		ldr	r3, [r0]
  63 0008 DA68     		ldr	r2, [r3, #12]
  64 000a 12F0010F 		tst	r2, #1
  65 000e 03D0     		beq	.L4
 172:./Drivers/STM32F1xx_HAL_Driver/Src/stm32f1xx_hal_iwdg.c ****   {
  66              		.loc 1 172 0
  67 0010 DB68     		ldr	r3, [r3, #12]
ARM GAS  /tmp/ccH8hZ7j.s 			page 6


  68 0012 13F0020F 		tst	r3, #2
  69 0016 22D1     		bne	.L7
  70              	.L4:
 177:./Drivers/STM32F1xx_HAL_Driver/Src/stm32f1xx_hal_iwdg.c ****   {  
  71              		.loc 1 177 0
  72 0018 637B     		ldrb	r3, [r4, #13]	@ zero_extendqisi2
  73 001a CBB1     		cbz	r3, .L12
  74              	.LVL2:
  75              	.L5:
 187:./Drivers/STM32F1xx_HAL_Driver/Src/stm32f1xx_hal_iwdg.c ****   
  76              		.loc 1 187 0
  77 001c 0223     		movs	r3, #2
  78 001e 6373     		strb	r3, [r4, #13]
 190:./Drivers/STM32F1xx_HAL_Driver/Src/stm32f1xx_hal_iwdg.c ****   
  79              		.loc 1 190 0
  80 0020 2368     		ldr	r3, [r4]
  81 0022 45F25552 		movw	r2, #21845
  82 0026 1A60     		str	r2, [r3]
 193:./Drivers/STM32F1xx_HAL_Driver/Src/stm32f1xx_hal_iwdg.c ****   MODIFY_REG(hiwdg->Instance->RLR, IWDG_RLR_RL, hiwdg->Init.Reload);
  83              		.loc 1 193 0
  84 0028 2268     		ldr	r2, [r4]
  85 002a 5368     		ldr	r3, [r2, #4]
  86 002c 23F00703 		bic	r3, r3, #7
  87 0030 6168     		ldr	r1, [r4, #4]
  88 0032 0B43     		orrs	r3, r3, r1
  89 0034 5360     		str	r3, [r2, #4]
 194:./Drivers/STM32F1xx_HAL_Driver/Src/stm32f1xx_hal_iwdg.c ****  
  90              		.loc 1 194 0
  91 0036 2268     		ldr	r2, [r4]
  92 0038 9368     		ldr	r3, [r2, #8]
  93 003a 23F47F63 		bic	r3, r3, #4080
  94 003e 23F00F03 		bic	r3, r3, #15
  95 0042 A168     		ldr	r1, [r4, #8]
  96 0044 0B43     		orrs	r3, r3, r1
  97 0046 9360     		str	r3, [r2, #8]
 197:./Drivers/STM32F1xx_HAL_Driver/Src/stm32f1xx_hal_iwdg.c ****   
  98              		.loc 1 197 0
  99 0048 0123     		movs	r3, #1
 100 004a 6373     		strb	r3, [r4, #13]
 200:./Drivers/STM32F1xx_HAL_Driver/Src/stm32f1xx_hal_iwdg.c **** }
 101              		.loc 1 200 0
 102 004c 0020     		movs	r0, #0
 103              	.L3:
 201:./Drivers/STM32F1xx_HAL_Driver/Src/stm32f1xx_hal_iwdg.c **** 
 104              		.loc 1 201 0
 105 004e 10BD     		pop	{r4, pc}
 106              	.LVL3:
 107              	.L12:
 180:./Drivers/STM32F1xx_HAL_Driver/Src/stm32f1xx_hal_iwdg.c ****     
 108              		.loc 1 180 0
 109 0050 2373     		strb	r3, [r4, #12]
 183:./Drivers/STM32F1xx_HAL_Driver/Src/stm32f1xx_hal_iwdg.c ****   }
 110              		.loc 1 183 0
 111 0052 2046     		mov	r0, r4
 112              	.LVL4:
 113 0054 FFF7FEFF 		bl	HAL_IWDG_MspInit
 114              	.LVL5:
ARM GAS  /tmp/ccH8hZ7j.s 			page 7


 115 0058 E0E7     		b	.L5
 116              	.LVL6:
 117              	.L6:
 118              	.LCFI1:
 119              		.cfi_def_cfa_offset 0
 120              		.cfi_restore 4
 121              		.cfi_restore 14
 162:./Drivers/STM32F1xx_HAL_Driver/Src/stm32f1xx_hal_iwdg.c ****   }
 122              		.loc 1 162 0
 123 005a 0120     		movs	r0, #1
 124              	.LVL7:
 201:./Drivers/STM32F1xx_HAL_Driver/Src/stm32f1xx_hal_iwdg.c **** 
 125              		.loc 1 201 0
 126 005c 7047     		bx	lr
 127              	.LVL8:
 128              	.L7:
 129              	.LCFI2:
 130              		.cfi_def_cfa_offset 8
 131              		.cfi_offset 4, -8
 132              		.cfi_offset 14, -4
 174:./Drivers/STM32F1xx_HAL_Driver/Src/stm32f1xx_hal_iwdg.c ****   }
 133              		.loc 1 174 0
 134 005e 0120     		movs	r0, #1
 135              	.LVL9:
 136 0060 F5E7     		b	.L3
 137              		.cfi_endproc
 138              	.LFE66:
 140              		.section	.text.HAL_IWDG_Start,"ax",%progbits
 141              		.align	1
 142              		.global	HAL_IWDG_Start
 143              		.syntax unified
 144              		.thumb
 145              		.thumb_func
 146              		.fpu softvfp
 148              	HAL_IWDG_Start:
 149              	.LFB68:
 217:./Drivers/STM32F1xx_HAL_Driver/Src/stm32f1xx_hal_iwdg.c **** 
 218:./Drivers/STM32F1xx_HAL_Driver/Src/stm32f1xx_hal_iwdg.c **** /**
 219:./Drivers/STM32F1xx_HAL_Driver/Src/stm32f1xx_hal_iwdg.c ****   * @}
 220:./Drivers/STM32F1xx_HAL_Driver/Src/stm32f1xx_hal_iwdg.c ****   */
 221:./Drivers/STM32F1xx_HAL_Driver/Src/stm32f1xx_hal_iwdg.c **** 
 222:./Drivers/STM32F1xx_HAL_Driver/Src/stm32f1xx_hal_iwdg.c **** /** @defgroup IWDG_Exported_Functions_Group2 IO operation functions  
 223:./Drivers/STM32F1xx_HAL_Driver/Src/stm32f1xx_hal_iwdg.c ****  *  @brief   IO operation functions  
 224:./Drivers/STM32F1xx_HAL_Driver/Src/stm32f1xx_hal_iwdg.c ****  *
 225:./Drivers/STM32F1xx_HAL_Driver/Src/stm32f1xx_hal_iwdg.c **** @verbatim   
 226:./Drivers/STM32F1xx_HAL_Driver/Src/stm32f1xx_hal_iwdg.c ****  ===============================================================================
 227:./Drivers/STM32F1xx_HAL_Driver/Src/stm32f1xx_hal_iwdg.c ****                       ##### IO operation functions #####
 228:./Drivers/STM32F1xx_HAL_Driver/Src/stm32f1xx_hal_iwdg.c ****  ===============================================================================  
 229:./Drivers/STM32F1xx_HAL_Driver/Src/stm32f1xx_hal_iwdg.c ****     [..]  This section provides functions allowing to:
 230:./Drivers/STM32F1xx_HAL_Driver/Src/stm32f1xx_hal_iwdg.c ****       (+) Start the IWDG.
 231:./Drivers/STM32F1xx_HAL_Driver/Src/stm32f1xx_hal_iwdg.c ****       (+) Refresh the IWDG.
 232:./Drivers/STM32F1xx_HAL_Driver/Src/stm32f1xx_hal_iwdg.c **** 
 233:./Drivers/STM32F1xx_HAL_Driver/Src/stm32f1xx_hal_iwdg.c **** @endverbatim
 234:./Drivers/STM32F1xx_HAL_Driver/Src/stm32f1xx_hal_iwdg.c ****   * @{
 235:./Drivers/STM32F1xx_HAL_Driver/Src/stm32f1xx_hal_iwdg.c ****   */
 236:./Drivers/STM32F1xx_HAL_Driver/Src/stm32f1xx_hal_iwdg.c **** 
 237:./Drivers/STM32F1xx_HAL_Driver/Src/stm32f1xx_hal_iwdg.c **** /**
ARM GAS  /tmp/ccH8hZ7j.s 			page 8


 238:./Drivers/STM32F1xx_HAL_Driver/Src/stm32f1xx_hal_iwdg.c ****   * @brief  Starts the IWDG.
 239:./Drivers/STM32F1xx_HAL_Driver/Src/stm32f1xx_hal_iwdg.c ****   * @param  hiwdg: pointer to a IWDG_HandleTypeDef structure that contains
 240:./Drivers/STM32F1xx_HAL_Driver/Src/stm32f1xx_hal_iwdg.c ****   *                the configuration information for the specified IWDG module.
 241:./Drivers/STM32F1xx_HAL_Driver/Src/stm32f1xx_hal_iwdg.c ****   * @retval HAL status
 242:./Drivers/STM32F1xx_HAL_Driver/Src/stm32f1xx_hal_iwdg.c ****   */
 243:./Drivers/STM32F1xx_HAL_Driver/Src/stm32f1xx_hal_iwdg.c **** HAL_StatusTypeDef HAL_IWDG_Start(IWDG_HandleTypeDef *hiwdg)
 244:./Drivers/STM32F1xx_HAL_Driver/Src/stm32f1xx_hal_iwdg.c **** {
 150              		.loc 1 244 0
 151              		.cfi_startproc
 152              		@ args = 0, pretend = 0, frame = 0
 153              		@ frame_needed = 0, uses_anonymous_args = 0
 154              		@ link register save eliminated.
 155              	.LVL10:
 245:./Drivers/STM32F1xx_HAL_Driver/Src/stm32f1xx_hal_iwdg.c ****   /* Process Locked */
 246:./Drivers/STM32F1xx_HAL_Driver/Src/stm32f1xx_hal_iwdg.c ****   __HAL_LOCK(hiwdg); 
 156              		.loc 1 246 0
 157 0000 037B     		ldrb	r3, [r0, #12]	@ zero_extendqisi2
 158 0002 012B     		cmp	r3, #1
 159 0004 0FD0     		beq	.L15
 247:./Drivers/STM32F1xx_HAL_Driver/Src/stm32f1xx_hal_iwdg.c ****   
 248:./Drivers/STM32F1xx_HAL_Driver/Src/stm32f1xx_hal_iwdg.c ****     /* Change IWDG peripheral state */  
 249:./Drivers/STM32F1xx_HAL_Driver/Src/stm32f1xx_hal_iwdg.c ****   hiwdg->State = HAL_IWDG_STATE_BUSY;
 160              		.loc 1 249 0 discriminator 2
 161 0006 0223     		movs	r3, #2
 162 0008 4373     		strb	r3, [r0, #13]
 250:./Drivers/STM32F1xx_HAL_Driver/Src/stm32f1xx_hal_iwdg.c **** 
 251:./Drivers/STM32F1xx_HAL_Driver/Src/stm32f1xx_hal_iwdg.c ****   /* Start the IWDG peripheral */
 252:./Drivers/STM32F1xx_HAL_Driver/Src/stm32f1xx_hal_iwdg.c ****   __HAL_IWDG_START(hiwdg);
 163              		.loc 1 252 0 discriminator 2
 164 000a 0368     		ldr	r3, [r0]
 165 000c 4CF6CC42 		movw	r2, #52428
 166 0010 1A60     		str	r2, [r3]
 253:./Drivers/STM32F1xx_HAL_Driver/Src/stm32f1xx_hal_iwdg.c ****   
 254:./Drivers/STM32F1xx_HAL_Driver/Src/stm32f1xx_hal_iwdg.c ****     /* Reload IWDG counter with value defined in the RLR register */
 255:./Drivers/STM32F1xx_HAL_Driver/Src/stm32f1xx_hal_iwdg.c ****   __HAL_IWDG_RELOAD_COUNTER(hiwdg);
 167              		.loc 1 255 0 discriminator 2
 168 0012 0368     		ldr	r3, [r0]
 169 0014 4AF6AA22 		movw	r2, #43690
 170 0018 1A60     		str	r2, [r3]
 256:./Drivers/STM32F1xx_HAL_Driver/Src/stm32f1xx_hal_iwdg.c ****   
 257:./Drivers/STM32F1xx_HAL_Driver/Src/stm32f1xx_hal_iwdg.c ****   /* Change IWDG peripheral state */    
 258:./Drivers/STM32F1xx_HAL_Driver/Src/stm32f1xx_hal_iwdg.c ****   hiwdg->State = HAL_IWDG_STATE_READY; 
 171              		.loc 1 258 0 discriminator 2
 172 001a 0123     		movs	r3, #1
 173 001c 4373     		strb	r3, [r0, #13]
 259:./Drivers/STM32F1xx_HAL_Driver/Src/stm32f1xx_hal_iwdg.c ****   
 260:./Drivers/STM32F1xx_HAL_Driver/Src/stm32f1xx_hal_iwdg.c ****   /* Process Unlocked */
 261:./Drivers/STM32F1xx_HAL_Driver/Src/stm32f1xx_hal_iwdg.c ****   __HAL_UNLOCK(hiwdg);
 174              		.loc 1 261 0 discriminator 2
 175 001e 0023     		movs	r3, #0
 176 0020 0373     		strb	r3, [r0, #12]
 262:./Drivers/STM32F1xx_HAL_Driver/Src/stm32f1xx_hal_iwdg.c ****   
 263:./Drivers/STM32F1xx_HAL_Driver/Src/stm32f1xx_hal_iwdg.c ****   /* Return function status */
 264:./Drivers/STM32F1xx_HAL_Driver/Src/stm32f1xx_hal_iwdg.c ****   return HAL_OK;
 177              		.loc 1 264 0 discriminator 2
 178 0022 1846     		mov	r0, r3
 179              	.LVL11:
ARM GAS  /tmp/ccH8hZ7j.s 			page 9


 180 0024 7047     		bx	lr
 181              	.LVL12:
 182              	.L15:
 246:./Drivers/STM32F1xx_HAL_Driver/Src/stm32f1xx_hal_iwdg.c ****   
 183              		.loc 1 246 0
 184 0026 0220     		movs	r0, #2
 185              	.LVL13:
 265:./Drivers/STM32F1xx_HAL_Driver/Src/stm32f1xx_hal_iwdg.c **** }
 186              		.loc 1 265 0
 187 0028 7047     		bx	lr
 188              		.cfi_endproc
 189              	.LFE68:
 191              		.section	.text.HAL_IWDG_Refresh,"ax",%progbits
 192              		.align	1
 193              		.global	HAL_IWDG_Refresh
 194              		.syntax unified
 195              		.thumb
 196              		.thumb_func
 197              		.fpu softvfp
 199              	HAL_IWDG_Refresh:
 200              	.LFB69:
 266:./Drivers/STM32F1xx_HAL_Driver/Src/stm32f1xx_hal_iwdg.c **** 
 267:./Drivers/STM32F1xx_HAL_Driver/Src/stm32f1xx_hal_iwdg.c **** /**
 268:./Drivers/STM32F1xx_HAL_Driver/Src/stm32f1xx_hal_iwdg.c ****   * @brief  Refreshes the IWDG.
 269:./Drivers/STM32F1xx_HAL_Driver/Src/stm32f1xx_hal_iwdg.c ****   * @param  hiwdg: pointer to a IWDG_HandleTypeDef structure that contains
 270:./Drivers/STM32F1xx_HAL_Driver/Src/stm32f1xx_hal_iwdg.c ****   *                the configuration information for the specified IWDG module.
 271:./Drivers/STM32F1xx_HAL_Driver/Src/stm32f1xx_hal_iwdg.c ****   * @retval HAL status
 272:./Drivers/STM32F1xx_HAL_Driver/Src/stm32f1xx_hal_iwdg.c ****   */
 273:./Drivers/STM32F1xx_HAL_Driver/Src/stm32f1xx_hal_iwdg.c **** HAL_StatusTypeDef HAL_IWDG_Refresh(IWDG_HandleTypeDef *hiwdg)
 274:./Drivers/STM32F1xx_HAL_Driver/Src/stm32f1xx_hal_iwdg.c **** {
 201              		.loc 1 274 0
 202              		.cfi_startproc
 203              		@ args = 0, pretend = 0, frame = 0
 204              		@ frame_needed = 0, uses_anonymous_args = 0
 205              	.LVL14:
 206 0000 38B5     		push	{r3, r4, r5, lr}
 207              	.LCFI3:
 208              		.cfi_def_cfa_offset 16
 209              		.cfi_offset 3, -16
 210              		.cfi_offset 4, -12
 211              		.cfi_offset 5, -8
 212              		.cfi_offset 14, -4
 213              	.LVL15:
 275:./Drivers/STM32F1xx_HAL_Driver/Src/stm32f1xx_hal_iwdg.c ****   uint32_t tickstart = 0;
 276:./Drivers/STM32F1xx_HAL_Driver/Src/stm32f1xx_hal_iwdg.c **** 
 277:./Drivers/STM32F1xx_HAL_Driver/Src/stm32f1xx_hal_iwdg.c ****   /* Process Locked */
 278:./Drivers/STM32F1xx_HAL_Driver/Src/stm32f1xx_hal_iwdg.c ****   __HAL_LOCK(hiwdg);
 214              		.loc 1 278 0
 215 0002 037B     		ldrb	r3, [r0, #12]	@ zero_extendqisi2
 216 0004 012B     		cmp	r3, #1
 217 0006 1FD0     		beq	.L20
 218 0008 0446     		mov	r4, r0
 219              		.loc 1 278 0 is_stmt 0 discriminator 2
 220 000a 0123     		movs	r3, #1
 221 000c 0373     		strb	r3, [r0, #12]
 279:./Drivers/STM32F1xx_HAL_Driver/Src/stm32f1xx_hal_iwdg.c **** 
 280:./Drivers/STM32F1xx_HAL_Driver/Src/stm32f1xx_hal_iwdg.c ****     /* Change IWDG peripheral state */
ARM GAS  /tmp/ccH8hZ7j.s 			page 10


 281:./Drivers/STM32F1xx_HAL_Driver/Src/stm32f1xx_hal_iwdg.c ****   hiwdg->State = HAL_IWDG_STATE_BUSY;
 222              		.loc 1 281 0 is_stmt 1 discriminator 2
 223 000e 0223     		movs	r3, #2
 224 0010 4373     		strb	r3, [r0, #13]
 282:./Drivers/STM32F1xx_HAL_Driver/Src/stm32f1xx_hal_iwdg.c **** 
 283:./Drivers/STM32F1xx_HAL_Driver/Src/stm32f1xx_hal_iwdg.c ****   tickstart = HAL_GetTick();
 225              		.loc 1 283 0 discriminator 2
 226 0012 FFF7FEFF 		bl	HAL_GetTick
 227              	.LVL16:
 228 0016 0546     		mov	r5, r0
 229              	.LVL17:
 230              	.L18:
 284:./Drivers/STM32F1xx_HAL_Driver/Src/stm32f1xx_hal_iwdg.c **** 
 285:./Drivers/STM32F1xx_HAL_Driver/Src/stm32f1xx_hal_iwdg.c ****   /* Wait until RVU flag is RESET */
 286:./Drivers/STM32F1xx_HAL_Driver/Src/stm32f1xx_hal_iwdg.c ****   while(__HAL_IWDG_GET_FLAG(hiwdg, IWDG_FLAG_RVU) != RESET)
 231              		.loc 1 286 0
 232 0018 2368     		ldr	r3, [r4]
 233 001a DA68     		ldr	r2, [r3, #12]
 234 001c 12F0020F 		tst	r2, #2
 235 0020 0AD0     		beq	.L22
 287:./Drivers/STM32F1xx_HAL_Driver/Src/stm32f1xx_hal_iwdg.c ****   {
 288:./Drivers/STM32F1xx_HAL_Driver/Src/stm32f1xx_hal_iwdg.c ****     if((HAL_GetTick() - tickstart ) > IWDG_DEFAULT_TIMEOUT)
 236              		.loc 1 288 0
 237 0022 FFF7FEFF 		bl	HAL_GetTick
 238              	.LVL18:
 239 0026 401B     		subs	r0, r0, r5
 240 0028 B0F57A7F 		cmp	r0, #1000
 241 002c F4D9     		bls	.L18
 289:./Drivers/STM32F1xx_HAL_Driver/Src/stm32f1xx_hal_iwdg.c ****     {
 290:./Drivers/STM32F1xx_HAL_Driver/Src/stm32f1xx_hal_iwdg.c ****       /* Set IWDG state */
 291:./Drivers/STM32F1xx_HAL_Driver/Src/stm32f1xx_hal_iwdg.c ****       hiwdg->State = HAL_IWDG_STATE_TIMEOUT;
 242              		.loc 1 291 0
 243 002e 0320     		movs	r0, #3
 244 0030 6073     		strb	r0, [r4, #13]
 292:./Drivers/STM32F1xx_HAL_Driver/Src/stm32f1xx_hal_iwdg.c **** 
 293:./Drivers/STM32F1xx_HAL_Driver/Src/stm32f1xx_hal_iwdg.c ****        /* Process unlocked */
 294:./Drivers/STM32F1xx_HAL_Driver/Src/stm32f1xx_hal_iwdg.c ****       __HAL_UNLOCK(hiwdg);
 245              		.loc 1 294 0
 246 0032 0023     		movs	r3, #0
 247 0034 2373     		strb	r3, [r4, #12]
 295:./Drivers/STM32F1xx_HAL_Driver/Src/stm32f1xx_hal_iwdg.c **** 
 296:./Drivers/STM32F1xx_HAL_Driver/Src/stm32f1xx_hal_iwdg.c ****       return HAL_TIMEOUT;
 248              		.loc 1 296 0
 249 0036 06E0     		b	.L17
 250              	.L22:
 297:./Drivers/STM32F1xx_HAL_Driver/Src/stm32f1xx_hal_iwdg.c ****     }
 298:./Drivers/STM32F1xx_HAL_Driver/Src/stm32f1xx_hal_iwdg.c ****   }
 299:./Drivers/STM32F1xx_HAL_Driver/Src/stm32f1xx_hal_iwdg.c ****   
 300:./Drivers/STM32F1xx_HAL_Driver/Src/stm32f1xx_hal_iwdg.c ****   /* Reload IWDG counter with value defined in the reload register */
 301:./Drivers/STM32F1xx_HAL_Driver/Src/stm32f1xx_hal_iwdg.c ****   __HAL_IWDG_RELOAD_COUNTER(hiwdg);
 251              		.loc 1 301 0
 252 0038 4AF6AA22 		movw	r2, #43690
 253 003c 1A60     		str	r2, [r3]
 302:./Drivers/STM32F1xx_HAL_Driver/Src/stm32f1xx_hal_iwdg.c ****     
 303:./Drivers/STM32F1xx_HAL_Driver/Src/stm32f1xx_hal_iwdg.c ****   /* Change IWDG peripheral state */    
 304:./Drivers/STM32F1xx_HAL_Driver/Src/stm32f1xx_hal_iwdg.c ****   hiwdg->State = HAL_IWDG_STATE_READY; 
 254              		.loc 1 304 0
ARM GAS  /tmp/ccH8hZ7j.s 			page 11


 255 003e 0123     		movs	r3, #1
 256 0040 6373     		strb	r3, [r4, #13]
 305:./Drivers/STM32F1xx_HAL_Driver/Src/stm32f1xx_hal_iwdg.c ****   
 306:./Drivers/STM32F1xx_HAL_Driver/Src/stm32f1xx_hal_iwdg.c ****   /* Process Unlocked */
 307:./Drivers/STM32F1xx_HAL_Driver/Src/stm32f1xx_hal_iwdg.c ****   __HAL_UNLOCK(hiwdg);
 257              		.loc 1 307 0
 258 0042 0020     		movs	r0, #0
 259 0044 2073     		strb	r0, [r4, #12]
 260              	.LVL19:
 261              	.L17:
 308:./Drivers/STM32F1xx_HAL_Driver/Src/stm32f1xx_hal_iwdg.c ****   
 309:./Drivers/STM32F1xx_HAL_Driver/Src/stm32f1xx_hal_iwdg.c ****   /* Return function status */
 310:./Drivers/STM32F1xx_HAL_Driver/Src/stm32f1xx_hal_iwdg.c ****   return HAL_OK;
 311:./Drivers/STM32F1xx_HAL_Driver/Src/stm32f1xx_hal_iwdg.c **** }
 262              		.loc 1 311 0
 263 0046 38BD     		pop	{r3, r4, r5, pc}
 264              	.LVL20:
 265              	.L20:
 278:./Drivers/STM32F1xx_HAL_Driver/Src/stm32f1xx_hal_iwdg.c **** 
 266              		.loc 1 278 0
 267 0048 0220     		movs	r0, #2
 268              	.LVL21:
 269 004a FCE7     		b	.L17
 270              		.cfi_endproc
 271              	.LFE69:
 273              		.section	.text.HAL_IWDG_GetState,"ax",%progbits
 274              		.align	1
 275              		.global	HAL_IWDG_GetState
 276              		.syntax unified
 277              		.thumb
 278              		.thumb_func
 279              		.fpu softvfp
 281              	HAL_IWDG_GetState:
 282              	.LFB70:
 312:./Drivers/STM32F1xx_HAL_Driver/Src/stm32f1xx_hal_iwdg.c **** 
 313:./Drivers/STM32F1xx_HAL_Driver/Src/stm32f1xx_hal_iwdg.c **** /**
 314:./Drivers/STM32F1xx_HAL_Driver/Src/stm32f1xx_hal_iwdg.c ****   * @}
 315:./Drivers/STM32F1xx_HAL_Driver/Src/stm32f1xx_hal_iwdg.c ****   */
 316:./Drivers/STM32F1xx_HAL_Driver/Src/stm32f1xx_hal_iwdg.c **** 
 317:./Drivers/STM32F1xx_HAL_Driver/Src/stm32f1xx_hal_iwdg.c **** /** @defgroup IWDG_Exported_Functions_Group3 Peripheral State functions 
 318:./Drivers/STM32F1xx_HAL_Driver/Src/stm32f1xx_hal_iwdg.c ****  *  @brief    Peripheral State functions. 
 319:./Drivers/STM32F1xx_HAL_Driver/Src/stm32f1xx_hal_iwdg.c ****  *
 320:./Drivers/STM32F1xx_HAL_Driver/Src/stm32f1xx_hal_iwdg.c **** @verbatim   
 321:./Drivers/STM32F1xx_HAL_Driver/Src/stm32f1xx_hal_iwdg.c ****  ===============================================================================
 322:./Drivers/STM32F1xx_HAL_Driver/Src/stm32f1xx_hal_iwdg.c ****                       ##### Peripheral State functions #####
 323:./Drivers/STM32F1xx_HAL_Driver/Src/stm32f1xx_hal_iwdg.c ****  ===============================================================================  
 324:./Drivers/STM32F1xx_HAL_Driver/Src/stm32f1xx_hal_iwdg.c ****     [..]
 325:./Drivers/STM32F1xx_HAL_Driver/Src/stm32f1xx_hal_iwdg.c ****     This subsection permits to get in run-time the status of the peripheral 
 326:./Drivers/STM32F1xx_HAL_Driver/Src/stm32f1xx_hal_iwdg.c ****     and the data flow.
 327:./Drivers/STM32F1xx_HAL_Driver/Src/stm32f1xx_hal_iwdg.c **** 
 328:./Drivers/STM32F1xx_HAL_Driver/Src/stm32f1xx_hal_iwdg.c **** @endverbatim
 329:./Drivers/STM32F1xx_HAL_Driver/Src/stm32f1xx_hal_iwdg.c ****   * @{
 330:./Drivers/STM32F1xx_HAL_Driver/Src/stm32f1xx_hal_iwdg.c ****   */
 331:./Drivers/STM32F1xx_HAL_Driver/Src/stm32f1xx_hal_iwdg.c **** 
 332:./Drivers/STM32F1xx_HAL_Driver/Src/stm32f1xx_hal_iwdg.c **** /**
 333:./Drivers/STM32F1xx_HAL_Driver/Src/stm32f1xx_hal_iwdg.c ****   * @brief  Returns the IWDG state.
 334:./Drivers/STM32F1xx_HAL_Driver/Src/stm32f1xx_hal_iwdg.c ****   * @param  hiwdg: pointer to a IWDG_HandleTypeDef structure that contains
ARM GAS  /tmp/ccH8hZ7j.s 			page 12


 335:./Drivers/STM32F1xx_HAL_Driver/Src/stm32f1xx_hal_iwdg.c ****   *                the configuration information for the specified IWDG module.
 336:./Drivers/STM32F1xx_HAL_Driver/Src/stm32f1xx_hal_iwdg.c ****   * @retval HAL state
 337:./Drivers/STM32F1xx_HAL_Driver/Src/stm32f1xx_hal_iwdg.c ****   */
 338:./Drivers/STM32F1xx_HAL_Driver/Src/stm32f1xx_hal_iwdg.c **** HAL_IWDG_StateTypeDef HAL_IWDG_GetState(IWDG_HandleTypeDef *hiwdg)
 339:./Drivers/STM32F1xx_HAL_Driver/Src/stm32f1xx_hal_iwdg.c **** {
 283              		.loc 1 339 0
 284              		.cfi_startproc
 285              		@ args = 0, pretend = 0, frame = 0
 286              		@ frame_needed = 0, uses_anonymous_args = 0
 287              		@ link register save eliminated.
 288              	.LVL22:
 340:./Drivers/STM32F1xx_HAL_Driver/Src/stm32f1xx_hal_iwdg.c ****   return hiwdg->State;
 289              		.loc 1 340 0
 290 0000 407B     		ldrb	r0, [r0, #13]	@ zero_extendqisi2
 291              	.LVL23:
 341:./Drivers/STM32F1xx_HAL_Driver/Src/stm32f1xx_hal_iwdg.c **** }
 292              		.loc 1 341 0
 293 0002 7047     		bx	lr
 294              		.cfi_endproc
 295              	.LFE70:
 297              		.text
 298              	.Letext0:
 299              		.file 2 "/usr/arm-none-eabi/include/machine/_default_types.h"
 300              		.file 3 "/usr/arm-none-eabi/include/sys/_stdint.h"
 301              		.file 4 "./Drivers/CMSIS/Include/core_cm3.h"
 302              		.file 5 "./Drivers/CMSIS/Device/ST/STM32F1xx/Include/system_stm32f1xx.h"
 303              		.file 6 "./Drivers/CMSIS/Device/ST/STM32F1xx/Include/stm32f103xe.h"
 304              		.file 7 "/usr/arm-none-eabi/include/sys/lock.h"
 305              		.file 8 "/usr/arm-none-eabi/include/sys/_types.h"
 306              		.file 9 "/usr/lib/gcc/arm-none-eabi/7.2.0/include/stddef.h"
 307              		.file 10 "/usr/arm-none-eabi/include/sys/reent.h"
 308              		.file 11 "./Drivers/CMSIS/Device/ST/STM32F1xx/Include/stm32f1xx.h"
 309              		.file 12 "./Drivers/STM32F1xx_HAL_Driver/Inc/stm32f1xx_hal_def.h"
 310              		.file 13 "./Drivers/STM32F1xx_HAL_Driver/Inc/stm32f1xx_hal_iwdg.h"
 311              		.file 14 "./Drivers/STM32F1xx_HAL_Driver/Inc/stm32f1xx_hal.h"
ARM GAS  /tmp/ccH8hZ7j.s 			page 13

