ARM GAS  /tmp/ccuaPN67.s 			page 1


   1              		.cpu cortex-m3
   2              		.eabi_attribute 20, 1
   3              		.eabi_attribute 21, 1
   4              		.eabi_attribute 23, 3
   5              		.eabi_attribute 24, 1
   6              		.eabi_attribute 25, 1
   7              		.eabi_attribute 26, 1
   8              		.eabi_attribute 30, 1
   9              		.eabi_attribute 34, 1
  10              		.eabi_attribute 18, 4
  11              		.file	"telemetry.c"
  12              		.text
  13              	.Ltext0:
  14              		.cfi_sections	.debug_frame
  15              		.section	.text.Telemetry_init,"ax",%progbits
  16              		.align	1
  17              		.global	Telemetry_init
  18              		.syntax unified
  19              		.thumb
  20              		.thumb_func
  21              		.fpu softvfp
  23              	Telemetry_init:
  24              	.LFB66:
  25              		.file 1 "./Src/telemetry.c"
   1:./Src/telemetry.c **** #include "telemetry.h"
   2:./Src/telemetry.c **** #include "uart.h"
   3:./Src/telemetry.c **** #include "application.h"
   4:./Src/telemetry.c **** #include <stdio.h>
   5:./Src/telemetry.c **** #include <stdlib.h>
   6:./Src/telemetry.c **** #include <string.h>
   7:./Src/telemetry.c **** 
   8:./Src/telemetry.c **** extern UART_HandleTypeDef huart2;
   9:./Src/telemetry.c **** extern DMA_HandleTypeDef hdma_usart2_rx;
  10:./Src/telemetry.c **** extern DMA_HandleTypeDef hdma_usart2_tx;
  11:./Src/telemetry.c **** extern volatile __IO struct UART_dati uartData;
  12:./Src/telemetry.c **** extern volatile __IO struct APPLICATION_dati app;
  13:./Src/telemetry.c **** extern volatile __IO struct BATTERY_dati battery_dati;
  14:./Src/telemetry.c **** volatile __IO struct TELEMETRY_dati telemetry;
  15:./Src/telemetry.c **** volatile COMMAND_data commandsequence;
  16:./Src/telemetry.c **** 
  17:./Src/telemetry.c **** volatile __IO uint32_t leftToTransfer;
  18:./Src/telemetry.c **** 
  19:./Src/telemetry.c **** 
  20:./Src/telemetry.c **** void Telemetry_init(void){
  26              		.loc 1 20 0
  27              		.cfi_startproc
  28              		@ args = 0, pretend = 0, frame = 0
  29              		@ frame_needed = 0, uses_anonymous_args = 0
  30 0000 08B5     		push	{r3, lr}
  31              	.LCFI0:
  32              		.cfi_def_cfa_offset 8
  33              		.cfi_offset 3, -8
  34              		.cfi_offset 14, -4
  21:./Src/telemetry.c ****   MX_USART2_UART_Init();
  35              		.loc 1 21 0
  36 0002 FFF7FEFF 		bl	MX_USART2_UART_Init
  37              	.LVL0:
ARM GAS  /tmp/ccuaPN67.s 			page 2


  22:./Src/telemetry.c ****   HAL_UART_Receive_DMA(&huart2, (uint8_t *)&commandsequence, 8);
  38              		.loc 1 22 0
  39 0006 0822     		movs	r2, #8
  40 0008 0249     		ldr	r1, .L3
  41 000a 0348     		ldr	r0, .L3+4
  42 000c FFF7FEFF 		bl	HAL_UART_Receive_DMA
  43              	.LVL1:
  23:./Src/telemetry.c **** 
  24:./Src/telemetry.c **** }
  44              		.loc 1 24 0
  45 0010 08BD     		pop	{r3, pc}
  46              	.L4:
  47 0012 00BF     		.align	2
  48              	.L3:
  49 0014 00000000 		.word	commandsequence
  50 0018 00000000 		.word	huart2
  51              		.cfi_endproc
  52              	.LFE66:
  54              		.global	__aeabi_fmul
  55              		.global	__aeabi_f2iz
  56              		.section	.text.getMotorL,"ax",%progbits
  57              		.align	1
  58              		.global	getMotorL
  59              		.syntax unified
  60              		.thumb
  61              		.thumb_func
  62              		.fpu softvfp
  64              	getMotorL:
  65              	.LFB67:
  25:./Src/telemetry.c **** 
  26:./Src/telemetry.c **** int16_t getMotorL() {
  66              		.loc 1 26 0
  67              		.cfi_startproc
  68              		@ args = 0, pretend = 0, frame = 0
  69              		@ frame_needed = 0, uses_anonymous_args = 0
  70 0000 08B5     		push	{r3, lr}
  71              	.LCFI1:
  72              		.cfi_def_cfa_offset 8
  73              		.cfi_offset 3, -8
  74              		.cfi_offset 14, -4
  27:./Src/telemetry.c ****   return commandsequence.motorRxL * 1000;
  75              		.loc 1 27 0
  76 0002 044B     		ldr	r3, .L7
  77 0004 5868     		ldr	r0, [r3, #4]	@ float
  78 0006 0449     		ldr	r1, .L7+4
  79 0008 FFF7FEFF 		bl	__aeabi_fmul
  80              	.LVL2:
  81 000c FFF7FEFF 		bl	__aeabi_f2iz
  82              	.LVL3:
  28:./Src/telemetry.c **** }
  83              		.loc 1 28 0
  84 0010 00B2     		sxth	r0, r0
  85 0012 08BD     		pop	{r3, pc}
  86              	.L8:
  87              		.align	2
  88              	.L7:
  89 0014 00000000 		.word	commandsequence
ARM GAS  /tmp/ccuaPN67.s 			page 3


  90 0018 00007A44 		.word	1148846080
  91              		.cfi_endproc
  92              	.LFE67:
  94              		.section	.text.getMotorR,"ax",%progbits
  95              		.align	1
  96              		.global	getMotorR
  97              		.syntax unified
  98              		.thumb
  99              		.thumb_func
 100              		.fpu softvfp
 102              	getMotorR:
 103              	.LFB68:
  29:./Src/telemetry.c **** 
  30:./Src/telemetry.c **** int16_t getMotorR() {
 104              		.loc 1 30 0
 105              		.cfi_startproc
 106              		@ args = 0, pretend = 0, frame = 0
 107              		@ frame_needed = 0, uses_anonymous_args = 0
 108 0000 08B5     		push	{r3, lr}
 109              	.LCFI2:
 110              		.cfi_def_cfa_offset 8
 111              		.cfi_offset 3, -8
 112              		.cfi_offset 14, -4
  31:./Src/telemetry.c ****   return commandsequence.motorRxR * 1000;
 113              		.loc 1 31 0
 114 0002 044B     		ldr	r3, .L11
 115 0004 1868     		ldr	r0, [r3]	@ float
 116 0006 0449     		ldr	r1, .L11+4
 117 0008 FFF7FEFF 		bl	__aeabi_fmul
 118              	.LVL4:
 119 000c FFF7FEFF 		bl	__aeabi_f2iz
 120              	.LVL5:
  32:./Src/telemetry.c **** }
 121              		.loc 1 32 0
 122 0010 00B2     		sxth	r0, r0
 123 0012 08BD     		pop	{r3, pc}
 124              	.L12:
 125              		.align	2
 126              	.L11:
 127 0014 00000000 		.word	commandsequence
 128 0018 00007A44 		.word	1148846080
 129              		.cfi_endproc
 130              	.LFE68:
 132              		.comm	leftToTransfer,4,4
 133              		.comm	commandsequence,8,4
 134              		.comm	telemetry,28,4
 135              		.text
 136              	.Letext0:
 137              		.file 2 "/usr/arm-none-eabi/include/machine/_default_types.h"
 138              		.file 3 "/usr/arm-none-eabi/include/sys/_stdint.h"
 139              		.file 4 "./Drivers/CMSIS/Include/core_cm3.h"
 140              		.file 5 "./Drivers/CMSIS/Device/ST/STM32F1xx/Include/system_stm32f1xx.h"
 141              		.file 6 "./Drivers/CMSIS/Device/ST/STM32F1xx/Include/stm32f103xe.h"
 142              		.file 7 "/usr/arm-none-eabi/include/sys/lock.h"
 143              		.file 8 "/usr/arm-none-eabi/include/sys/_types.h"
 144              		.file 9 "/usr/lib/gcc/arm-none-eabi/7.2.0/include/stddef.h"
 145              		.file 10 "/usr/arm-none-eabi/include/sys/reent.h"
ARM GAS  /tmp/ccuaPN67.s 			page 4


 146              		.file 11 "./Drivers/STM32F1xx_HAL_Driver/Inc/stm32f1xx_hal_def.h"
 147              		.file 12 "./Drivers/STM32F1xx_HAL_Driver/Inc/stm32f1xx_hal_dma.h"
 148              		.file 13 "./Drivers/STM32F1xx_HAL_Driver/Inc/stm32f1xx_hal_uart.h"
 149              		.file 14 "./Inc/telemetry.h"
 150              		.file 15 "./Inc/uart.h"
 151              		.file 16 "./Inc/application.h"
 152              		.file 17 "/usr/arm-none-eabi/include/stdlib.h"
ARM GAS  /tmp/ccuaPN67.s 			page 5

