ARM GAS  /tmp/cc25RRzS.s 			page 1


   1              		.cpu cortex-m3
   2              		.eabi_attribute 20, 1
   3              		.eabi_attribute 21, 1
   4              		.eabi_attribute 23, 3
   5              		.eabi_attribute 24, 1
   6              		.eabi_attribute 25, 1
   7              		.eabi_attribute 26, 1
   8              		.eabi_attribute 30, 1
   9              		.eabi_attribute 34, 1
  10              		.eabi_attribute 18, 4
  11              		.file	"uart.c"
  12              		.text
  13              	.Ltext0:
  14              		.cfi_sections	.debug_frame
  15              		.section	.text.MX_USART2_UART_Init,"ax",%progbits
  16              		.align	1
  17              		.global	MX_USART2_UART_Init
  18              		.syntax unified
  19              		.thumb
  20              		.thumb_func
  21              		.fpu softvfp
  23              	MX_USART2_UART_Init:
  24              	.LFB66:
  25              		.file 1 "./Src/uart.c"
   1:./Src/uart.c  **** #include "uart.h"
   2:./Src/uart.c  **** #include "stm32f1xx_hal.h"
   3:./Src/uart.c  **** #include "stdio.h"
   4:./Src/uart.c  **** #include "string.h"
   5:./Src/uart.c  **** 
   6:./Src/uart.c  **** 
   7:./Src/uart.c  **** UART_HandleTypeDef huart2;
   8:./Src/uart.c  **** DMA_HandleTypeDef hdma_usart2_rx;
   9:./Src/uart.c  **** DMA_HandleTypeDef hdma_usart2_tx;
  10:./Src/uart.c  **** 
  11:./Src/uart.c  **** volatile __IO struct UART_dati uartDati;
  12:./Src/uart.c  **** 
  13:./Src/uart.c  **** 
  14:./Src/uart.c  **** /* USART2 init function */
  15:./Src/uart.c  **** void MX_USART2_UART_Init(void)
  16:./Src/uart.c  **** {
  26              		.loc 1 16 0
  27              		.cfi_startproc
  28              		@ args = 0, pretend = 0, frame = 8
  29              		@ frame_needed = 0, uses_anonymous_args = 0
  30 0000 00B5     		push	{lr}
  31              	.LCFI0:
  32              		.cfi_def_cfa_offset 4
  33              		.cfi_offset 14, -4
  34 0002 83B0     		sub	sp, sp, #12
  35              	.LCFI1:
  36              		.cfi_def_cfa_offset 16
  37              	.LBB2:
  17:./Src/uart.c  ****   __HAL_RCC_USART2_CLK_ENABLE();
  38              		.loc 1 17 0
  39 0004 1B4B     		ldr	r3, .L5
  40 0006 DA69     		ldr	r2, [r3, #28]
  41 0008 42F40032 		orr	r2, r2, #131072
ARM GAS  /tmp/cc25RRzS.s 			page 2


  42 000c DA61     		str	r2, [r3, #28]
  43 000e DB69     		ldr	r3, [r3, #28]
  44 0010 03F40033 		and	r3, r3, #131072
  45 0014 0193     		str	r3, [sp, #4]
  46 0016 019B     		ldr	r3, [sp, #4]
  47              	.LBE2:
  18:./Src/uart.c  ****   /* DMA1_Channel6_IRQn interrupt configuration */
  19:./Src/uart.c  ****   HAL_NVIC_SetPriority(DMA1_Channel6_IRQn, 5, 6);
  48              		.loc 1 19 0
  49 0018 0622     		movs	r2, #6
  50 001a 0521     		movs	r1, #5
  51 001c 1020     		movs	r0, #16
  52 001e FFF7FEFF 		bl	HAL_NVIC_SetPriority
  53              	.LVL0:
  20:./Src/uart.c  ****   HAL_NVIC_EnableIRQ(DMA1_Channel6_IRQn);
  54              		.loc 1 20 0
  55 0022 1020     		movs	r0, #16
  56 0024 FFF7FEFF 		bl	HAL_NVIC_EnableIRQ
  57              	.LVL1:
  21:./Src/uart.c  ****   /* DMA1_Channel7_IRQn interrupt configuration */
  22:./Src/uart.c  ****   HAL_NVIC_SetPriority(DMA1_Channel7_IRQn, 5, 7);
  58              		.loc 1 22 0
  59 0028 0722     		movs	r2, #7
  60 002a 0521     		movs	r1, #5
  61 002c 1120     		movs	r0, #17
  62 002e FFF7FEFF 		bl	HAL_NVIC_SetPriority
  63              	.LVL2:
  23:./Src/uart.c  ****   HAL_NVIC_EnableIRQ(DMA1_Channel7_IRQn);
  64              		.loc 1 23 0
  65 0032 1120     		movs	r0, #17
  66 0034 FFF7FEFF 		bl	HAL_NVIC_EnableIRQ
  67              	.LVL3:
  24:./Src/uart.c  **** 
  25:./Src/uart.c  ****   huart2.Instance = USART2;
  68              		.loc 1 25 0
  69 0038 0F48     		ldr	r0, .L5+4
  70 003a 104B     		ldr	r3, .L5+8
  71 003c 0360     		str	r3, [r0]
  26:./Src/uart.c  ****   huart2.Init.BaudRate = 115200;
  72              		.loc 1 26 0
  73 003e 4FF4E133 		mov	r3, #115200
  74 0042 4360     		str	r3, [r0, #4]
  27:./Src/uart.c  ****   huart2.Init.WordLength = UART_WORDLENGTH_8B;
  75              		.loc 1 27 0
  76 0044 0023     		movs	r3, #0
  77 0046 8360     		str	r3, [r0, #8]
  28:./Src/uart.c  ****   huart2.Init.StopBits = UART_STOPBITS_1;
  78              		.loc 1 28 0
  79 0048 C360     		str	r3, [r0, #12]
  29:./Src/uart.c  ****   huart2.Init.Parity = UART_PARITY_NONE;
  80              		.loc 1 29 0
  81 004a 0361     		str	r3, [r0, #16]
  30:./Src/uart.c  ****   huart2.Init.Mode = UART_MODE_TX_RX;
  82              		.loc 1 30 0
  83 004c 0C22     		movs	r2, #12
  84 004e 4261     		str	r2, [r0, #20]
  31:./Src/uart.c  ****   huart2.Init.HwFlowCtl = UART_HWCONTROL_NONE;
ARM GAS  /tmp/cc25RRzS.s 			page 3


  85              		.loc 1 31 0
  86 0050 8361     		str	r3, [r0, #24]
  32:./Src/uart.c  ****  // huart2.Init.OverSampling = UART_OVERSAMPLING_16;
  33:./Src/uart.c  ****   if (HAL_UART_Init(&huart2) != HAL_OK)
  87              		.loc 1 33 0
  88 0052 FFF7FEFF 		bl	HAL_UART_Init
  89              	.LVL4:
  90 0056 48B9     		cbnz	r0, .L4
  91              	.L2:
  34:./Src/uart.c  ****   {
  35:./Src/uart.c  ****     Error_Handler();
  36:./Src/uart.c  ****   }
  37:./Src/uart.c  **** 
  38:./Src/uart.c  ****   uartDati.UartRxReady = 0;
  92              		.loc 1 38 0
  93 0058 094B     		ldr	r3, .L5+12
  94 005a 0022     		movs	r2, #0
  95 005c 83F87920 		strb	r2, [r3, #121]
  39:./Src/uart.c  ****   uartDati.UarttxReady = 1;
  96              		.loc 1 39 0
  97 0060 0122     		movs	r2, #1
  98 0062 83F87A20 		strb	r2, [r3, #122]
  40:./Src/uart.c  **** }
  99              		.loc 1 40 0
 100 0066 03B0     		add	sp, sp, #12
 101              	.LCFI2:
 102              		.cfi_remember_state
 103              		.cfi_def_cfa_offset 4
 104              		@ sp needed
 105 0068 5DF804FB 		ldr	pc, [sp], #4
 106              	.L4:
 107              	.LCFI3:
 108              		.cfi_restore_state
  35:./Src/uart.c  ****   }
 109              		.loc 1 35 0
 110 006c FFF7FEFF 		bl	Error_Handler
 111              	.LVL5:
 112 0070 F2E7     		b	.L2
 113              	.L6:
 114 0072 00BF     		.align	2
 115              	.L5:
 116 0074 00100240 		.word	1073876992
 117 0078 00000000 		.word	huart2
 118 007c 00440040 		.word	1073759232
 119 0080 00000000 		.word	uartDati
 120              		.cfi_endproc
 121              	.LFE66:
 123              		.section	.text.Console_Log,"ax",%progbits
 124              		.align	1
 125              		.global	Console_Log
 126              		.syntax unified
 127              		.thumb
 128              		.thumb_func
 129              		.fpu softvfp
 131              	Console_Log:
 132              	.LFB67:
  41:./Src/uart.c  **** 
ARM GAS  /tmp/cc25RRzS.s 			page 4


  42:./Src/uart.c  **** void Console_Log(char *message)
  43:./Src/uart.c  **** {
 133              		.loc 1 43 0
 134              		.cfi_startproc
 135              		@ args = 0, pretend = 0, frame = 0
 136              		@ frame_needed = 0, uses_anonymous_args = 0
 137              	.LVL6:
 138 0000 10B5     		push	{r4, lr}
 139              	.LCFI4:
 140              		.cfi_def_cfa_offset 8
 141              		.cfi_offset 4, -8
 142              		.cfi_offset 14, -4
 143 0002 0446     		mov	r4, r0
  44:./Src/uart.c  ****     //while(huart2.State != HAL_UART_STATE_READY);
  45:./Src/uart.c  ****     HAL_UART_Transmit_DMA(&huart2, (uint8_t *)message, strlen(message));
 144              		.loc 1 45 0
 145 0004 FFF7FEFF 		bl	strlen
 146              	.LVL7:
 147 0008 82B2     		uxth	r2, r0
 148 000a 2146     		mov	r1, r4
 149 000c 0148     		ldr	r0, .L9
 150 000e FFF7FEFF 		bl	HAL_UART_Transmit_DMA
 151              	.LVL8:
  46:./Src/uart.c  **** //    HAL_UART_Transmit(&huart2, (uint8_t *)message, strlen(message),200);
  47:./Src/uart.c  **** }
 152              		.loc 1 47 0
 153 0012 10BD     		pop	{r4, pc}
 154              	.LVL9:
 155              	.L10:
 156              		.align	2
 157              	.L9:
 158 0014 00000000 		.word	huart2
 159              		.cfi_endproc
 160              	.LFE67:
 162              		.section	.text.Uart2_TX,"ax",%progbits
 163              		.align	1
 164              		.global	Uart2_TX
 165              		.syntax unified
 166              		.thumb
 167              		.thumb_func
 168              		.fpu softvfp
 170              	Uart2_TX:
 171              	.LFB68:
  48:./Src/uart.c  **** 
  49:./Src/uart.c  **** void Uart2_TX(char *message)
  50:./Src/uart.c  **** {
 172              		.loc 1 50 0
 173              		.cfi_startproc
 174              		@ args = 0, pretend = 0, frame = 0
 175              		@ frame_needed = 0, uses_anonymous_args = 0
 176              	.LVL10:
 177 0000 10B5     		push	{r4, lr}
 178              	.LCFI5:
 179              		.cfi_def_cfa_offset 8
 180              		.cfi_offset 4, -8
 181              		.cfi_offset 14, -4
 182 0002 0446     		mov	r4, r0
ARM GAS  /tmp/cc25RRzS.s 			page 5


  51:./Src/uart.c  ****     uartDati.UarttxReady = 0;    //occupato
 183              		.loc 1 51 0
 184 0004 054B     		ldr	r3, .L13
 185 0006 0022     		movs	r2, #0
 186 0008 83F87A20 		strb	r2, [r3, #122]
  52:./Src/uart.c  ****     HAL_UART_Transmit_DMA(&huart2, (uint8_t *)message, strlen(message));
 187              		.loc 1 52 0
 188 000c FFF7FEFF 		bl	strlen
 189              	.LVL11:
 190 0010 82B2     		uxth	r2, r0
 191 0012 2146     		mov	r1, r4
 192 0014 0248     		ldr	r0, .L13+4
 193 0016 FFF7FEFF 		bl	HAL_UART_Transmit_DMA
 194              	.LVL12:
  53:./Src/uart.c  **** }
 195              		.loc 1 53 0
 196 001a 10BD     		pop	{r4, pc}
 197              	.LVL13:
 198              	.L14:
 199              		.align	2
 200              	.L13:
 201 001c 00000000 		.word	uartDati
 202 0020 00000000 		.word	huart2
 203              		.cfi_endproc
 204              	.LFE68:
 206              		.section	.text.Uart2_IS_TX_free,"ax",%progbits
 207              		.align	1
 208              		.global	Uart2_IS_TX_free
 209              		.syntax unified
 210              		.thumb
 211              		.thumb_func
 212              		.fpu softvfp
 214              	Uart2_IS_TX_free:
 215              	.LFB69:
  54:./Src/uart.c  **** uint8_t Uart2_IS_TX_free(void){
 216              		.loc 1 54 0
 217              		.cfi_startproc
 218              		@ args = 0, pretend = 0, frame = 0
 219              		@ frame_needed = 0, uses_anonymous_args = 0
 220              		@ link register save eliminated.
  55:./Src/uart.c  ****   return (uartDati.UarttxReady); //(huart2.State == HAL_UART_STATE_READY);
 221              		.loc 1 55 0
 222 0000 014B     		ldr	r3, .L16
 223 0002 93F87A00 		ldrb	r0, [r3, #122]	@ zero_extendqisi2
  56:./Src/uart.c  **** }
 224              		.loc 1 56 0
 225 0006 7047     		bx	lr
 226              	.L17:
 227              		.align	2
 228              	.L16:
 229 0008 00000000 		.word	uartDati
 230              		.cfi_endproc
 231              	.LFE69:
 233              		.section	.text.Uart2_IS_RX_available,"ax",%progbits
 234              		.align	1
 235              		.global	Uart2_IS_RX_available
 236              		.syntax unified
ARM GAS  /tmp/cc25RRzS.s 			page 6


 237              		.thumb
 238              		.thumb_func
 239              		.fpu softvfp
 241              	Uart2_IS_RX_available:
 242              	.LFB70:
  57:./Src/uart.c  **** 
  58:./Src/uart.c  **** uint8_t Uart2_IS_RX_available(void){
 243              		.loc 1 58 0
 244              		.cfi_startproc
 245              		@ args = 0, pretend = 0, frame = 0
 246              		@ frame_needed = 0, uses_anonymous_args = 0
 247              		@ link register save eliminated.
  59:./Src/uart.c  ****   return (uartDati.UartRxReady); //(huart2.State == HAL_UART_STATE_READY);
 248              		.loc 1 59 0
 249 0000 014B     		ldr	r3, .L19
 250 0002 93F87900 		ldrb	r0, [r3, #121]	@ zero_extendqisi2
  60:./Src/uart.c  **** }
 251              		.loc 1 60 0
 252 0006 7047     		bx	lr
 253              	.L20:
 254              		.align	2
 255              	.L19:
 256 0008 00000000 		.word	uartDati
 257              		.cfi_endproc
 258              	.LFE70:
 260              		.section	.text.HAL_UART_RxCpltCallback,"ax",%progbits
 261              		.align	1
 262              		.global	HAL_UART_RxCpltCallback
 263              		.syntax unified
 264              		.thumb
 265              		.thumb_func
 266              		.fpu softvfp
 268              	HAL_UART_RxCpltCallback:
 269              	.LFB71:
  61:./Src/uart.c  **** 
  62:./Src/uart.c  **** 
  63:./Src/uart.c  **** void HAL_UART_RxCpltCallback(UART_HandleTypeDef *huart)
  64:./Src/uart.c  **** {
 270              		.loc 1 64 0
 271              		.cfi_startproc
 272              		@ args = 0, pretend = 0, frame = 0
 273              		@ frame_needed = 0, uses_anonymous_args = 0
 274              		@ link register save eliminated.
 275              	.LVL14:
  65:./Src/uart.c  ****      if (huart->Instance == USART2) {
 276              		.loc 1 65 0
 277 0000 0268     		ldr	r2, [r0]
 278 0002 044B     		ldr	r3, .L24
 279 0004 9A42     		cmp	r2, r3
 280 0006 00D0     		beq	.L23
 281              	.L21:
  66:./Src/uart.c  ****         uartDati.UartRxReady = 1;
  67:./Src/uart.c  ****      }
  68:./Src/uart.c  **** }
 282              		.loc 1 68 0
 283 0008 7047     		bx	lr
 284              	.L23:
ARM GAS  /tmp/cc25RRzS.s 			page 7


  66:./Src/uart.c  ****         uartDati.UartRxReady = 1;
 285              		.loc 1 66 0
 286 000a 034B     		ldr	r3, .L24+4
 287 000c 0122     		movs	r2, #1
 288 000e 83F87920 		strb	r2, [r3, #121]
 289              		.loc 1 68 0
 290 0012 F9E7     		b	.L21
 291              	.L25:
 292              		.align	2
 293              	.L24:
 294 0014 00440040 		.word	1073759232
 295 0018 00000000 		.word	uartDati
 296              		.cfi_endproc
 297              	.LFE71:
 299              		.section	.text.HAL_UART_TxCpltCallback,"ax",%progbits
 300              		.align	1
 301              		.global	HAL_UART_TxCpltCallback
 302              		.syntax unified
 303              		.thumb
 304              		.thumb_func
 305              		.fpu softvfp
 307              	HAL_UART_TxCpltCallback:
 308              	.LFB72:
  69:./Src/uart.c  **** 
  70:./Src/uart.c  **** void HAL_UART_TxCpltCallback(UART_HandleTypeDef *huart) {
 309              		.loc 1 70 0
 310              		.cfi_startproc
 311              		@ args = 0, pretend = 0, frame = 0
 312              		@ frame_needed = 0, uses_anonymous_args = 0
 313              		@ link register save eliminated.
 314              	.LVL15:
  71:./Src/uart.c  ****      if (huart->Instance == USART2) {
 315              		.loc 1 71 0
 316 0000 0268     		ldr	r2, [r0]
 317 0002 044B     		ldr	r3, .L29
 318 0004 9A42     		cmp	r2, r3
 319 0006 00D0     		beq	.L28
 320              	.L26:
  72:./Src/uart.c  ****        uartDati.UarttxReady = 1;
  73:./Src/uart.c  ****      }
  74:./Src/uart.c  **** }
 321              		.loc 1 74 0
 322 0008 7047     		bx	lr
 323              	.L28:
  72:./Src/uart.c  ****        uartDati.UarttxReady = 1;
 324              		.loc 1 72 0
 325 000a 034B     		ldr	r3, .L29+4
 326 000c 0122     		movs	r2, #1
 327 000e 83F87A20 		strb	r2, [r3, #122]
 328              		.loc 1 74 0
 329 0012 F9E7     		b	.L26
 330              	.L30:
 331              		.align	2
 332              	.L29:
 333 0014 00440040 		.word	1073759232
 334 0018 00000000 		.word	uartDati
 335              		.cfi_endproc
ARM GAS  /tmp/cc25RRzS.s 			page 8


 336              	.LFE72:
 338              		.comm	uartDati,123,4
 339              		.comm	hdma_usart2_tx,56,4
 340              		.comm	hdma_usart2_rx,56,4
 341              		.comm	huart2,64,4
 342              		.text
 343              	.Letext0:
 344              		.file 2 "/usr/arm-none-eabi/include/machine/_default_types.h"
 345              		.file 3 "/usr/arm-none-eabi/include/sys/_stdint.h"
 346              		.file 4 "./Drivers/CMSIS/Include/core_cm3.h"
 347              		.file 5 "./Drivers/CMSIS/Device/ST/STM32F1xx/Include/system_stm32f1xx.h"
 348              		.file 6 "./Drivers/CMSIS/Device/ST/STM32F1xx/Include/stm32f103xe.h"
 349              		.file 7 "/usr/arm-none-eabi/include/sys/lock.h"
 350              		.file 8 "/usr/arm-none-eabi/include/sys/_types.h"
 351              		.file 9 "/usr/lib/gcc/arm-none-eabi/7.2.0/include/stddef.h"
 352              		.file 10 "/usr/arm-none-eabi/include/sys/reent.h"
 353              		.file 11 "./Drivers/STM32F1xx_HAL_Driver/Inc/stm32f1xx_hal_def.h"
 354              		.file 12 "./Drivers/STM32F1xx_HAL_Driver/Inc/stm32f1xx_hal_dma.h"
 355              		.file 13 "./Drivers/STM32F1xx_HAL_Driver/Inc/stm32f1xx_hal_uart.h"
 356              		.file 14 "./Inc/uart.h"
 357              		.file 15 "/usr/arm-none-eabi/include/string.h"
 358              		.file 16 "./Drivers/STM32F1xx_HAL_Driver/Inc/stm32f1xx_hal_cortex.h"
ARM GAS  /tmp/cc25RRzS.s 			page 9

