ARM GAS  /tmp/ccVoyC0Y.s 			page 1


   1              		.cpu cortex-m3
   2              		.eabi_attribute 20, 1
   3              		.eabi_attribute 21, 1
   4              		.eabi_attribute 23, 3
   5              		.eabi_attribute 24, 1
   6              		.eabi_attribute 25, 1
   7              		.eabi_attribute 26, 1
   8              		.eabi_attribute 30, 1
   9              		.eabi_attribute 34, 1
  10              		.eabi_attribute 18, 4
  11              		.file	"varie.c"
  12              		.text
  13              	.Ltext0:
  14              		.cfi_sections	.debug_frame
  15              		.section	.text.Led_init,"ax",%progbits
  16              		.align	1
  17              		.global	Led_init
  18              		.syntax unified
  19              		.thumb
  20              		.thumb_func
  21              		.fpu softvfp
  23              	Led_init:
  24              	.LFB67:
  25              		.file 1 "./Src/varie.c"
   1:./Src/varie.c **** #include "varie.h"
   2:./Src/varie.c **** #include "stm32f1xx_hal.h"
   3:./Src/varie.c **** #include "delay.h"
   4:./Src/varie.c **** 
   5:./Src/varie.c **** extern IWDG_HandleTypeDef hiwdg;
   6:./Src/varie.c **** 
   7:./Src/varie.c **** void Buzzer_init(void){
   8:./Src/varie.c ****   GPIO_InitTypeDef GPIO_InitStruct;
   9:./Src/varie.c ****   __HAL_RCC_GPIOA_CLK_ENABLE();
  10:./Src/varie.c ****   /*Configure GPIO pin Output Level */
  11:./Src/varie.c ****   HAL_GPIO_WritePin(BUZZER_GPIO_Port, BUZZER_Pin, GPIO_PIN_RESET);
  12:./Src/varie.c ****   /*Configure GPIO pin : BUZZER_Pin */
  13:./Src/varie.c ****   GPIO_InitStruct.Pin = BUZZER_Pin;
  14:./Src/varie.c ****   GPIO_InitStruct.Mode = GPIO_MODE_OUTPUT_PP;
  15:./Src/varie.c ****   GPIO_InitStruct.Speed = GPIO_SPEED_FREQ_LOW;
  16:./Src/varie.c ****   HAL_GPIO_Init(BUZZER_GPIO_Port, &GPIO_InitStruct);
  17:./Src/varie.c ****   Buzzer_Set(0);
  18:./Src/varie.c ****   Buzzer_Set(1);
  19:./Src/varie.c ****   Buzzer_Set(0);
  20:./Src/varie.c **** }
  21:./Src/varie.c **** 
  22:./Src/varie.c **** void Led_init(void){
  26              		.loc 1 22 0
  27              		.cfi_startproc
  28              		@ args = 0, pretend = 0, frame = 24
  29              		@ frame_needed = 0, uses_anonymous_args = 0
  30 0000 10B5     		push	{r4, lr}
  31              	.LCFI0:
  32              		.cfi_def_cfa_offset 8
  33              		.cfi_offset 4, -8
  34              		.cfi_offset 14, -4
  35 0002 86B0     		sub	sp, sp, #24
  36              	.LCFI1:
ARM GAS  /tmp/ccVoyC0Y.s 			page 2


  37              		.cfi_def_cfa_offset 32
  38              	.LBB2:
  23:./Src/varie.c ****   GPIO_InitTypeDef GPIO_InitStruct;
  24:./Src/varie.c ****   __HAL_RCC_GPIOB_CLK_ENABLE();
  39              		.loc 1 24 0
  40 0004 0D4B     		ldr	r3, .L3
  41 0006 9A69     		ldr	r2, [r3, #24]
  42 0008 42F00802 		orr	r2, r2, #8
  43 000c 9A61     		str	r2, [r3, #24]
  44 000e 9B69     		ldr	r3, [r3, #24]
  45 0010 03F00803 		and	r3, r3, #8
  46 0014 0193     		str	r3, [sp, #4]
  47 0016 019B     		ldr	r3, [sp, #4]
  48              	.LBE2:
  25:./Src/varie.c ****   /*Configure GPIO pin Output Level */
  26:./Src/varie.c ****   HAL_GPIO_WritePin(LED_GPIO_Port, LED_Pin, GPIO_PIN_RESET);
  49              		.loc 1 26 0
  50 0018 094C     		ldr	r4, .L3+4
  51 001a 0022     		movs	r2, #0
  52 001c 0421     		movs	r1, #4
  53 001e 2046     		mov	r0, r4
  54 0020 FFF7FEFF 		bl	HAL_GPIO_WritePin
  55              	.LVL0:
  27:./Src/varie.c ****   /*Configure GPIO pin : LED_Pin */
  28:./Src/varie.c ****   GPIO_InitStruct.Pin = LED_Pin;
  56              		.loc 1 28 0
  57 0024 0423     		movs	r3, #4
  58 0026 0293     		str	r3, [sp, #8]
  29:./Src/varie.c ****   GPIO_InitStruct.Mode = GPIO_MODE_OUTPUT_PP;
  59              		.loc 1 29 0
  60 0028 0123     		movs	r3, #1
  61 002a 0393     		str	r3, [sp, #12]
  30:./Src/varie.c ****   GPIO_InitStruct.Speed = GPIO_SPEED_FREQ_LOW;
  62              		.loc 1 30 0
  63 002c 0223     		movs	r3, #2
  64 002e 0593     		str	r3, [sp, #20]
  31:./Src/varie.c ****   HAL_GPIO_Init(LED_GPIO_Port, &GPIO_InitStruct);
  65              		.loc 1 31 0
  66 0030 02A9     		add	r1, sp, #8
  67 0032 2046     		mov	r0, r4
  68 0034 FFF7FEFF 		bl	HAL_GPIO_Init
  69              	.LVL1:
  32:./Src/varie.c **** }
  70              		.loc 1 32 0
  71 0038 06B0     		add	sp, sp, #24
  72              	.LCFI2:
  73              		.cfi_def_cfa_offset 8
  74              		@ sp needed
  75 003a 10BD     		pop	{r4, pc}
  76              	.L4:
  77              		.align	2
  78              	.L3:
  79 003c 00100240 		.word	1073876992
  80 0040 000C0140 		.word	1073810432
  81              		.cfi_endproc
  82              	.LFE67:
  84              		.section	.text.IS_Charge_init,"ax",%progbits
ARM GAS  /tmp/ccVoyC0Y.s 			page 3


  85              		.align	1
  86              		.global	IS_Charge_init
  87              		.syntax unified
  88              		.thumb
  89              		.thumb_func
  90              		.fpu softvfp
  92              	IS_Charge_init:
  93              	.LFB68:
  33:./Src/varie.c **** 
  34:./Src/varie.c **** void IS_Charge_init(void){
  94              		.loc 1 34 0
  95              		.cfi_startproc
  96              		@ args = 0, pretend = 0, frame = 24
  97              		@ frame_needed = 0, uses_anonymous_args = 0
  98 0000 00B5     		push	{lr}
  99              	.LCFI3:
 100              		.cfi_def_cfa_offset 4
 101              		.cfi_offset 14, -4
 102 0002 87B0     		sub	sp, sp, #28
 103              	.LCFI4:
 104              		.cfi_def_cfa_offset 32
 105              	.LBB3:
  35:./Src/varie.c ****   GPIO_InitTypeDef GPIO_InitStruct;
  36:./Src/varie.c ****   __HAL_RCC_GPIOA_CLK_ENABLE();
 106              		.loc 1 36 0
 107 0004 0B4B     		ldr	r3, .L7
 108 0006 9A69     		ldr	r2, [r3, #24]
 109 0008 42F00402 		orr	r2, r2, #4
 110 000c 9A61     		str	r2, [r3, #24]
 111 000e 9B69     		ldr	r3, [r3, #24]
 112 0010 03F00403 		and	r3, r3, #4
 113 0014 0193     		str	r3, [sp, #4]
 114 0016 019B     		ldr	r3, [sp, #4]
 115              	.LBE3:
  37:./Src/varie.c ****   /*Configure GPIO pin : IS_CHARGE_Pin */
  38:./Src/varie.c ****   GPIO_InitStruct.Pin = IS_CHARGE_Pin;
 116              		.loc 1 38 0
 117 0018 4FF48053 		mov	r3, #4096
 118 001c 0293     		str	r3, [sp, #8]
  39:./Src/varie.c ****   GPIO_InitStruct.Mode = GPIO_MODE_INPUT;
 119              		.loc 1 39 0
 120 001e 0023     		movs	r3, #0
 121 0020 0393     		str	r3, [sp, #12]
  40:./Src/varie.c ****   GPIO_InitStruct.Pull = GPIO_PULLUP;
 122              		.loc 1 40 0
 123 0022 0123     		movs	r3, #1
 124 0024 0493     		str	r3, [sp, #16]
  41:./Src/varie.c ****   HAL_GPIO_Init(IS_CHARGE_GPIO_Port, &GPIO_InitStruct);
 125              		.loc 1 41 0
 126 0026 02A9     		add	r1, sp, #8
 127 0028 0348     		ldr	r0, .L7+4
 128 002a FFF7FEFF 		bl	HAL_GPIO_Init
 129              	.LVL2:
  42:./Src/varie.c **** }
 130              		.loc 1 42 0
 131 002e 07B0     		add	sp, sp, #28
 132              	.LCFI5:
ARM GAS  /tmp/ccVoyC0Y.s 			page 4


 133              		.cfi_def_cfa_offset 4
 134              		@ sp needed
 135 0030 5DF804FB 		ldr	pc, [sp], #4
 136              	.L8:
 137              		.align	2
 138              	.L7:
 139 0034 00100240 		.word	1073876992
 140 0038 00080140 		.word	1073809408
 141              		.cfi_endproc
 142              	.LFE68:
 144              		.section	.text.Led_Set,"ax",%progbits
 145              		.align	1
 146              		.global	Led_Set
 147              		.syntax unified
 148              		.thumb
 149              		.thumb_func
 150              		.fpu softvfp
 152              	Led_Set:
 153              	.LFB69:
  43:./Src/varie.c **** 
  44:./Src/varie.c **** void Led_Set(uint8_t stato){
 154              		.loc 1 44 0
 155              		.cfi_startproc
 156              		@ args = 0, pretend = 0, frame = 0
 157              		@ frame_needed = 0, uses_anonymous_args = 0
 158              	.LVL3:
 159 0000 08B5     		push	{r3, lr}
 160              	.LCFI6:
 161              		.cfi_def_cfa_offset 8
 162              		.cfi_offset 3, -8
 163              		.cfi_offset 14, -4
  45:./Src/varie.c ****   HAL_GPIO_WritePin(LED_GPIO_Port, LED_Pin, (GPIO_PinState)stato);
 164              		.loc 1 45 0
 165 0002 0246     		mov	r2, r0
 166 0004 0421     		movs	r1, #4
 167 0006 0248     		ldr	r0, .L11
 168              	.LVL4:
 169 0008 FFF7FEFF 		bl	HAL_GPIO_WritePin
 170              	.LVL5:
  46:./Src/varie.c **** }
 171              		.loc 1 46 0
 172 000c 08BD     		pop	{r3, pc}
 173              	.L12:
 174 000e 00BF     		.align	2
 175              	.L11:
 176 0010 000C0140 		.word	1073810432
 177              		.cfi_endproc
 178              	.LFE69:
 180              		.section	.text.Power_Set,"ax",%progbits
 181              		.align	1
 182              		.global	Power_Set
 183              		.syntax unified
 184              		.thumb
 185              		.thumb_func
 186              		.fpu softvfp
 188              	Power_Set:
 189              	.LFB70:
ARM GAS  /tmp/ccVoyC0Y.s 			page 5


  47:./Src/varie.c **** void Power_Set(uint8_t stato){
 190              		.loc 1 47 0
 191              		.cfi_startproc
 192              		@ args = 0, pretend = 0, frame = 0
 193              		@ frame_needed = 0, uses_anonymous_args = 0
 194              	.LVL6:
 195 0000 08B5     		push	{r3, lr}
 196              	.LCFI7:
 197              		.cfi_def_cfa_offset 8
 198              		.cfi_offset 3, -8
 199              		.cfi_offset 14, -4
  48:./Src/varie.c ****   HAL_GPIO_WritePin(Power_GPIO_PORT, Power_Pin, (GPIO_PinState)stato);
 200              		.loc 1 48 0
 201 0002 0246     		mov	r2, r0
 202 0004 2021     		movs	r1, #32
 203 0006 0248     		ldr	r0, .L15
 204              	.LVL7:
 205 0008 FFF7FEFF 		bl	HAL_GPIO_WritePin
 206              	.LVL8:
  49:./Src/varie.c **** }
 207              		.loc 1 49 0
 208 000c 08BD     		pop	{r3, pc}
 209              	.L16:
 210 000e 00BF     		.align	2
 211              	.L15:
 212 0010 00080140 		.word	1073809408
 213              		.cfi_endproc
 214              	.LFE70:
 216              		.section	.text.Buzzer_Set,"ax",%progbits
 217              		.align	1
 218              		.global	Buzzer_Set
 219              		.syntax unified
 220              		.thumb
 221              		.thumb_func
 222              		.fpu softvfp
 224              	Buzzer_Set:
 225              	.LFB71:
  50:./Src/varie.c **** void Buzzer_Set(uint8_t stato){
 226              		.loc 1 50 0
 227              		.cfi_startproc
 228              		@ args = 0, pretend = 0, frame = 0
 229              		@ frame_needed = 0, uses_anonymous_args = 0
 230              	.LVL9:
 231 0000 08B5     		push	{r3, lr}
 232              	.LCFI8:
 233              		.cfi_def_cfa_offset 8
 234              		.cfi_offset 3, -8
 235              		.cfi_offset 14, -4
  51:./Src/varie.c ****   HAL_GPIO_WritePin(BUZZER_GPIO_Port, BUZZER_Pin, (GPIO_PinState)stato);
 236              		.loc 1 51 0
 237 0002 0246     		mov	r2, r0
 238 0004 1021     		movs	r1, #16
 239 0006 0248     		ldr	r0, .L19
 240              	.LVL10:
 241 0008 FFF7FEFF 		bl	HAL_GPIO_WritePin
 242              	.LVL11:
  52:./Src/varie.c **** }
ARM GAS  /tmp/ccVoyC0Y.s 			page 6


 243              		.loc 1 52 0
 244 000c 08BD     		pop	{r3, pc}
 245              	.L20:
 246 000e 00BF     		.align	2
 247              	.L19:
 248 0010 00080140 		.word	1073809408
 249              		.cfi_endproc
 250              	.LFE71:
 252              		.section	.text.Buzzer_init,"ax",%progbits
 253              		.align	1
 254              		.global	Buzzer_init
 255              		.syntax unified
 256              		.thumb
 257              		.thumb_func
 258              		.fpu softvfp
 260              	Buzzer_init:
 261              	.LFB66:
   7:./Src/varie.c ****   GPIO_InitTypeDef GPIO_InitStruct;
 262              		.loc 1 7 0
 263              		.cfi_startproc
 264              		@ args = 0, pretend = 0, frame = 24
 265              		@ frame_needed = 0, uses_anonymous_args = 0
 266 0000 30B5     		push	{r4, r5, lr}
 267              	.LCFI9:
 268              		.cfi_def_cfa_offset 12
 269              		.cfi_offset 4, -12
 270              		.cfi_offset 5, -8
 271              		.cfi_offset 14, -4
 272 0002 87B0     		sub	sp, sp, #28
 273              	.LCFI10:
 274              		.cfi_def_cfa_offset 40
 275              	.LBB4:
   9:./Src/varie.c ****   /*Configure GPIO pin Output Level */
 276              		.loc 1 9 0
 277 0004 124B     		ldr	r3, .L23
 278 0006 9A69     		ldr	r2, [r3, #24]
 279 0008 42F00402 		orr	r2, r2, #4
 280 000c 9A61     		str	r2, [r3, #24]
 281 000e 9B69     		ldr	r3, [r3, #24]
 282 0010 03F00403 		and	r3, r3, #4
 283 0014 0193     		str	r3, [sp, #4]
 284 0016 019B     		ldr	r3, [sp, #4]
 285              	.LBE4:
  11:./Src/varie.c ****   /*Configure GPIO pin : BUZZER_Pin */
 286              		.loc 1 11 0
 287 0018 0E4D     		ldr	r5, .L23+4
 288 001a 0022     		movs	r2, #0
 289 001c 1021     		movs	r1, #16
 290 001e 2846     		mov	r0, r5
 291 0020 FFF7FEFF 		bl	HAL_GPIO_WritePin
 292              	.LVL12:
  13:./Src/varie.c ****   GPIO_InitStruct.Mode = GPIO_MODE_OUTPUT_PP;
 293              		.loc 1 13 0
 294 0024 1023     		movs	r3, #16
 295 0026 0293     		str	r3, [sp, #8]
  14:./Src/varie.c ****   GPIO_InitStruct.Speed = GPIO_SPEED_FREQ_LOW;
 296              		.loc 1 14 0
ARM GAS  /tmp/ccVoyC0Y.s 			page 7


 297 0028 0124     		movs	r4, #1
 298 002a 0394     		str	r4, [sp, #12]
  15:./Src/varie.c ****   HAL_GPIO_Init(BUZZER_GPIO_Port, &GPIO_InitStruct);
 299              		.loc 1 15 0
 300 002c 0223     		movs	r3, #2
 301 002e 0593     		str	r3, [sp, #20]
  16:./Src/varie.c ****   Buzzer_Set(0);
 302              		.loc 1 16 0
 303 0030 02A9     		add	r1, sp, #8
 304 0032 2846     		mov	r0, r5
 305 0034 FFF7FEFF 		bl	HAL_GPIO_Init
 306              	.LVL13:
  17:./Src/varie.c ****   Buzzer_Set(1);
 307              		.loc 1 17 0
 308 0038 0020     		movs	r0, #0
 309 003a FFF7FEFF 		bl	Buzzer_Set
 310              	.LVL14:
  18:./Src/varie.c ****   Buzzer_Set(0);
 311              		.loc 1 18 0
 312 003e 2046     		mov	r0, r4
 313 0040 FFF7FEFF 		bl	Buzzer_Set
 314              	.LVL15:
  19:./Src/varie.c **** }
 315              		.loc 1 19 0
 316 0044 0020     		movs	r0, #0
 317 0046 FFF7FEFF 		bl	Buzzer_Set
 318              	.LVL16:
  20:./Src/varie.c **** 
 319              		.loc 1 20 0
 320 004a 07B0     		add	sp, sp, #28
 321              	.LCFI11:
 322              		.cfi_def_cfa_offset 12
 323              		@ sp needed
 324 004c 30BD     		pop	{r4, r5, pc}
 325              	.L24:
 326 004e 00BF     		.align	2
 327              	.L23:
 328 0050 00100240 		.word	1073876992
 329 0054 00080140 		.word	1073809408
 330              		.cfi_endproc
 331              	.LFE66:
 333              		.section	.text.Buzzer_OneBeep,"ax",%progbits
 334              		.align	1
 335              		.global	Buzzer_OneBeep
 336              		.syntax unified
 337              		.thumb
 338              		.thumb_func
 339              		.fpu softvfp
 341              	Buzzer_OneBeep:
 342              	.LFB72:
  53:./Src/varie.c **** void Buzzer_OneBeep(void){
 343              		.loc 1 53 0
 344              		.cfi_startproc
 345              		@ args = 0, pretend = 0, frame = 0
 346              		@ frame_needed = 0, uses_anonymous_args = 0
 347 0000 10B5     		push	{r4, lr}
 348              	.LCFI12:
ARM GAS  /tmp/ccVoyC0Y.s 			page 8


 349              		.cfi_def_cfa_offset 8
 350              		.cfi_offset 4, -8
 351              		.cfi_offset 14, -4
 352              	.LVL17:
 353              	.LBB5:
  54:./Src/varie.c ****   for(int i=0;i<200;i++){
 354              		.loc 1 54 0
 355 0002 0024     		movs	r4, #0
 356 0004 0FE0     		b	.L26
 357              	.LVL18:
 358              	.L27:
  55:./Src/varie.c ****     Buzzer_Set(1);
 359              		.loc 1 55 0 discriminator 3
 360 0006 0120     		movs	r0, #1
 361 0008 FFF7FEFF 		bl	Buzzer_Set
 362              	.LVL19:
  56:./Src/varie.c ****     Delay_us(160);
 363              		.loc 1 56 0 discriminator 3
 364 000c A020     		movs	r0, #160
 365 000e FFF7FEFF 		bl	Delay_us
 366              	.LVL20:
  57:./Src/varie.c ****     Buzzer_Set(0);
 367              		.loc 1 57 0 discriminator 3
 368 0012 0020     		movs	r0, #0
 369 0014 FFF7FEFF 		bl	Buzzer_Set
 370              	.LVL21:
  58:./Src/varie.c ****     Delay_us(160);
 371              		.loc 1 58 0 discriminator 3
 372 0018 A020     		movs	r0, #160
 373 001a FFF7FEFF 		bl	Delay_us
 374              	.LVL22:
  59:./Src/varie.c ****     HAL_IWDG_Refresh(&hiwdg);   //819mS
 375              		.loc 1 59 0 discriminator 3
 376 001e 0548     		ldr	r0, .L29
 377 0020 FFF7FEFF 		bl	HAL_IWDG_Refresh
 378              	.LVL23:
  54:./Src/varie.c ****     Buzzer_Set(1);
 379              		.loc 1 54 0 discriminator 3
 380 0024 0134     		adds	r4, r4, #1
 381              	.LVL24:
 382              	.L26:
  54:./Src/varie.c ****     Buzzer_Set(1);
 383              		.loc 1 54 0 is_stmt 0 discriminator 1
 384 0026 C72C     		cmp	r4, #199
 385 0028 EDDD     		ble	.L27
 386              	.LBE5:
  60:./Src/varie.c ****   }
  61:./Src/varie.c ****   Buzzer_Set(0);
 387              		.loc 1 61 0 is_stmt 1
 388 002a 0020     		movs	r0, #0
 389 002c FFF7FEFF 		bl	Buzzer_Set
 390              	.LVL25:
  62:./Src/varie.c **** }
 391              		.loc 1 62 0
 392 0030 10BD     		pop	{r4, pc}
 393              	.LVL26:
 394              	.L30:
ARM GAS  /tmp/ccVoyC0Y.s 			page 9


 395 0032 00BF     		.align	2
 396              	.L29:
 397 0034 00000000 		.word	hiwdg
 398              		.cfi_endproc
 399              	.LFE72:
 401              		.section	.text.Buzzer_TwoBeep,"ax",%progbits
 402              		.align	1
 403              		.global	Buzzer_TwoBeep
 404              		.syntax unified
 405              		.thumb
 406              		.thumb_func
 407              		.fpu softvfp
 409              	Buzzer_TwoBeep:
 410              	.LFB73:
  63:./Src/varie.c **** void Buzzer_TwoBeep(void){
 411              		.loc 1 63 0
 412              		.cfi_startproc
 413              		@ args = 0, pretend = 0, frame = 0
 414              		@ frame_needed = 0, uses_anonymous_args = 0
 415 0000 38B5     		push	{r3, r4, r5, lr}
 416              	.LCFI13:
 417              		.cfi_def_cfa_offset 16
 418              		.cfi_offset 3, -16
 419              		.cfi_offset 4, -12
 420              		.cfi_offset 5, -8
 421              		.cfi_offset 14, -4
 422              	.LVL27:
 423              	.LBB6:
  64:./Src/varie.c ****   for(int j=0;j<2;j++){
 424              		.loc 1 64 0
 425 0002 0025     		movs	r5, #0
 426 0004 18E0     		b	.L32
 427              	.LVL28:
 428              	.L33:
 429              	.LBB7:
  65:./Src/varie.c ****     for(int i=0;i<150;i++){
  66:./Src/varie.c ****       Buzzer_Set(1);
 430              		.loc 1 66 0 discriminator 3
 431 0006 0120     		movs	r0, #1
 432 0008 FFF7FEFF 		bl	Buzzer_Set
 433              	.LVL29:
  67:./Src/varie.c ****       Delay_us(160);
 434              		.loc 1 67 0 discriminator 3
 435 000c A020     		movs	r0, #160
 436 000e FFF7FEFF 		bl	Delay_us
 437              	.LVL30:
  68:./Src/varie.c ****       Buzzer_Set(0);
 438              		.loc 1 68 0 discriminator 3
 439 0012 0020     		movs	r0, #0
 440 0014 FFF7FEFF 		bl	Buzzer_Set
 441              	.LVL31:
  69:./Src/varie.c ****       Delay_us(160);
 442              		.loc 1 69 0 discriminator 3
 443 0018 A020     		movs	r0, #160
 444 001a FFF7FEFF 		bl	Delay_us
 445              	.LVL32:
  70:./Src/varie.c ****       HAL_IWDG_Refresh(&hiwdg);   //819mS
ARM GAS  /tmp/ccVoyC0Y.s 			page 10


 446              		.loc 1 70 0 discriminator 3
 447 001e 0A48     		ldr	r0, .L38
 448 0020 FFF7FEFF 		bl	HAL_IWDG_Refresh
 449              	.LVL33:
  65:./Src/varie.c ****       Buzzer_Set(1);
 450              		.loc 1 65 0 discriminator 3
 451 0024 0134     		adds	r4, r4, #1
 452              	.LVL34:
 453              	.L34:
  65:./Src/varie.c ****       Buzzer_Set(1);
 454              		.loc 1 65 0 is_stmt 0 discriminator 1
 455 0026 952C     		cmp	r4, #149
 456 0028 EDDD     		ble	.L33
 457              	.LBE7:
  71:./Src/varie.c ****     }
  72:./Src/varie.c ****     Buzzer_Set(0);
 458              		.loc 1 72 0 is_stmt 1 discriminator 2
 459 002a 0020     		movs	r0, #0
 460 002c FFF7FEFF 		bl	Buzzer_Set
 461              	.LVL35:
  73:./Src/varie.c ****     HAL_Delay(200);
 462              		.loc 1 73 0 discriminator 2
 463 0030 C820     		movs	r0, #200
 464 0032 FFF7FEFF 		bl	HAL_Delay
 465              	.LVL36:
  64:./Src/varie.c ****     for(int i=0;i<150;i++){
 466              		.loc 1 64 0 discriminator 2
 467 0036 0135     		adds	r5, r5, #1
 468              	.LVL37:
 469              	.L32:
  64:./Src/varie.c ****     for(int i=0;i<150;i++){
 470              		.loc 1 64 0 is_stmt 0 discriminator 1
 471 0038 012D     		cmp	r5, #1
 472 003a 01DC     		bgt	.L37
 473              	.LBB8:
  65:./Src/varie.c ****       Buzzer_Set(1);
 474              		.loc 1 65 0 is_stmt 1
 475 003c 0024     		movs	r4, #0
 476 003e F2E7     		b	.L34
 477              	.L37:
 478              	.LBE8:
 479              	.LBE6:
  74:./Src/varie.c ****   }
  75:./Src/varie.c ****   Buzzer_Set(0);
 480              		.loc 1 75 0
 481 0040 0020     		movs	r0, #0
 482 0042 FFF7FEFF 		bl	Buzzer_Set
 483              	.LVL38:
  76:./Src/varie.c **** }
 484              		.loc 1 76 0
 485 0046 38BD     		pop	{r3, r4, r5, pc}
 486              	.LVL39:
 487              	.L39:
 488              		.align	2
 489              	.L38:
 490 0048 00000000 		.word	hiwdg
 491              		.cfi_endproc
ARM GAS  /tmp/ccVoyC0Y.s 			page 11


 492              	.LFE73:
 494              		.section	.text.Buzzer_OneShortBeep,"ax",%progbits
 495              		.align	1
 496              		.global	Buzzer_OneShortBeep
 497              		.syntax unified
 498              		.thumb
 499              		.thumb_func
 500              		.fpu softvfp
 502              	Buzzer_OneShortBeep:
 503              	.LFB74:
  77:./Src/varie.c **** void Buzzer_OneShortBeep(void){
 504              		.loc 1 77 0
 505              		.cfi_startproc
 506              		@ args = 0, pretend = 0, frame = 0
 507              		@ frame_needed = 0, uses_anonymous_args = 0
 508 0000 10B5     		push	{r4, lr}
 509              	.LCFI14:
 510              		.cfi_def_cfa_offset 8
 511              		.cfi_offset 4, -8
 512              		.cfi_offset 14, -4
 513              	.LVL40:
 514              	.LBB9:
  78:./Src/varie.c ****   for(int i=0;i<80;i++){
 515              		.loc 1 78 0
 516 0002 0024     		movs	r4, #0
 517 0004 0FE0     		b	.L41
 518              	.LVL41:
 519              	.L42:
  79:./Src/varie.c ****     Buzzer_Set(1);
 520              		.loc 1 79 0 discriminator 3
 521 0006 0120     		movs	r0, #1
 522 0008 FFF7FEFF 		bl	Buzzer_Set
 523              	.LVL42:
  80:./Src/varie.c ****     Delay_us(160);
 524              		.loc 1 80 0 discriminator 3
 525 000c A020     		movs	r0, #160
 526 000e FFF7FEFF 		bl	Delay_us
 527              	.LVL43:
  81:./Src/varie.c ****     Buzzer_Set(0);
 528              		.loc 1 81 0 discriminator 3
 529 0012 0020     		movs	r0, #0
 530 0014 FFF7FEFF 		bl	Buzzer_Set
 531              	.LVL44:
  82:./Src/varie.c ****     Delay_us(160);
 532              		.loc 1 82 0 discriminator 3
 533 0018 A020     		movs	r0, #160
 534 001a FFF7FEFF 		bl	Delay_us
 535              	.LVL45:
  83:./Src/varie.c ****     HAL_IWDG_Refresh(&hiwdg);   //819mS
 536              		.loc 1 83 0 discriminator 3
 537 001e 0548     		ldr	r0, .L44
 538 0020 FFF7FEFF 		bl	HAL_IWDG_Refresh
 539              	.LVL46:
  78:./Src/varie.c ****     Buzzer_Set(1);
 540              		.loc 1 78 0 discriminator 3
 541 0024 0134     		adds	r4, r4, #1
 542              	.LVL47:
ARM GAS  /tmp/ccVoyC0Y.s 			page 12


 543              	.L41:
  78:./Src/varie.c ****     Buzzer_Set(1);
 544              		.loc 1 78 0 is_stmt 0 discriminator 1
 545 0026 4F2C     		cmp	r4, #79
 546 0028 EDDD     		ble	.L42
 547              	.LBE9:
  84:./Src/varie.c ****   }
  85:./Src/varie.c ****   Buzzer_Set(0);
 548              		.loc 1 85 0 is_stmt 1
 549 002a 0020     		movs	r0, #0
 550 002c FFF7FEFF 		bl	Buzzer_Set
 551              	.LVL48:
  86:./Src/varie.c **** }
 552              		.loc 1 86 0
 553 0030 10BD     		pop	{r4, pc}
 554              	.LVL49:
 555              	.L45:
 556 0032 00BF     		.align	2
 557              	.L44:
 558 0034 00000000 		.word	hiwdg
 559              		.cfi_endproc
 560              	.LFE74:
 562              		.section	.text.Buzzer_OneLongBeep,"ax",%progbits
 563              		.align	1
 564              		.global	Buzzer_OneLongBeep
 565              		.syntax unified
 566              		.thumb
 567              		.thumb_func
 568              		.fpu softvfp
 570              	Buzzer_OneLongBeep:
 571              	.LFB75:
  87:./Src/varie.c **** void Buzzer_OneLongBeep(void){
 572              		.loc 1 87 0
 573              		.cfi_startproc
 574              		@ args = 0, pretend = 0, frame = 0
 575              		@ frame_needed = 0, uses_anonymous_args = 0
 576 0000 10B5     		push	{r4, lr}
 577              	.LCFI15:
 578              		.cfi_def_cfa_offset 8
 579              		.cfi_offset 4, -8
 580              		.cfi_offset 14, -4
 581              	.LVL50:
 582              	.LBB10:
  88:./Src/varie.c ****   for(int i=0;i<600;i++){
 583              		.loc 1 88 0
 584 0002 0024     		movs	r4, #0
 585 0004 0FE0     		b	.L47
 586              	.LVL51:
 587              	.L48:
  89:./Src/varie.c ****     Buzzer_Set(1);
 588              		.loc 1 89 0 discriminator 3
 589 0006 0120     		movs	r0, #1
 590 0008 FFF7FEFF 		bl	Buzzer_Set
 591              	.LVL52:
  90:./Src/varie.c ****     Delay_us(160);
 592              		.loc 1 90 0 discriminator 3
 593 000c A020     		movs	r0, #160
ARM GAS  /tmp/ccVoyC0Y.s 			page 13


 594 000e FFF7FEFF 		bl	Delay_us
 595              	.LVL53:
  91:./Src/varie.c ****     Buzzer_Set(0);
 596              		.loc 1 91 0 discriminator 3
 597 0012 0020     		movs	r0, #0
 598 0014 FFF7FEFF 		bl	Buzzer_Set
 599              	.LVL54:
  92:./Src/varie.c ****     Delay_us(160);
 600              		.loc 1 92 0 discriminator 3
 601 0018 A020     		movs	r0, #160
 602 001a FFF7FEFF 		bl	Delay_us
 603              	.LVL55:
  93:./Src/varie.c ****     HAL_IWDG_Refresh(&hiwdg);   //819mS
 604              		.loc 1 93 0 discriminator 3
 605 001e 0548     		ldr	r0, .L50
 606 0020 FFF7FEFF 		bl	HAL_IWDG_Refresh
 607              	.LVL56:
  88:./Src/varie.c ****     Buzzer_Set(1);
 608              		.loc 1 88 0 discriminator 3
 609 0024 0134     		adds	r4, r4, #1
 610              	.LVL57:
 611              	.L47:
  88:./Src/varie.c ****     Buzzer_Set(1);
 612              		.loc 1 88 0 is_stmt 0 discriminator 1
 613 0026 B4F5167F 		cmp	r4, #600
 614 002a ECDB     		blt	.L48
 615              	.LBE10:
  94:./Src/varie.c ****   }
  95:./Src/varie.c ****   Buzzer_Set(0);
 616              		.loc 1 95 0 is_stmt 1
 617 002c 0020     		movs	r0, #0
 618 002e FFF7FEFF 		bl	Buzzer_Set
 619              	.LVL58:
  96:./Src/varie.c **** }
 620              		.loc 1 96 0
 621 0032 10BD     		pop	{r4, pc}
 622              	.LVL59:
 623              	.L51:
 624              		.align	2
 625              	.L50:
 626 0034 00000000 		.word	hiwdg
 627              		.cfi_endproc
 628              	.LFE75:
 630              		.section	.text.IS_Charge,"ax",%progbits
 631              		.align	1
 632              		.global	IS_Charge
 633              		.syntax unified
 634              		.thumb
 635              		.thumb_func
 636              		.fpu softvfp
 638              	IS_Charge:
 639              	.LFB76:
  97:./Src/varie.c **** 
  98:./Src/varie.c **** uint8_t IS_Charge(void){
 640              		.loc 1 98 0
 641              		.cfi_startproc
 642              		@ args = 0, pretend = 0, frame = 0
ARM GAS  /tmp/ccVoyC0Y.s 			page 14


 643              		@ frame_needed = 0, uses_anonymous_args = 0
 644 0000 08B5     		push	{r3, lr}
 645              	.LCFI16:
 646              		.cfi_def_cfa_offset 8
 647              		.cfi_offset 3, -8
 648              		.cfi_offset 14, -4
  99:./Src/varie.c ****   return (uint8_t)HAL_GPIO_ReadPin(IS_CHARGE_GPIO_Port, IS_CHARGE_Pin);
 649              		.loc 1 99 0
 650 0002 4FF48051 		mov	r1, #4096
 651 0006 0248     		ldr	r0, .L54
 652 0008 FFF7FEFF 		bl	HAL_GPIO_ReadPin
 653              	.LVL60:
 100:./Src/varie.c **** }
 654              		.loc 1 100 0
 655 000c 08BD     		pop	{r3, pc}
 656              	.L55:
 657 000e 00BF     		.align	2
 658              	.L54:
 659 0010 00080140 		.word	1073809408
 660              		.cfi_endproc
 661              	.LFE76:
 663              		.section	.text.IS_Button,"ax",%progbits
 664              		.align	1
 665              		.global	IS_Button
 666              		.syntax unified
 667              		.thumb
 668              		.thumb_func
 669              		.fpu softvfp
 671              	IS_Button:
 672              	.LFB77:
 101:./Src/varie.c **** 
 102:./Src/varie.c **** uint8_t IS_Button(void){
 673              		.loc 1 102 0
 674              		.cfi_startproc
 675              		@ args = 0, pretend = 0, frame = 0
 676              		@ frame_needed = 0, uses_anonymous_args = 0
 677 0000 08B5     		push	{r3, lr}
 678              	.LCFI17:
 679              		.cfi_def_cfa_offset 8
 680              		.cfi_offset 3, -8
 681              		.cfi_offset 14, -4
 103:./Src/varie.c ****   return (uint8_t)HAL_GPIO_ReadPin(Button_GPIO_Port, Button_Pin);
 682              		.loc 1 103 0
 683 0002 0221     		movs	r1, #2
 684 0004 0148     		ldr	r0, .L58
 685 0006 FFF7FEFF 		bl	HAL_GPIO_ReadPin
 686              	.LVL61:
 104:./Src/varie.c **** }
 687              		.loc 1 104 0
 688 000a 08BD     		pop	{r3, pc}
 689              	.L59:
 690              		.align	2
 691              	.L58:
 692 000c 00080140 		.word	1073809408
 693              		.cfi_endproc
 694              	.LFE77:
 696              		.section	.text.DebugPin_init,"ax",%progbits
ARM GAS  /tmp/ccVoyC0Y.s 			page 15


 697              		.align	1
 698              		.global	DebugPin_init
 699              		.syntax unified
 700              		.thumb
 701              		.thumb_func
 702              		.fpu softvfp
 704              	DebugPin_init:
 705              	.LFB78:
 105:./Src/varie.c **** //volatile uint32_t tu32;
 106:./Src/varie.c **** void DebugPin_init(void){
 706              		.loc 1 106 0
 707              		.cfi_startproc
 708              		@ args = 0, pretend = 0, frame = 24
 709              		@ frame_needed = 0, uses_anonymous_args = 0
 710 0000 10B5     		push	{r4, lr}
 711              	.LCFI18:
 712              		.cfi_def_cfa_offset 8
 713              		.cfi_offset 4, -8
 714              		.cfi_offset 14, -4
 715 0002 86B0     		sub	sp, sp, #24
 716              	.LCFI19:
 717              		.cfi_def_cfa_offset 32
 718              	.LBB11:
 107:./Src/varie.c ****   GPIO_InitTypeDef GPIO_InitStruct;
 108:./Src/varie.c ****   __HAL_RCC_GPIOC_CLK_ENABLE();
 719              		.loc 1 108 0
 720 0004 144B     		ldr	r3, .L62
 721 0006 9A69     		ldr	r2, [r3, #24]
 722 0008 42F01002 		orr	r2, r2, #16
 723 000c 9A61     		str	r2, [r3, #24]
 724 000e 9B69     		ldr	r3, [r3, #24]
 725 0010 03F01003 		and	r3, r3, #16
 726 0014 0193     		str	r3, [sp, #4]
 727 0016 019B     		ldr	r3, [sp, #4]
 728              	.LBE11:
 109:./Src/varie.c ****   /*Configure GPIO pin Output Level */
 110:./Src/varie.c ****   HAL_GPIO_WritePin(GPIOC, GPIO_PIN_4, GPIO_PIN_RESET);
 729              		.loc 1 110 0
 730 0018 104C     		ldr	r4, .L62+4
 731 001a 0022     		movs	r2, #0
 732 001c 1021     		movs	r1, #16
 733 001e 2046     		mov	r0, r4
 734 0020 FFF7FEFF 		bl	HAL_GPIO_WritePin
 735              	.LVL62:
 111:./Src/varie.c ****   HAL_GPIO_WritePin(GPIOC, GPIO_PIN_5, GPIO_PIN_RESET);
 736              		.loc 1 111 0
 737 0024 0022     		movs	r2, #0
 738 0026 2021     		movs	r1, #32
 739 0028 2046     		mov	r0, r4
 740 002a FFF7FEFF 		bl	HAL_GPIO_WritePin
 741              	.LVL63:
 112:./Src/varie.c ****   GPIO_InitStruct.Pull = GPIO_PULLDOWN;
 742              		.loc 1 112 0
 743 002e 0223     		movs	r3, #2
 744 0030 0493     		str	r3, [sp, #16]
 113:./Src/varie.c ****   GPIO_InitStruct.Pin = GPIO_PIN_4;
 745              		.loc 1 113 0
ARM GAS  /tmp/ccVoyC0Y.s 			page 16


 746 0032 1023     		movs	r3, #16
 747 0034 0293     		str	r3, [sp, #8]
 114:./Src/varie.c ****   GPIO_InitStruct.Mode = GPIO_MODE_OUTPUT_PP;
 748              		.loc 1 114 0
 749 0036 0123     		movs	r3, #1
 750 0038 0393     		str	r3, [sp, #12]
 115:./Src/varie.c ****   GPIO_InitStruct.Speed = GPIO_SPEED_FREQ_HIGH;
 751              		.loc 1 115 0
 752 003a 0323     		movs	r3, #3
 753 003c 0593     		str	r3, [sp, #20]
 116:./Src/varie.c ****   HAL_GPIO_Init(GPIOC, &GPIO_InitStruct);
 754              		.loc 1 116 0
 755 003e 02A9     		add	r1, sp, #8
 756 0040 2046     		mov	r0, r4
 757 0042 FFF7FEFF 		bl	HAL_GPIO_Init
 758              	.LVL64:
 117:./Src/varie.c ****   GPIO_InitStruct.Pin = GPIO_PIN_5;
 759              		.loc 1 117 0
 760 0046 2023     		movs	r3, #32
 761 0048 0293     		str	r3, [sp, #8]
 118:./Src/varie.c ****   HAL_GPIO_Init(GPIOC, &GPIO_InitStruct);
 762              		.loc 1 118 0
 763 004a 02A9     		add	r1, sp, #8
 764 004c 2046     		mov	r0, r4
 765 004e FFF7FEFF 		bl	HAL_GPIO_Init
 766              	.LVL65:
 119:./Src/varie.c **** 
 120:./Src/varie.c **** //  tu32 = (uint32_t)GPIO_PIN_4 << 16;
 121:./Src/varie.c **** //  tu32 = (uint32_t)GPIO_PIN_5 << 16;
 122:./Src/varie.c **** 
 123:./Src/varie.c **** }
 767              		.loc 1 123 0
 768 0052 06B0     		add	sp, sp, #24
 769              	.LCFI20:
 770              		.cfi_def_cfa_offset 8
 771              		@ sp needed
 772 0054 10BD     		pop	{r4, pc}
 773              	.L63:
 774 0056 00BF     		.align	2
 775              	.L62:
 776 0058 00100240 		.word	1073876992
 777 005c 00100140 		.word	1073811456
 778              		.cfi_endproc
 779              	.LFE78:
 781              		.section	.text.Button_init,"ax",%progbits
 782              		.align	1
 783              		.global	Button_init
 784              		.syntax unified
 785              		.thumb
 786              		.thumb_func
 787              		.fpu softvfp
 789              	Button_init:
 790              	.LFB79:
 124:./Src/varie.c **** 
 125:./Src/varie.c **** void Button_init(void){
 791              		.loc 1 125 0
 792              		.cfi_startproc
ARM GAS  /tmp/ccVoyC0Y.s 			page 17


 793              		@ args = 0, pretend = 0, frame = 24
 794              		@ frame_needed = 0, uses_anonymous_args = 0
 795 0000 30B5     		push	{r4, r5, lr}
 796              	.LCFI21:
 797              		.cfi_def_cfa_offset 12
 798              		.cfi_offset 4, -12
 799              		.cfi_offset 5, -8
 800              		.cfi_offset 14, -4
 801 0002 87B0     		sub	sp, sp, #28
 802              	.LCFI22:
 803              		.cfi_def_cfa_offset 40
 804              	.LBB12:
 126:./Src/varie.c ****   GPIO_InitTypeDef GPIO_InitStruct;
 127:./Src/varie.c ****   __HAL_RCC_GPIOA_CLK_ENABLE();
 805              		.loc 1 127 0
 806 0004 0F4B     		ldr	r3, .L66
 807 0006 9A69     		ldr	r2, [r3, #24]
 808 0008 42F00402 		orr	r2, r2, #4
 809 000c 9A61     		str	r2, [r3, #24]
 810 000e 9B69     		ldr	r3, [r3, #24]
 811 0010 03F00403 		and	r3, r3, #4
 812 0014 0193     		str	r3, [sp, #4]
 813 0016 019B     		ldr	r3, [sp, #4]
 814              	.LBE12:
 128:./Src/varie.c ****   GPIO_InitStruct.Pull = GPIO_PULLDOWN;
 815              		.loc 1 128 0
 816 0018 0224     		movs	r4, #2
 817 001a 0494     		str	r4, [sp, #16]
 129:./Src/varie.c ****   GPIO_InitStruct.Pin = Power_Pin;
 818              		.loc 1 129 0
 819 001c 2023     		movs	r3, #32
 820 001e 0293     		str	r3, [sp, #8]
 130:./Src/varie.c ****   GPIO_InitStruct.Mode = GPIO_MODE_OUTPUT_PP;
 821              		.loc 1 130 0
 822 0020 0123     		movs	r3, #1
 823 0022 0393     		str	r3, [sp, #12]
 131:./Src/varie.c ****   GPIO_InitStruct.Speed = GPIO_SPEED_FREQ_LOW;
 824              		.loc 1 131 0
 825 0024 0594     		str	r4, [sp, #20]
 132:./Src/varie.c ****   HAL_GPIO_Init(Power_GPIO_PORT, &GPIO_InitStruct);
 826              		.loc 1 132 0
 827 0026 084D     		ldr	r5, .L66+4
 828 0028 02A9     		add	r1, sp, #8
 829 002a 2846     		mov	r0, r5
 830 002c FFF7FEFF 		bl	HAL_GPIO_Init
 831              	.LVL66:
 133:./Src/varie.c **** 
 134:./Src/varie.c ****   GPIO_InitStruct.Pin = Button_Pin;
 832              		.loc 1 134 0
 833 0030 0294     		str	r4, [sp, #8]
 135:./Src/varie.c ****   GPIO_InitStruct.Mode = GPIO_MODE_INPUT;
 834              		.loc 1 135 0
 835 0032 0023     		movs	r3, #0
 836 0034 0393     		str	r3, [sp, #12]
 136:./Src/varie.c ****   GPIO_InitStruct.Pull = GPIO_NOPULL;
 837              		.loc 1 136 0
 838 0036 0493     		str	r3, [sp, #16]
ARM GAS  /tmp/ccVoyC0Y.s 			page 18


 137:./Src/varie.c ****   HAL_GPIO_Init(Button_GPIO_Port, &GPIO_InitStruct);
 839              		.loc 1 137 0
 840 0038 02A9     		add	r1, sp, #8
 841 003a 2846     		mov	r0, r5
 842 003c FFF7FEFF 		bl	HAL_GPIO_Init
 843              	.LVL67:
 138:./Src/varie.c **** //  tu32 = (uint32_t)GPIO_PIN_4 << 16;
 139:./Src/varie.c **** //  tu32 = (uint32_t)GPIO_PIN_5 << 16;
 140:./Src/varie.c **** 
 141:./Src/varie.c **** }
 844              		.loc 1 141 0
 845 0040 07B0     		add	sp, sp, #28
 846              	.LCFI23:
 847              		.cfi_def_cfa_offset 12
 848              		@ sp needed
 849 0042 30BD     		pop	{r4, r5, pc}
 850              	.L67:
 851              		.align	2
 852              	.L66:
 853 0044 00100240 		.word	1073876992
 854 0048 00080140 		.word	1073809408
 855              		.cfi_endproc
 856              	.LFE79:
 858              		.section	.text.DebugPin4_ON,"ax",%progbits
 859              		.align	1
 860              		.global	DebugPin4_ON
 861              		.syntax unified
 862              		.thumb
 863              		.thumb_func
 864              		.fpu softvfp
 866              	DebugPin4_ON:
 867              	.LFB80:
 142:./Src/varie.c **** void DebugPin4_ON(void){
 868              		.loc 1 142 0
 869              		.cfi_startproc
 870              		@ args = 0, pretend = 0, frame = 0
 871              		@ frame_needed = 0, uses_anonymous_args = 0
 872              		@ link register save eliminated.
 143:./Src/varie.c ****   GPIOC->BSRR = GPIO_PIN_4;
 873              		.loc 1 143 0
 874 0000 014B     		ldr	r3, .L69
 875 0002 1022     		movs	r2, #16
 876 0004 1A61     		str	r2, [r3, #16]
 144:./Src/varie.c **** }
 877              		.loc 1 144 0
 878 0006 7047     		bx	lr
 879              	.L70:
 880              		.align	2
 881              	.L69:
 882 0008 00100140 		.word	1073811456
 883              		.cfi_endproc
 884              	.LFE80:
 886              		.section	.text.DebugPin4_OFF,"ax",%progbits
 887              		.align	1
 888              		.global	DebugPin4_OFF
 889              		.syntax unified
 890              		.thumb
ARM GAS  /tmp/ccVoyC0Y.s 			page 19


 891              		.thumb_func
 892              		.fpu softvfp
 894              	DebugPin4_OFF:
 895              	.LFB81:
 145:./Src/varie.c **** void DebugPin4_OFF(void){
 896              		.loc 1 145 0
 897              		.cfi_startproc
 898              		@ args = 0, pretend = 0, frame = 0
 899              		@ frame_needed = 0, uses_anonymous_args = 0
 900              		@ link register save eliminated.
 146:./Src/varie.c ****   GPIOC->BSRR = 0x00100000;
 901              		.loc 1 146 0
 902 0000 024B     		ldr	r3, .L72
 903 0002 4FF48012 		mov	r2, #1048576
 904 0006 1A61     		str	r2, [r3, #16]
 147:./Src/varie.c **** }
 905              		.loc 1 147 0
 906 0008 7047     		bx	lr
 907              	.L73:
 908 000a 00BF     		.align	2
 909              	.L72:
 910 000c 00100140 		.word	1073811456
 911              		.cfi_endproc
 912              	.LFE81:
 914              		.section	.text.DebugPin5_ON,"ax",%progbits
 915              		.align	1
 916              		.global	DebugPin5_ON
 917              		.syntax unified
 918              		.thumb
 919              		.thumb_func
 920              		.fpu softvfp
 922              	DebugPin5_ON:
 923              	.LFB82:
 148:./Src/varie.c **** void DebugPin5_ON(void){
 924              		.loc 1 148 0
 925              		.cfi_startproc
 926              		@ args = 0, pretend = 0, frame = 0
 927              		@ frame_needed = 0, uses_anonymous_args = 0
 928              		@ link register save eliminated.
 149:./Src/varie.c ****   GPIOC->BSRR = GPIO_PIN_5;
 929              		.loc 1 149 0
 930 0000 014B     		ldr	r3, .L75
 931 0002 2022     		movs	r2, #32
 932 0004 1A61     		str	r2, [r3, #16]
 150:./Src/varie.c **** }
 933              		.loc 1 150 0
 934 0006 7047     		bx	lr
 935              	.L76:
 936              		.align	2
 937              	.L75:
 938 0008 00100140 		.word	1073811456
 939              		.cfi_endproc
 940              	.LFE82:
 942              		.section	.text.DebugPin5_OFF,"ax",%progbits
 943              		.align	1
 944              		.global	DebugPin5_OFF
 945              		.syntax unified
ARM GAS  /tmp/ccVoyC0Y.s 			page 20


 946              		.thumb
 947              		.thumb_func
 948              		.fpu softvfp
 950              	DebugPin5_OFF:
 951              	.LFB83:
 151:./Src/varie.c **** void DebugPin5_OFF(void){
 952              		.loc 1 151 0
 953              		.cfi_startproc
 954              		@ args = 0, pretend = 0, frame = 0
 955              		@ frame_needed = 0, uses_anonymous_args = 0
 956              		@ link register save eliminated.
 152:./Src/varie.c ****   GPIOC->BSRR = 0x00200000;
 957              		.loc 1 152 0
 958 0000 024B     		ldr	r3, .L78
 959 0002 4FF40012 		mov	r2, #2097152
 960 0006 1A61     		str	r2, [r3, #16]
 153:./Src/varie.c **** }
 961              		.loc 1 153 0
 962 0008 7047     		bx	lr
 963              	.L79:
 964 000a 00BF     		.align	2
 965              	.L78:
 966 000c 00100140 		.word	1073811456
 967              		.cfi_endproc
 968              	.LFE83:
 970              		.text
 971              	.Letext0:
 972              		.file 2 "/usr/arm-none-eabi/include/machine/_default_types.h"
 973              		.file 3 "/usr/arm-none-eabi/include/sys/_stdint.h"
 974              		.file 4 "./Drivers/CMSIS/Include/core_cm3.h"
 975              		.file 5 "./Drivers/CMSIS/Device/ST/STM32F1xx/Include/system_stm32f1xx.h"
 976              		.file 6 "./Drivers/CMSIS/Device/ST/STM32F1xx/Include/stm32f103xe.h"
 977              		.file 7 "/usr/arm-none-eabi/include/sys/lock.h"
 978              		.file 8 "/usr/arm-none-eabi/include/sys/_types.h"
 979              		.file 9 "/usr/lib/gcc/arm-none-eabi/7.2.0/include/stddef.h"
 980              		.file 10 "/usr/arm-none-eabi/include/sys/reent.h"
 981              		.file 11 "./Drivers/STM32F1xx_HAL_Driver/Inc/stm32f1xx_hal_def.h"
 982              		.file 12 "./Drivers/STM32F1xx_HAL_Driver/Inc/stm32f1xx_hal_gpio.h"
 983              		.file 13 "./Drivers/STM32F1xx_HAL_Driver/Inc/stm32f1xx_hal_iwdg.h"
 984              		.file 14 "./Inc/delay.h"
 985              		.file 15 "./Drivers/STM32F1xx_HAL_Driver/Inc/stm32f1xx_hal.h"
ARM GAS  /tmp/ccVoyC0Y.s 			page 21

